
/home/connerparker/ASEN_4013/AERIS-Software/pico-examples/build/pio/uart_rx/pio_uart_rx_intr.elf:     file format elf32-littlearm

Sections:
Idx Name          Size      VMA       LMA       File off  Algn
  0 .boot2        00000100  10000000  10000000  00001000  2**0
                  CONTENTS, ALLOC, LOAD, READONLY, CODE
  1 .text         00006160  10000100  10000100  00001100  2**3
                  CONTENTS, ALLOC, LOAD, READONLY, CODE
  2 .rodata       00000550  10006260  10006260  00007260  2**3
                  CONTENTS, ALLOC, LOAD, READONLY, DATA
  3 .binary_info  0000002c  100067b0  100067b0  000077b0  2**2
                  CONTENTS, ALLOC, LOAD, READONLY, DATA
  4 .ram_vector_table 000000c0  20000000  20000000  00009000  2**2
                  ALLOC
  5 .uninitialized_data 00000000  200000c0  200000c0  00008cc8  2**0
                  CONTENTS
  6 .data         00000c08  200000c0  100067dc  000080c0  2**4
                  CONTENTS, ALLOC, LOAD, READONLY, CODE
  7 .tdata        00000000  20000cc8  20000cc8  00008cc8  2**0
                  CONTENTS, ALLOC, LOAD, DATA, THREAD_LOCAL
  8 .tbss         00000000  20000cc8  20000cc8  00000000  2**0
                  ALLOC, THREAD_LOCAL
  9 .bss          00000510  20000cc8  100073e4  00008cc8  2**3
                  ALLOC
 10 .heap         00000800  200011d8  200011d8  00008cc8  2**2
                  CONTENTS, READONLY
 11 .scratch_x    00000000  20040000  20040000  000094c8  2**0
                  CONTENTS
 12 .scratch_y    00000000  20041000  20041000  000094c8  2**0
                  CONTENTS
 13 .stack1_dummy 00000800  20040000  20040000  00009000  2**2
                  ALLOC
 14 .stack_dummy  00000800  20041000  20041000  000094e0  2**5
                  CONTENTS, READONLY
 15 .ARM.attributes 00000028  00000000  00000000  00009ce0  2**0
                  CONTENTS, READONLY
 16 .comment      00000033  00000000  00000000  00009d08  2**0
                  CONTENTS, READONLY
 17 .debug_info   00030bd2  00000000  00000000  00009d3b  2**0
                  CONTENTS, READONLY, DEBUGGING, OCTETS
 18 .debug_abbrev 00008077  00000000  00000000  0003a90d  2**0
                  CONTENTS, READONLY, DEBUGGING, OCTETS
 19 .debug_loc    00023b42  00000000  00000000  00042984  2**0
                  CONTENTS, READONLY, DEBUGGING, OCTETS
 20 .debug_aranges 00001430  00000000  00000000  000664c8  2**3
                  CONTENTS, READONLY, DEBUGGING, OCTETS
 21 .debug_ranges 0000d5b0  00000000  00000000  000678f8  2**3
                  CONTENTS, READONLY, DEBUGGING, OCTETS
 22 .debug_line   00020ccf  00000000  00000000  00074ea8  2**0
                  CONTENTS, READONLY, DEBUGGING, OCTETS
 23 .debug_str    00007508  00000000  00000000  00095b77  2**0
                  CONTENTS, READONLY, DEBUGGING, OCTETS
 24 .debug_frame  000028e8  00000000  00000000  0009d080  2**2
                  CONTENTS, READONLY, DEBUGGING, OCTETS

/home/connerparker/ASEN_4013/AERIS-Software/pico-examples/build/pio/uart_rx/pio_uart_rx_intr.elf:     file format elf32-littlearm


Disassembly of section .boot2:

10000000 <__boot2_start__>:
10000000:	4b32b500 	.word	0x4b32b500
10000004:	60582021 	.word	0x60582021
10000008:	21026898 	.word	0x21026898
1000000c:	60984388 	.word	0x60984388
10000010:	611860d8 	.word	0x611860d8
10000014:	4b2e6158 	.word	0x4b2e6158
10000018:	60992100 	.word	0x60992100
1000001c:	61592102 	.word	0x61592102
10000020:	22f02101 	.word	0x22f02101
10000024:	492b5099 	.word	0x492b5099
10000028:	21016019 	.word	0x21016019
1000002c:	20356099 	.word	0x20356099
10000030:	f844f000 	.word	0xf844f000
10000034:	42902202 	.word	0x42902202
10000038:	2106d014 	.word	0x2106d014
1000003c:	f0006619 	.word	0xf0006619
10000040:	6e19f834 	.word	0x6e19f834
10000044:	66192101 	.word	0x66192101
10000048:	66182000 	.word	0x66182000
1000004c:	f000661a 	.word	0xf000661a
10000050:	6e19f82c 	.word	0x6e19f82c
10000054:	6e196e19 	.word	0x6e196e19
10000058:	f0002005 	.word	0xf0002005
1000005c:	2101f82f 	.word	0x2101f82f
10000060:	d1f94208 	.word	0xd1f94208
10000064:	60992100 	.word	0x60992100
10000068:	6019491b 	.word	0x6019491b
1000006c:	60592100 	.word	0x60592100
10000070:	481b491a 	.word	0x481b491a
10000074:	21016001 	.word	0x21016001
10000078:	21eb6099 	.word	0x21eb6099
1000007c:	21a06619 	.word	0x21a06619
10000080:	f0006619 	.word	0xf0006619
10000084:	2100f812 	.word	0x2100f812
10000088:	49166099 	.word	0x49166099
1000008c:	60014814 	.word	0x60014814
10000090:	60992101 	.word	0x60992101
10000094:	2800bc01 	.word	0x2800bc01
10000098:	4700d000 	.word	0x4700d000
1000009c:	49134812 	.word	0x49134812
100000a0:	c8036008 	.word	0xc8036008
100000a4:	8808f380 	.word	0x8808f380
100000a8:	b5034708 	.word	0xb5034708
100000ac:	20046a99 	.word	0x20046a99
100000b0:	d0fb4201 	.word	0xd0fb4201
100000b4:	42012001 	.word	0x42012001
100000b8:	bd03d1f8 	.word	0xbd03d1f8
100000bc:	6618b502 	.word	0x6618b502
100000c0:	f7ff6618 	.word	0xf7ff6618
100000c4:	6e18fff2 	.word	0x6e18fff2
100000c8:	bd026e18 	.word	0xbd026e18
100000cc:	40020000 	.word	0x40020000
100000d0:	18000000 	.word	0x18000000
100000d4:	00070000 	.word	0x00070000
100000d8:	005f0300 	.word	0x005f0300
100000dc:	00002221 	.word	0x00002221
100000e0:	180000f4 	.word	0x180000f4
100000e4:	a0002022 	.word	0xa0002022
100000e8:	10000100 	.word	0x10000100
100000ec:	e000ed08 	.word	0xe000ed08
	...
100000fc:	7a4eb274 	.word	0x7a4eb274

Disassembly of section .text:

10000100 <__VECTOR_TABLE>:
10000100:	20042000 	.word	0x20042000
10000104:	100001f7 	.word	0x100001f7
10000108:	100001c3 	.word	0x100001c3
1000010c:	100001c5 	.word	0x100001c5
10000110:	100001c1 	.word	0x100001c1
10000114:	100001c1 	.word	0x100001c1
10000118:	100001c1 	.word	0x100001c1
1000011c:	100001c1 	.word	0x100001c1
10000120:	100001c1 	.word	0x100001c1
10000124:	100001c1 	.word	0x100001c1
10000128:	100001c1 	.word	0x100001c1
1000012c:	100001c7 	.word	0x100001c7
10000130:	100001c1 	.word	0x100001c1
10000134:	100001c1 	.word	0x100001c1
10000138:	100001c9 	.word	0x100001c9
1000013c:	100001cb 	.word	0x100001cb
10000140:	100001cd 	.word	0x100001cd
10000144:	100001cd 	.word	0x100001cd
10000148:	100001cd 	.word	0x100001cd
1000014c:	100001cd 	.word	0x100001cd
10000150:	100001cd 	.word	0x100001cd
10000154:	100001cd 	.word	0x100001cd
10000158:	100001cd 	.word	0x100001cd
1000015c:	100001cd 	.word	0x100001cd
10000160:	100001cd 	.word	0x100001cd
10000164:	100001cd 	.word	0x100001cd
10000168:	100001cd 	.word	0x100001cd
1000016c:	100001cd 	.word	0x100001cd
10000170:	100001cd 	.word	0x100001cd
10000174:	100001cd 	.word	0x100001cd
10000178:	100001cd 	.word	0x100001cd
1000017c:	100001cd 	.word	0x100001cd
10000180:	100001cd 	.word	0x100001cd
10000184:	100001cd 	.word	0x100001cd
10000188:	100001cd 	.word	0x100001cd
1000018c:	100001cd 	.word	0x100001cd
10000190:	100001cd 	.word	0x100001cd
10000194:	100001cd 	.word	0x100001cd
10000198:	100001cd 	.word	0x100001cd
1000019c:	100001cd 	.word	0x100001cd
100001a0:	100001cd 	.word	0x100001cd
100001a4:	100001cd 	.word	0x100001cd
100001a8:	100001cd 	.word	0x100001cd
100001ac:	100001cd 	.word	0x100001cd
100001b0:	100001cd 	.word	0x100001cd
100001b4:	100001cd 	.word	0x100001cd
100001b8:	100001cd 	.word	0x100001cd
100001bc:	100001cd 	.word	0x100001cd

100001c0 <isr_invalid>:
100001c0:	be00      	bkpt	0x0000

100001c2 <isr_nmi>:
100001c2:	be00      	bkpt	0x0000

100001c4 <isr_hardfault>:
100001c4:	be00      	bkpt	0x0000

100001c6 <isr_svcall>:
100001c6:	be00      	bkpt	0x0000

100001c8 <isr_pendsv>:
100001c8:	be00      	bkpt	0x0000

100001ca <isr_systick>:
100001ca:	be00      	bkpt	0x0000

100001cc <__unhandled_user_irq>:
100001cc:	f3ef 8005 	mrs	r0, IPSR
100001d0:	3810      	subs	r0, #16

100001d2 <unhandled_user_irq_num_in_r0>:
100001d2:	be00      	bkpt	0x0000

100001d4 <binary_info_header>:
100001d4:	7188ebf2 	.word	0x7188ebf2
100001d8:	100067b0 	.word	0x100067b0
100001dc:	100067dc 	.word	0x100067dc
100001e0:	10000238 	.word	0x10000238
100001e4:	e71aa390 	.word	0xe71aa390

100001e8 <_entry_point>:
100001e8:	481e      	ldr	r0, [pc, #120]	; (10000264 <data_cpy_table+0x2c>)

100001ea <_enter_vtable_in_r0>:
100001ea:	491f      	ldr	r1, [pc, #124]	; (10000268 <data_cpy_table+0x30>)
100001ec:	6008      	str	r0, [r1, #0]
100001ee:	c806      	ldmia	r0!, {r1, r2}
100001f0:	f381 8808 	msr	MSP, r1
100001f4:	4710      	bx	r2

100001f6 <_reset_handler>:
100001f6:	481d      	ldr	r0, [pc, #116]	; (1000026c <data_cpy_table+0x34>)
100001f8:	6800      	ldr	r0, [r0, #0]
100001fa:	2800      	cmp	r0, #0
100001fc:	d001      	beq.n	10000202 <hold_non_core0_in_bootrom+0x4>

100001fe <hold_non_core0_in_bootrom>:
100001fe:	4819      	ldr	r0, [pc, #100]	; (10000264 <data_cpy_table+0x2c>)
10000200:	e7f3      	b.n	100001ea <_enter_vtable_in_r0>
10000202:	a40d      	add	r4, pc, #52	; (adr r4, 10000238 <data_cpy_table>)
10000204:	cc0e      	ldmia	r4!, {r1, r2, r3}
10000206:	2900      	cmp	r1, #0
10000208:	d002      	beq.n	10000210 <hold_non_core0_in_bootrom+0x12>
1000020a:	f000 f812 	bl	10000232 <data_cpy>
1000020e:	e7f9      	b.n	10000204 <hold_non_core0_in_bootrom+0x6>
10000210:	4917      	ldr	r1, [pc, #92]	; (10000270 <data_cpy_table+0x38>)
10000212:	4a18      	ldr	r2, [pc, #96]	; (10000274 <data_cpy_table+0x3c>)
10000214:	2000      	movs	r0, #0
10000216:	e000      	b.n	1000021a <bss_fill_test>

10000218 <bss_fill_loop>:
10000218:	c101      	stmia	r1!, {r0}

1000021a <bss_fill_test>:
1000021a:	4291      	cmp	r1, r2
1000021c:	d1fc      	bne.n	10000218 <bss_fill_loop>

1000021e <platform_entry>:
1000021e:	4916      	ldr	r1, [pc, #88]	; (10000278 <data_cpy_table+0x40>)
10000220:	4788      	blx	r1
10000222:	4916      	ldr	r1, [pc, #88]	; (1000027c <data_cpy_table+0x44>)
10000224:	4788      	blx	r1
10000226:	4916      	ldr	r1, [pc, #88]	; (10000280 <data_cpy_table+0x48>)
10000228:	4788      	blx	r1
1000022a:	be00      	bkpt	0x0000
1000022c:	e7fd      	b.n	1000022a <platform_entry+0xc>

1000022e <data_cpy_loop>:
1000022e:	c901      	ldmia	r1!, {r0}
10000230:	c201      	stmia	r2!, {r0}

10000232 <data_cpy>:
10000232:	429a      	cmp	r2, r3
10000234:	d3fb      	bcc.n	1000022e <data_cpy_loop>
10000236:	4770      	bx	lr

10000238 <data_cpy_table>:
10000238:	100067dc 	.word	0x100067dc
1000023c:	200000c0 	.word	0x200000c0
10000240:	20000cc8 	.word	0x20000cc8
10000244:	100073e4 	.word	0x100073e4
10000248:	20040000 	.word	0x20040000
1000024c:	20040000 	.word	0x20040000
10000250:	100073e4 	.word	0x100073e4
10000254:	20041000 	.word	0x20041000
10000258:	20041000 	.word	0x20041000
1000025c:	00000000 	.word	0x00000000
10000260:	4770      	bx	lr
10000262:	0000      	.short	0x0000
10000264:	00000000 	.word	0x00000000
10000268:	e000ed08 	.word	0xe000ed08
1000026c:	d0000000 	.word	0xd0000000
10000270:	20000cc8 	.word	0x20000cc8
10000274:	200011d8 	.word	0x200011d8
10000278:	10004695 	.word	0x10004695
1000027c:	100004c9 	.word	0x100004c9
10000280:	1000468d 	.word	0x1000468d

10000284 <_init>:
10000284:	b5f8      	push	{r3, r4, r5, r6, r7, lr}
10000286:	46c0      	nop			; (mov r8, r8)

10000288 <deregister_tm_clones>:
10000288:	4804      	ldr	r0, [pc, #16]	; (1000029c <deregister_tm_clones+0x14>)
1000028a:	4b05      	ldr	r3, [pc, #20]	; (100002a0 <deregister_tm_clones+0x18>)
1000028c:	b510      	push	{r4, lr}
1000028e:	4283      	cmp	r3, r0
10000290:	d003      	beq.n	1000029a <deregister_tm_clones+0x12>
10000292:	4b04      	ldr	r3, [pc, #16]	; (100002a4 <deregister_tm_clones+0x1c>)
10000294:	2b00      	cmp	r3, #0
10000296:	d000      	beq.n	1000029a <deregister_tm_clones+0x12>
10000298:	4798      	blx	r3
1000029a:	bd10      	pop	{r4, pc}
1000029c:	20000cc8 	.word	0x20000cc8
100002a0:	20000cc8 	.word	0x20000cc8
100002a4:	00000000 	.word	0x00000000

100002a8 <register_tm_clones>:
100002a8:	4806      	ldr	r0, [pc, #24]	; (100002c4 <register_tm_clones+0x1c>)
100002aa:	4907      	ldr	r1, [pc, #28]	; (100002c8 <register_tm_clones+0x20>)
100002ac:	1a09      	subs	r1, r1, r0
100002ae:	108b      	asrs	r3, r1, #2
100002b0:	0fc9      	lsrs	r1, r1, #31
100002b2:	18c9      	adds	r1, r1, r3
100002b4:	b510      	push	{r4, lr}
100002b6:	1049      	asrs	r1, r1, #1
100002b8:	d003      	beq.n	100002c2 <register_tm_clones+0x1a>
100002ba:	4b04      	ldr	r3, [pc, #16]	; (100002cc <register_tm_clones+0x24>)
100002bc:	2b00      	cmp	r3, #0
100002be:	d000      	beq.n	100002c2 <register_tm_clones+0x1a>
100002c0:	4798      	blx	r3
100002c2:	bd10      	pop	{r4, pc}
100002c4:	20000cc8 	.word	0x20000cc8
100002c8:	20000cc8 	.word	0x20000cc8
100002cc:	00000000 	.word	0x00000000

100002d0 <__do_global_dtors_aux>:
100002d0:	b510      	push	{r4, lr}
100002d2:	4c07      	ldr	r4, [pc, #28]	; (100002f0 <__do_global_dtors_aux+0x20>)
100002d4:	7823      	ldrb	r3, [r4, #0]
100002d6:	2b00      	cmp	r3, #0
100002d8:	d109      	bne.n	100002ee <__do_global_dtors_aux+0x1e>
100002da:	f7ff ffd5 	bl	10000288 <deregister_tm_clones>
100002de:	4b05      	ldr	r3, [pc, #20]	; (100002f4 <__do_global_dtors_aux+0x24>)
100002e0:	2b00      	cmp	r3, #0
100002e2:	d002      	beq.n	100002ea <__do_global_dtors_aux+0x1a>
100002e4:	4804      	ldr	r0, [pc, #16]	; (100002f8 <__do_global_dtors_aux+0x28>)
100002e6:	e000      	b.n	100002ea <__do_global_dtors_aux+0x1a>
100002e8:	bf00      	nop
100002ea:	2301      	movs	r3, #1
100002ec:	7023      	strb	r3, [r4, #0]
100002ee:	bd10      	pop	{r4, pc}
100002f0:	20001098 	.word	0x20001098
100002f4:	00000000 	.word	0x00000000
100002f8:	10006260 	.word	0x10006260

100002fc <frame_dummy>:
100002fc:	4b05      	ldr	r3, [pc, #20]	; (10000314 <frame_dummy+0x18>)
100002fe:	b510      	push	{r4, lr}
10000300:	2b00      	cmp	r3, #0
10000302:	d003      	beq.n	1000030c <frame_dummy+0x10>
10000304:	4904      	ldr	r1, [pc, #16]	; (10000318 <frame_dummy+0x1c>)
10000306:	4805      	ldr	r0, [pc, #20]	; (1000031c <frame_dummy+0x20>)
10000308:	e000      	b.n	1000030c <frame_dummy+0x10>
1000030a:	bf00      	nop
1000030c:	f7ff ffcc 	bl	100002a8 <register_tm_clones>
10000310:	bd10      	pop	{r4, pc}
10000312:	46c0      	nop			; (mov r8, r8)
10000314:	00000000 	.word	0x00000000
10000318:	2000109c 	.word	0x2000109c
1000031c:	10006260 	.word	0x10006260

10000320 <pio_irq_func>:
10000320:	2101      	movs	r1, #1
10000322:	b5f0      	push	{r4, r5, r6, r7, lr}
10000324:	46c6      	mov	lr, r8
10000326:	4e18      	ldr	r6, [pc, #96]	; (10000388 <pio_irq_func+0x68>)
10000328:	4d18      	ldr	r5, [pc, #96]	; (1000038c <pio_irq_func+0x6c>)
1000032a:	6833      	ldr	r3, [r6, #0]
1000032c:	b500      	push	{lr}
1000032e:	3308      	adds	r3, #8
10000330:	4099      	lsls	r1, r3
10000332:	682a      	ldr	r2, [r5, #0]
10000334:	b082      	sub	sp, #8
10000336:	6850      	ldr	r0, [r2, #4]
10000338:	4201      	tst	r1, r0
1000033a:	d119      	bne.n	10000370 <pio_irq_func+0x50>
1000033c:	4668      	mov	r0, sp
1000033e:	1dc4      	adds	r4, r0, #7
10000340:	4813      	ldr	r0, [pc, #76]	; (10000390 <pio_irq_func+0x70>)
10000342:	2701      	movs	r7, #1
10000344:	4680      	mov	r8, r0
10000346:	0098      	lsls	r0, r3, #2
10000348:	1810      	adds	r0, r2, r0
1000034a:	6853      	ldr	r3, [r2, #4]
1000034c:	4219      	tst	r1, r3
1000034e:	d1fc      	bne.n	1000034a <pio_irq_func+0x2a>
10000350:	78c3      	ldrb	r3, [r0, #3]
10000352:	0021      	movs	r1, r4
10000354:	4640      	mov	r0, r8
10000356:	7023      	strb	r3, [r4, #0]
10000358:	f001 fba0 	bl	10001a9c <queue_try_add>
1000035c:	2800      	cmp	r0, #0
1000035e:	d010      	beq.n	10000382 <pio_irq_func+0x62>
10000360:	0039      	movs	r1, r7
10000362:	6833      	ldr	r3, [r6, #0]
10000364:	682a      	ldr	r2, [r5, #0]
10000366:	3308      	adds	r3, #8
10000368:	4099      	lsls	r1, r3
1000036a:	6850      	ldr	r0, [r2, #4]
1000036c:	4201      	tst	r1, r0
1000036e:	d0ea      	beq.n	10000346 <pio_irq_func+0x26>
10000370:	4808      	ldr	r0, [pc, #32]	; (10000394 <pio_irq_func+0x74>)
10000372:	4909      	ldr	r1, [pc, #36]	; (10000398 <pio_irq_func+0x78>)
10000374:	6803      	ldr	r3, [r0, #0]
10000376:	6a5b      	ldr	r3, [r3, #36]	; 0x24
10000378:	4798      	blx	r3
1000037a:	b002      	add	sp, #8
1000037c:	bc80      	pop	{r7}
1000037e:	46b8      	mov	r8, r7
10000380:	bdf0      	pop	{r4, r5, r6, r7, pc}
10000382:	4806      	ldr	r0, [pc, #24]	; (1000039c <pio_irq_func+0x7c>)
10000384:	f000 fa72 	bl	1000086c <panic>
10000388:	20001188 	.word	0x20001188
1000038c:	2000116c 	.word	0x2000116c
10000390:	2000114c 	.word	0x2000114c
10000394:	20000cc8 	.word	0x20000cc8
10000398:	200003c8 	.word	0x200003c8
1000039c:	10006260 	.word	0x10006260

100003a0 <async_worker_func>:
100003a0:	2201      	movs	r2, #1
100003a2:	b570      	push	{r4, r5, r6, lr}
100003a4:	4b16      	ldr	r3, [pc, #88]	; (10000400 <async_worker_func+0x60>)
100003a6:	b082      	sub	sp, #8
100003a8:	701a      	strb	r2, [r3, #0]
100003aa:	466b      	mov	r3, sp
100003ac:	2600      	movs	r6, #0
100003ae:	4c15      	ldr	r4, [pc, #84]	; (10000404 <async_worker_func+0x64>)
100003b0:	1ddd      	adds	r5, r3, #7
100003b2:	e008      	b.n	100003c6 <async_worker_func+0x26>
100003b4:	0029      	movs	r1, r5
100003b6:	0020      	movs	r0, r4
100003b8:	f001 fba8 	bl	10001b0c <queue_try_remove>
100003bc:	2800      	cmp	r0, #0
100003be:	d01c      	beq.n	100003fa <async_worker_func+0x5a>
100003c0:	7828      	ldrb	r0, [r5, #0]
100003c2:	f004 fa77 	bl	100048b4 <__wrap_putchar>
100003c6:	6822      	ldr	r2, [r4, #0]
100003c8:	f3ef 8110 	mrs	r1, PRIMASK
100003cc:	b672      	cpsid	i
100003ce:	6813      	ldr	r3, [r2, #0]
100003d0:	2b00      	cmp	r3, #0
100003d2:	d0fc      	beq.n	100003ce <async_worker_func+0x2e>
100003d4:	f3bf 8f5f 	dmb	sy
100003d8:	8923      	ldrh	r3, [r4, #8]
100003da:	8962      	ldrh	r2, [r4, #10]
100003dc:	1a9b      	subs	r3, r3, r2
100003de:	d502      	bpl.n	100003e6 <async_worker_func+0x46>
100003e0:	89e2      	ldrh	r2, [r4, #14]
100003e2:	3201      	adds	r2, #1
100003e4:	189b      	adds	r3, r3, r2
100003e6:	6822      	ldr	r2, [r4, #0]
100003e8:	f3bf 8f5f 	dmb	sy
100003ec:	6016      	str	r6, [r2, #0]
100003ee:	f381 8810 	msr	PRIMASK, r1
100003f2:	2b00      	cmp	r3, #0
100003f4:	d1de      	bne.n	100003b4 <async_worker_func+0x14>
100003f6:	b002      	add	sp, #8
100003f8:	bd70      	pop	{r4, r5, r6, pc}
100003fa:	4803      	ldr	r0, [pc, #12]	; (10000408 <async_worker_func+0x68>)
100003fc:	f000 fa36 	bl	1000086c <panic>
10000400:	200011d7 	.word	0x200011d7
10000404:	2000114c 	.word	0x2000114c
10000408:	1000626c 	.word	0x1000626c

1000040c <core1_main>:
1000040c:	b5f0      	push	{r4, r5, r6, r7, lr}
1000040e:	46d6      	mov	lr, sl
10000410:	464f      	mov	r7, r9
10000412:	4646      	mov	r6, r8
10000414:	4c27      	ldr	r4, [pc, #156]	; (100004b4 <core1_main+0xa8>)
10000416:	b5c0      	push	{r6, r7, lr}
10000418:	6823      	ldr	r3, [r4, #0]
1000041a:	2b09      	cmp	r3, #9
1000041c:	d838      	bhi.n	10000490 <core1_main+0x84>
1000041e:	4b26      	ldr	r3, [pc, #152]	; (100004b8 <core1_main+0xac>)
10000420:	4699      	mov	r9, r3
10000422:	4b26      	ldr	r3, [pc, #152]	; (100004bc <core1_main+0xb0>)
10000424:	469a      	mov	sl, r3
10000426:	4b26      	ldr	r3, [pc, #152]	; (100004c0 <core1_main+0xb4>)
10000428:	4698      	mov	r8, r3
1000042a:	f005 fd13 	bl	10005e54 <rand>
1000042e:	21fa      	movs	r1, #250	; 0xfa
10000430:	0089      	lsls	r1, r1, #2
10000432:	f001 fecb 	bl	100021cc <__wrap___aeabi_idiv>
10000436:	23fa      	movs	r3, #250	; 0xfa
10000438:	009b      	lsls	r3, r3, #2
1000043a:	18c8      	adds	r0, r1, r3
1000043c:	f001 fa1a 	bl	10001874 <sleep_ms>
10000440:	6822      	ldr	r2, [r4, #0]
10000442:	4649      	mov	r1, r9
10000444:	1c53      	adds	r3, r2, #1
10000446:	4650      	mov	r0, sl
10000448:	6023      	str	r3, [r4, #0]
1000044a:	f004 f8d7 	bl	100045fc <__wrap_sprintf>
1000044e:	4653      	mov	r3, sl
10000450:	781f      	ldrb	r7, [r3, #0]
10000452:	2f00      	cmp	r7, #0
10000454:	d019      	beq.n	1000048a <core1_main+0x7e>
10000456:	250d      	movs	r5, #13
10000458:	4643      	mov	r3, r8
1000045a:	4650      	mov	r0, sl
1000045c:	2100      	movs	r1, #0
1000045e:	2220      	movs	r2, #32
10000460:	46ac      	mov	ip, r5
10000462:	2602      	movs	r6, #2
10000464:	5f9e      	ldrsh	r6, [r3, r6]
10000466:	4b17      	ldr	r3, [pc, #92]	; (100004c4 <core1_main+0xb8>)
10000468:	2900      	cmp	r1, #0
1000046a:	d116      	bne.n	1000049a <core1_main+0x8e>
1000046c:	42be      	cmp	r6, r7
1000046e:	d01b      	beq.n	100004a8 <core1_main+0x9c>
10000470:	6999      	ldr	r1, [r3, #24]
10000472:	420a      	tst	r2, r1
10000474:	d1fc      	bne.n	10000470 <core1_main+0x64>
10000476:	601f      	str	r7, [r3, #0]
10000478:	7801      	ldrb	r1, [r0, #0]
1000047a:	3001      	adds	r0, #1
1000047c:	390d      	subs	r1, #13
1000047e:	424f      	negs	r7, r1
10000480:	4179      	adcs	r1, r7
10000482:	7807      	ldrb	r7, [r0, #0]
10000484:	b2c9      	uxtb	r1, r1
10000486:	2f00      	cmp	r7, #0
10000488:	d1ee      	bne.n	10000468 <core1_main+0x5c>
1000048a:	6823      	ldr	r3, [r4, #0]
1000048c:	2b09      	cmp	r3, #9
1000048e:	d9cc      	bls.n	1000042a <core1_main+0x1e>
10000490:	bce0      	pop	{r5, r6, r7}
10000492:	46ba      	mov	sl, r7
10000494:	46b1      	mov	r9, r6
10000496:	46a8      	mov	r8, r5
10000498:	bdf0      	pop	{r4, r5, r6, r7, pc}
1000049a:	6999      	ldr	r1, [r3, #24]
1000049c:	420a      	tst	r2, r1
1000049e:	d0ea      	beq.n	10000476 <core1_main+0x6a>
100004a0:	6999      	ldr	r1, [r3, #24]
100004a2:	420a      	tst	r2, r1
100004a4:	d1f9      	bne.n	1000049a <core1_main+0x8e>
100004a6:	e7e6      	b.n	10000476 <core1_main+0x6a>
100004a8:	6999      	ldr	r1, [r3, #24]
100004aa:	420a      	tst	r2, r1
100004ac:	d1fc      	bne.n	100004a8 <core1_main+0x9c>
100004ae:	4661      	mov	r1, ip
100004b0:	6019      	str	r1, [r3, #0]
100004b2:	e7dd      	b.n	10000470 <core1_main+0x64>
100004b4:	20001144 	.word	0x20001144
100004b8:	10006278 	.word	0x10006278
100004bc:	2000118c 	.word	0x2000118c
100004c0:	200011cc 	.word	0x200011cc
100004c4:	40038000 	.word	0x40038000

100004c8 <main>:
100004c8:	b5f0      	push	{r4, r5, r6, r7, lr}
100004ca:	46de      	mov	lr, fp
100004cc:	4657      	mov	r7, sl
100004ce:	464e      	mov	r6, r9
100004d0:	4645      	mov	r5, r8
100004d2:	b5e0      	push	{r5, r6, r7, lr}
100004d4:	b08f      	sub	sp, #60	; 0x3c
100004d6:	f000 f991 	bl	100007fc <setup_default_uart>
100004da:	48b1      	ldr	r0, [pc, #708]	; (100007a0 <main+0x2d8>)
100004dc:	f004 fa36 	bl	1000494c <__wrap_puts>
100004e0:	21e1      	movs	r1, #225	; 0xe1
100004e2:	48b0      	ldr	r0, [pc, #704]	; (100007a4 <main+0x2dc>)
100004e4:	0249      	lsls	r1, r1, #9
100004e6:	f001 fb4b 	bl	10001b80 <uart_init>
100004ea:	2102      	movs	r1, #2
100004ec:	2004      	movs	r0, #4
100004ee:	f000 f989 	bl	10000804 <gpio_set_function>
100004f2:	f000 fa75 	bl	100009e0 <next_striped_spin_lock_num>
100004f6:	2101      	movs	r1, #1
100004f8:	0003      	movs	r3, r0
100004fa:	2240      	movs	r2, #64	; 0x40
100004fc:	48aa      	ldr	r0, [pc, #680]	; (100007a8 <main+0x2e0>)
100004fe:	f001 fab5 	bl	10001a6c <queue_init_with_spinlock>
10000502:	a80a      	add	r0, sp, #40	; 0x28
10000504:	f005 f84a 	bl	1000559c <async_context_threadsafe_background_default_config>
10000508:	4ca8      	ldr	r4, [pc, #672]	; (100007ac <main+0x2e4>)
1000050a:	a90a      	add	r1, sp, #40	; 0x28
1000050c:	0020      	movs	r0, r4
1000050e:	f005 f84b 	bl	100055a8 <async_context_threadsafe_background_init>
10000512:	2800      	cmp	r0, #0
10000514:	d100      	bne.n	10000518 <main+0x50>
10000516:	e13c      	b.n	10000792 <main+0x2ca>
10000518:	6823      	ldr	r3, [r4, #0]
1000051a:	49a5      	ldr	r1, [pc, #660]	; (100007b0 <main+0x2e8>)
1000051c:	69db      	ldr	r3, [r3, #28]
1000051e:	0020      	movs	r0, r4
10000520:	4798      	blx	r3
10000522:	4ba4      	ldr	r3, [pc, #656]	; (100007b4 <main+0x2ec>)
10000524:	48a4      	ldr	r0, [pc, #656]	; (100007b8 <main+0x2f0>)
10000526:	469a      	mov	sl, r3
10000528:	4ba4      	ldr	r3, [pc, #656]	; (100007bc <main+0x2f4>)
1000052a:	4652      	mov	r2, sl
1000052c:	469b      	mov	fp, r3
1000052e:	2301      	movs	r3, #1
10000530:	9302      	str	r3, [sp, #8]
10000532:	9301      	str	r3, [sp, #4]
10000534:	3302      	adds	r3, #2
10000536:	9300      	str	r3, [sp, #0]
10000538:	4659      	mov	r1, fp
1000053a:	4ba1      	ldr	r3, [pc, #644]	; (100007c0 <main+0x2f8>)
1000053c:	f004 fc2e 	bl	10004d9c <pio_claim_free_sm_and_add_program_for_gpio_range>
10000540:	2800      	cmp	r0, #0
10000542:	d100      	bne.n	10000546 <main+0x7e>
10000544:	e122      	b.n	1000078c <main+0x2c4>
10000546:	465b      	mov	r3, fp
10000548:	681e      	ldr	r6, [r3, #0]
1000054a:	4653      	mov	r3, sl
1000054c:	681b      	ldr	r3, [r3, #0]
1000054e:	2500      	movs	r5, #0
10000550:	4698      	mov	r8, r3
10000552:	4b9b      	ldr	r3, [pc, #620]	; (100007c0 <main+0x2f8>)
10000554:	2203      	movs	r2, #3
10000556:	681b      	ldr	r3, [r3, #0]
10000558:	4641      	mov	r1, r8
1000055a:	4699      	mov	r9, r3
1000055c:	9500      	str	r5, [sp, #0]
1000055e:	2301      	movs	r3, #1
10000560:	0030      	movs	r0, r6
10000562:	f004 fb73 	bl	10004c4c <pio_sm_set_consecutive_pindirs>
10000566:	4b97      	ldr	r3, [pc, #604]	; (100007c4 <main+0x2fc>)
10000568:	2003      	movs	r0, #3
1000056a:	18f1      	adds	r1, r6, r3
1000056c:	0d09      	lsrs	r1, r1, #20
1000056e:	3106      	adds	r1, #6
10000570:	b2c9      	uxtb	r1, r1
10000572:	f000 f947 	bl	10000804 <gpio_set_function>
10000576:	2200      	movs	r2, #0
10000578:	2101      	movs	r1, #1
1000057a:	2003      	movs	r0, #3
1000057c:	f000 f95c 	bl	10000838 <gpio_set_pulls>
10000580:	2280      	movs	r2, #128	; 0x80
10000582:	23f8      	movs	r3, #248	; 0xf8
10000584:	0252      	lsls	r2, r2, #9
10000586:	025b      	lsls	r3, r3, #9
10000588:	9206      	str	r2, [sp, #24]
1000058a:	9307      	str	r3, [sp, #28]
1000058c:	23c0      	movs	r3, #192	; 0xc0
1000058e:	2210      	movs	r2, #16
10000590:	031b      	lsls	r3, r3, #12
10000592:	9509      	str	r5, [sp, #36]	; 0x24
10000594:	a906      	add	r1, sp, #24
10000596:	464d      	mov	r5, r9
10000598:	a80a      	add	r0, sp, #40	; 0x28
1000059a:	9308      	str	r3, [sp, #32]
1000059c:	f002 fd72 	bl	10003084 <__wrap___aeabi_memcpy>
100005a0:	464b      	mov	r3, r9
100005a2:	3508      	adds	r5, #8
100005a4:	01db      	lsls	r3, r3, #7
100005a6:	032d      	lsls	r5, r5, #12
100005a8:	2210      	movs	r2, #16
100005aa:	431d      	orrs	r5, r3
100005ac:	a90a      	add	r1, sp, #40	; 0x28
100005ae:	a806      	add	r0, sp, #24
100005b0:	950b      	str	r5, [sp, #44]	; 0x2c
100005b2:	f002 fd67 	bl	10003084 <__wrap___aeabi_memcpy>
100005b6:	23c0      	movs	r3, #192	; 0xc0
100005b8:	025b      	lsls	r3, r3, #9
100005ba:	9309      	str	r3, [sp, #36]	; 0x24
100005bc:	4b82      	ldr	r3, [pc, #520]	; (100007c8 <main+0x300>)
100005be:	2005      	movs	r0, #5
100005c0:	401d      	ands	r5, r3
100005c2:	23c0      	movs	r3, #192	; 0xc0
100005c4:	049b      	lsls	r3, r3, #18
100005c6:	431d      	orrs	r5, r3
100005c8:	4b80      	ldr	r3, [pc, #512]	; (100007cc <main+0x304>)
100005ca:	9507      	str	r5, [sp, #28]
100005cc:	9308      	str	r3, [sp, #32]
100005ce:	f001 fc65 	bl	10001e9c <clock_get_hz>
100005d2:	f002 fc83 	bl	10002edc <__wrap___aeabi_ui2f>
100005d6:	497e      	ldr	r1, [pc, #504]	; (100007d0 <main+0x308>)
100005d8:	f002 fc65 	bl	10002ea6 <__wrap___aeabi_fdiv>
100005dc:	21ec      	movs	r1, #236	; 0xec
100005de:	0589      	lsls	r1, r1, #22
100005e0:	f002 fc5e 	bl	10002ea0 <__wrap___aeabi_fadd>
100005e4:	1c07      	adds	r7, r0, #0
100005e6:	f002 fca1 	bl	10002f2c <__wrap___aeabi_f2uiz>
100005ea:	b285      	uxth	r5, r0
100005ec:	2000      	movs	r0, #0
100005ee:	2d00      	cmp	r5, #0
100005f0:	d000      	beq.n	100005f4 <main+0x12c>
100005f2:	e0bc      	b.n	1000076e <main+0x2a6>
100005f4:	0200      	lsls	r0, r0, #8
100005f6:	042d      	lsls	r5, r5, #16
100005f8:	4328      	orrs	r0, r5
100005fa:	464a      	mov	r2, r9
100005fc:	4641      	mov	r1, r8
100005fe:	9006      	str	r0, [sp, #24]
10000600:	ab06      	add	r3, sp, #24
10000602:	0030      	movs	r0, r6
10000604:	f004 fb80 	bl	10004d08 <pio_sm_init>
10000608:	2301      	movs	r3, #1
1000060a:	4641      	mov	r1, r8
1000060c:	408b      	lsls	r3, r1
1000060e:	6832      	ldr	r2, [r6, #0]
10000610:	4313      	orrs	r3, r2
10000612:	6033      	str	r3, [r6, #0]
10000614:	465b      	mov	r3, fp
10000616:	6818      	ldr	r0, [r3, #0]
10000618:	4b6a      	ldr	r3, [pc, #424]	; (100007c4 <main+0x2fc>)
1000061a:	469c      	mov	ip, r3
1000061c:	4460      	add	r0, ip
1000061e:	0d00      	lsrs	r0, r0, #20
10000620:	0040      	lsls	r0, r0, #1
10000622:	4b6c      	ldr	r3, [pc, #432]	; (100007d4 <main+0x30c>)
10000624:	3007      	adds	r0, #7
10000626:	b240      	sxtb	r0, r0
10000628:	7018      	strb	r0, [r3, #0]
1000062a:	f000 fa55 	bl	10000ad8 <irq_get_exclusive_handler>
1000062e:	2800      	cmp	r0, #0
10000630:	d009      	beq.n	10000646 <main+0x17e>
10000632:	4b68      	ldr	r3, [pc, #416]	; (100007d4 <main+0x30c>)
10000634:	7818      	ldrb	r0, [r3, #0]
10000636:	3001      	adds	r0, #1
10000638:	b240      	sxtb	r0, r0
1000063a:	7018      	strb	r0, [r3, #0]
1000063c:	f000 fa4c 	bl	10000ad8 <irq_get_exclusive_handler>
10000640:	2800      	cmp	r0, #0
10000642:	d000      	beq.n	10000646 <main+0x17e>
10000644:	e0a8      	b.n	10000798 <main+0x2d0>
10000646:	2000      	movs	r0, #0
10000648:	4b62      	ldr	r3, [pc, #392]	; (100007d4 <main+0x30c>)
1000064a:	2280      	movs	r2, #128	; 0x80
1000064c:	5618      	ldrsb	r0, [r3, r0]
1000064e:	4962      	ldr	r1, [pc, #392]	; (100007d8 <main+0x310>)
10000650:	f000 fa6a 	bl	10000b28 <irq_add_shared_handler>
10000654:	2000      	movs	r0, #0
10000656:	4b5f      	ldr	r3, [pc, #380]	; (100007d4 <main+0x30c>)
10000658:	2101      	movs	r1, #1
1000065a:	5618      	ldrsb	r0, [r3, r0]
1000065c:	f000 f9ec 	bl	10000a38 <irq_set_enabled>
10000660:	465b      	mov	r3, fp
10000662:	2100      	movs	r1, #0
10000664:	681a      	ldr	r2, [r3, #0]
10000666:	4b5b      	ldr	r3, [pc, #364]	; (100007d4 <main+0x30c>)
10000668:	2700      	movs	r7, #0
1000066a:	5659      	ldrsb	r1, [r3, r1]
1000066c:	4b55      	ldr	r3, [pc, #340]	; (100007c4 <main+0x2fc>)
1000066e:	4e5b      	ldr	r6, [pc, #364]	; (100007dc <main+0x314>)
10000670:	18d3      	adds	r3, r2, r3
10000672:	0d1b      	lsrs	r3, r3, #20
10000674:	005b      	lsls	r3, r3, #1
10000676:	3307      	adds	r3, #7
10000678:	1ac9      	subs	r1, r1, r3
1000067a:	004b      	lsls	r3, r1, #1
1000067c:	185b      	adds	r3, r3, r1
1000067e:	009b      	lsls	r3, r3, #2
10000680:	332d      	adds	r3, #45	; 0x2d
10000682:	33ff      	adds	r3, #255	; 0xff
10000684:	0018      	movs	r0, r3
10000686:	9305      	str	r3, [sp, #20]
10000688:	4653      	mov	r3, sl
1000068a:	7819      	ldrb	r1, [r3, #0]
1000068c:	2301      	movs	r3, #1
1000068e:	408b      	lsls	r3, r1
10000690:	2180      	movs	r1, #128	; 0x80
10000692:	4684      	mov	ip, r0
10000694:	0189      	lsls	r1, r1, #6
10000696:	4462      	add	r2, ip
10000698:	468c      	mov	ip, r1
1000069a:	4462      	add	r2, ip
1000069c:	6013      	str	r3, [r2, #0]
1000069e:	4850      	ldr	r0, [pc, #320]	; (100007e0 <main+0x318>)
100006a0:	f004 faae 	bl	10004c00 <multicore_launch_core1>
100006a4:	4b4f      	ldr	r3, [pc, #316]	; (100007e4 <main+0x31c>)
100006a6:	4d50      	ldr	r5, [pc, #320]	; (100007e8 <main+0x320>)
100006a8:	4698      	mov	r8, r3
100006aa:	2300      	movs	r3, #0
100006ac:	4699      	mov	r9, r3
100006ae:	e003      	b.n	100006b8 <main+0x1f0>
100006b0:	6821      	ldr	r1, [r4, #0]
100006b2:	0020      	movs	r0, r4
100006b4:	6b09      	ldr	r1, [r1, #48]	; 0x30
100006b6:	4788      	blx	r1
100006b8:	4643      	mov	r3, r8
100006ba:	681b      	ldr	r3, [r3, #0]
100006bc:	2b09      	cmp	r3, #9
100006be:	d902      	bls.n	100006c6 <main+0x1fe>
100006c0:	782b      	ldrb	r3, [r5, #0]
100006c2:	2b00      	cmp	r3, #0
100006c4:	d013      	beq.n	100006ee <main+0x226>
100006c6:	464b      	mov	r3, r9
100006c8:	702b      	strb	r3, [r5, #0]
100006ca:	6823      	ldr	r3, [r4, #0]
100006cc:	6a9b      	ldr	r3, [r3, #40]	; 0x28
100006ce:	2b00      	cmp	r3, #0
100006d0:	d001      	beq.n	100006d6 <main+0x20e>
100006d2:	0020      	movs	r0, r4
100006d4:	4798      	blx	r3
100006d6:	f001 f985 	bl	100019e4 <time_us_64>
100006da:	0002      	movs	r2, r0
100006dc:	000b      	movs	r3, r1
100006de:	1992      	adds	r2, r2, r6
100006e0:	417b      	adcs	r3, r7
100006e2:	2b00      	cmp	r3, #0
100006e4:	dae4      	bge.n	100006b0 <main+0x1e8>
100006e6:	2201      	movs	r2, #1
100006e8:	4b40      	ldr	r3, [pc, #256]	; (100007ec <main+0x324>)
100006ea:	4252      	negs	r2, r2
100006ec:	e7e0      	b.n	100006b0 <main+0x1e8>
100006ee:	4659      	mov	r1, fp
100006f0:	4653      	mov	r3, sl
100006f2:	6809      	ldr	r1, [r1, #0]
100006f4:	2201      	movs	r2, #1
100006f6:	468c      	mov	ip, r1
100006f8:	21c0      	movs	r1, #192	; 0xc0
100006fa:	781b      	ldrb	r3, [r3, #0]
100006fc:	0189      	lsls	r1, r1, #6
100006fe:	409a      	lsls	r2, r3
10000700:	9b05      	ldr	r3, [sp, #20]
10000702:	2000      	movs	r0, #0
10000704:	4463      	add	r3, ip
10000706:	468c      	mov	ip, r1
10000708:	4463      	add	r3, ip
1000070a:	601a      	str	r2, [r3, #0]
1000070c:	4b31      	ldr	r3, [pc, #196]	; (100007d4 <main+0x30c>)
1000070e:	2100      	movs	r1, #0
10000710:	5618      	ldrsb	r0, [r3, r0]
10000712:	f000 f991 	bl	10000a38 <irq_set_enabled>
10000716:	2000      	movs	r0, #0
10000718:	4b2e      	ldr	r3, [pc, #184]	; (100007d4 <main+0x30c>)
1000071a:	492f      	ldr	r1, [pc, #188]	; (100007d8 <main+0x310>)
1000071c:	5618      	ldrsb	r0, [r3, r0]
1000071e:	f000 faf7 	bl	10000d10 <irq_remove_handler>
10000722:	4652      	mov	r2, sl
10000724:	4659      	mov	r1, fp
10000726:	4b26      	ldr	r3, [pc, #152]	; (100007c0 <main+0x2f8>)
10000728:	6812      	ldr	r2, [r2, #0]
1000072a:	681b      	ldr	r3, [r3, #0]
1000072c:	6809      	ldr	r1, [r1, #0]
1000072e:	4822      	ldr	r0, [pc, #136]	; (100007b8 <main+0x2f0>)
10000730:	f004 fbfc 	bl	10004f2c <pio_remove_program_and_unclaim_sm>
10000734:	6823      	ldr	r3, [r4, #0]
10000736:	491e      	ldr	r1, [pc, #120]	; (100007b0 <main+0x2e8>)
10000738:	0020      	movs	r0, r4
1000073a:	6a1b      	ldr	r3, [r3, #32]
1000073c:	4798      	blx	r3
1000073e:	6823      	ldr	r3, [r4, #0]
10000740:	0020      	movs	r0, r4
10000742:	6b5b      	ldr	r3, [r3, #52]	; 0x34
10000744:	4798      	blx	r3
10000746:	4818      	ldr	r0, [pc, #96]	; (100007a8 <main+0x2e0>)
10000748:	f001 f9a2 	bl	10001a90 <queue_free>
1000074c:	4815      	ldr	r0, [pc, #84]	; (100007a4 <main+0x2dc>)
1000074e:	f001 faa5 	bl	10001c9c <uart_deinit>
10000752:	4827      	ldr	r0, [pc, #156]	; (100007f0 <main+0x328>)
10000754:	f004 f8fa 	bl	1000494c <__wrap_puts>
10000758:	2064      	movs	r0, #100	; 0x64
1000075a:	f001 f88b 	bl	10001874 <sleep_ms>
1000075e:	2000      	movs	r0, #0
10000760:	b00f      	add	sp, #60	; 0x3c
10000762:	bcf0      	pop	{r4, r5, r6, r7}
10000764:	46bb      	mov	fp, r7
10000766:	46b2      	mov	sl, r6
10000768:	46a9      	mov	r9, r5
1000076a:	46a0      	mov	r8, r4
1000076c:	bdf0      	pop	{r4, r5, r6, r7, pc}
1000076e:	0028      	movs	r0, r5
10000770:	f002 fbb4 	bl	10002edc <__wrap___aeabi_ui2f>
10000774:	1c01      	adds	r1, r0, #0
10000776:	1c38      	adds	r0, r7, #0
10000778:	f002 fb8f 	bl	10002e9a <__wrap___aeabi_fsub>
1000077c:	2187      	movs	r1, #135	; 0x87
1000077e:	05c9      	lsls	r1, r1, #23
10000780:	f002 fba5 	bl	10002ece <__wrap___aeabi_fmul>
10000784:	f002 fbd2 	bl	10002f2c <__wrap___aeabi_f2uiz>
10000788:	b2c0      	uxtb	r0, r0
1000078a:	e733      	b.n	100005f4 <main+0x12c>
1000078c:	f001 fc2c 	bl	10001fe8 <hard_assertion_failure>
10000790:	e6d9      	b.n	10000546 <main+0x7e>
10000792:	4818      	ldr	r0, [pc, #96]	; (100007f4 <main+0x32c>)
10000794:	f000 f86a 	bl	1000086c <panic>
10000798:	4817      	ldr	r0, [pc, #92]	; (100007f8 <main+0x330>)
1000079a:	f000 f867 	bl	1000086c <panic>
1000079e:	46c0      	nop			; (mov r8, r8)
100007a0:	100062a4 	.word	0x100062a4
100007a4:	40038000 	.word	0x40038000
100007a8:	2000114c 	.word	0x2000114c
100007ac:	20000cc8 	.word	0x20000cc8
100007b0:	200003c8 	.word	0x200003c8
100007b4:	20001188 	.word	0x20001188
100007b8:	10006308 	.word	0x10006308
100007bc:	2000116c 	.word	0x2000116c
100007c0:	20001168 	.word	0x20001168
100007c4:	afe00000 	.word	0xafe00000
100007c8:	e0ffffff 	.word	0xe0ffffff
100007cc:	800c0000 	.word	0x800c0000
100007d0:	49610000 	.word	0x49610000
100007d4:	200011d5 	.word	0x200011d5
100007d8:	10000321 	.word	0x10000321
100007dc:	001e8480 	.word	0x001e8480
100007e0:	1000040d 	.word	0x1000040d
100007e4:	20001144 	.word	0x20001144
100007e8:	200011d7 	.word	0x200011d7
100007ec:	7fffffff 	.word	0x7fffffff
100007f0:	100062f8 	.word	0x100062f8
100007f4:	100062cc 	.word	0x100062cc
100007f8:	100062e4 	.word	0x100062e4

100007fc <setup_default_uart>:
100007fc:	b510      	push	{r4, lr}
100007fe:	f004 f98d 	bl	10004b1c <stdio_uart_init>
10000802:	bd10      	pop	{r4, pc}

10000804 <gpio_set_function>:
10000804:	b510      	push	{r4, lr}
10000806:	2440      	movs	r4, #64	; 0x40
10000808:	4a08      	ldr	r2, [pc, #32]	; (1000082c <gpio_set_function+0x28>)
1000080a:	0083      	lsls	r3, r0, #2
1000080c:	189a      	adds	r2, r3, r2
1000080e:	6812      	ldr	r2, [r2, #0]
10000810:	00c0      	lsls	r0, r0, #3
10000812:	4054      	eors	r4, r2
10000814:	22c0      	movs	r2, #192	; 0xc0
10000816:	4022      	ands	r2, r4
10000818:	4c05      	ldr	r4, [pc, #20]	; (10000830 <gpio_set_function+0x2c>)
1000081a:	46a4      	mov	ip, r4
1000081c:	4463      	add	r3, ip
1000081e:	601a      	str	r2, [r3, #0]
10000820:	4b04      	ldr	r3, [pc, #16]	; (10000834 <gpio_set_function+0x30>)
10000822:	469c      	mov	ip, r3
10000824:	4460      	add	r0, ip
10000826:	6041      	str	r1, [r0, #4]
10000828:	bd10      	pop	{r4, pc}
1000082a:	46c0      	nop			; (mov r8, r8)
1000082c:	4001c004 	.word	0x4001c004
10000830:	4001d004 	.word	0x4001d004
10000834:	40014000 	.word	0x40014000

10000838 <gpio_set_pulls>:
10000838:	4b0b      	ldr	r3, [pc, #44]	; (10000868 <gpio_set_pulls+0x30>)
1000083a:	0080      	lsls	r0, r0, #2
1000083c:	469c      	mov	ip, r3
1000083e:	4460      	add	r0, ip
10000840:	2900      	cmp	r1, #0
10000842:	d10e      	bne.n	10000862 <gpio_set_pulls+0x2a>
10000844:	2300      	movs	r3, #0
10000846:	3104      	adds	r1, #4
10000848:	2a00      	cmp	r2, #0
1000084a:	d100      	bne.n	1000084e <gpio_set_pulls+0x16>
1000084c:	0019      	movs	r1, r3
1000084e:	2280      	movs	r2, #128	; 0x80
10000850:	6803      	ldr	r3, [r0, #0]
10000852:	0152      	lsls	r2, r2, #5
10000854:	4059      	eors	r1, r3
10000856:	4694      	mov	ip, r2
10000858:	230c      	movs	r3, #12
1000085a:	4460      	add	r0, ip
1000085c:	400b      	ands	r3, r1
1000085e:	6003      	str	r3, [r0, #0]
10000860:	4770      	bx	lr
10000862:	210c      	movs	r1, #12
10000864:	2308      	movs	r3, #8
10000866:	e7ef      	b.n	10000848 <gpio_set_pulls+0x10>
10000868:	4001c004 	.word	0x4001c004

1000086c <panic>:
1000086c:	b40f      	push	{r0, r1, r2, r3}
1000086e:	b500      	push	{lr}
10000870:	4808      	ldr	r0, [pc, #32]	; (10000894 <panic+0x28>)
10000872:	b083      	sub	sp, #12
10000874:	f004 f86a 	bl	1000494c <__wrap_puts>
10000878:	9b04      	ldr	r3, [sp, #16]
1000087a:	2b00      	cmp	r3, #0
1000087c:	d007      	beq.n	1000088e <panic+0x22>
1000087e:	a905      	add	r1, sp, #20
10000880:	0018      	movs	r0, r3
10000882:	9101      	str	r1, [sp, #4]
10000884:	f003 fece 	bl	10004624 <weak_raw_vprintf>
10000888:	4803      	ldr	r0, [pc, #12]	; (10000898 <panic+0x2c>)
1000088a:	f004 f85f 	bl	1000494c <__wrap_puts>
1000088e:	2001      	movs	r0, #1
10000890:	f003 fee0 	bl	10004654 <_exit>
10000894:	10006324 	.word	0x10006324
10000898:	10006334 	.word	0x10006334

1000089c <hw_claim_lock>:
1000089c:	f3ef 8010 	mrs	r0, PRIMASK
100008a0:	b672      	cpsid	i
100008a2:	4a03      	ldr	r2, [pc, #12]	; (100008b0 <hw_claim_lock+0x14>)
100008a4:	6813      	ldr	r3, [r2, #0]
100008a6:	2b00      	cmp	r3, #0
100008a8:	d0fc      	beq.n	100008a4 <hw_claim_lock+0x8>
100008aa:	f3bf 8f5f 	dmb	sy
100008ae:	4770      	bx	lr
100008b0:	d000012c 	.word	0xd000012c

100008b4 <hw_claim_unlock>:
100008b4:	f3bf 8f5f 	dmb	sy
100008b8:	2200      	movs	r2, #0
100008ba:	4b02      	ldr	r3, [pc, #8]	; (100008c4 <hw_claim_unlock+0x10>)
100008bc:	601a      	str	r2, [r3, #0]
100008be:	f380 8810 	msr	PRIMASK, r0
100008c2:	4770      	bx	lr
100008c4:	d000012c 	.word	0xd000012c

100008c8 <hw_claim_or_assert>:
100008c8:	b570      	push	{r4, r5, r6, lr}
100008ca:	f3ef 8c10 	mrs	ip, PRIMASK
100008ce:	b672      	cpsid	i
100008d0:	4d0d      	ldr	r5, [pc, #52]	; (10000908 <hw_claim_or_assert+0x40>)
100008d2:	682b      	ldr	r3, [r5, #0]
100008d4:	2b00      	cmp	r3, #0
100008d6:	d0fc      	beq.n	100008d2 <hw_claim_or_assert+0xa>
100008d8:	f3bf 8f5f 	dmb	sy
100008dc:	2407      	movs	r4, #7
100008de:	08cb      	lsrs	r3, r1, #3
100008e0:	18c6      	adds	r6, r0, r3
100008e2:	5cc0      	ldrb	r0, [r0, r3]
100008e4:	2301      	movs	r3, #1
100008e6:	400c      	ands	r4, r1
100008e8:	40a3      	lsls	r3, r4
100008ea:	001c      	movs	r4, r3
100008ec:	4004      	ands	r4, r0
100008ee:	4203      	tst	r3, r0
100008f0:	d107      	bne.n	10000902 <hw_claim_or_assert+0x3a>
100008f2:	4303      	orrs	r3, r0
100008f4:	7033      	strb	r3, [r6, #0]
100008f6:	f3bf 8f5f 	dmb	sy
100008fa:	602c      	str	r4, [r5, #0]
100008fc:	f38c 8810 	msr	PRIMASK, ip
10000900:	bd70      	pop	{r4, r5, r6, pc}
10000902:	0010      	movs	r0, r2
10000904:	f7ff ffb2 	bl	1000086c <panic>
10000908:	d000012c 	.word	0xd000012c

1000090c <hw_claim_unused_from_range>:
1000090c:	b5f8      	push	{r3, r4, r5, r6, r7, lr}
1000090e:	4647      	mov	r7, r8
10000910:	46ce      	mov	lr, r9
10000912:	4688      	mov	r8, r1
10000914:	b580      	push	{r7, lr}
10000916:	f3ef 8c10 	mrs	ip, PRIMASK
1000091a:	b672      	cpsid	i
1000091c:	4d21      	ldr	r5, [pc, #132]	; (100009a4 <hw_claim_unused_from_range+0x98>)
1000091e:	682c      	ldr	r4, [r5, #0]
10000920:	2c00      	cmp	r4, #0
10000922:	d0fc      	beq.n	1000091e <hw_claim_unused_from_range+0x12>
10000924:	f3bf 8f5f 	dmb	sy
10000928:	429a      	cmp	r2, r3
1000092a:	d82c      	bhi.n	10000986 <hw_claim_unused_from_range+0x7a>
1000092c:	08d4      	lsrs	r4, r2, #3
1000092e:	2707      	movs	r7, #7
10000930:	5d05      	ldrb	r5, [r0, r4]
10000932:	1906      	adds	r6, r0, r4
10000934:	2401      	movs	r4, #1
10000936:	4017      	ands	r7, r2
10000938:	40bc      	lsls	r4, r7
1000093a:	422c      	tst	r4, r5
1000093c:	d01f      	beq.n	1000097e <hw_claim_unused_from_range+0x72>
1000093e:	2107      	movs	r1, #7
10000940:	2701      	movs	r7, #1
10000942:	4689      	mov	r9, r1
10000944:	e009      	b.n	1000095a <hw_claim_unused_from_range+0x4e>
10000946:	08d4      	lsrs	r4, r2, #3
10000948:	5d05      	ldrb	r5, [r0, r4]
1000094a:	1906      	adds	r6, r0, r4
1000094c:	464c      	mov	r4, r9
1000094e:	0039      	movs	r1, r7
10000950:	4014      	ands	r4, r2
10000952:	40a1      	lsls	r1, r4
10000954:	000c      	movs	r4, r1
10000956:	4229      	tst	r1, r5
10000958:	d011      	beq.n	1000097e <hw_claim_unused_from_range+0x72>
1000095a:	3201      	adds	r2, #1
1000095c:	4293      	cmp	r3, r2
1000095e:	d2f2      	bcs.n	10000946 <hw_claim_unused_from_range+0x3a>
10000960:	2001      	movs	r0, #1
10000962:	4240      	negs	r0, r0
10000964:	f3bf 8f5f 	dmb	sy
10000968:	2200      	movs	r2, #0
1000096a:	4b0e      	ldr	r3, [pc, #56]	; (100009a4 <hw_claim_unused_from_range+0x98>)
1000096c:	601a      	str	r2, [r3, #0]
1000096e:	f38c 8810 	msr	PRIMASK, ip
10000972:	2800      	cmp	r0, #0
10000974:	db0f      	blt.n	10000996 <hw_claim_unused_from_range+0x8a>
10000976:	bcc0      	pop	{r6, r7}
10000978:	46b9      	mov	r9, r7
1000097a:	46b0      	mov	r8, r6
1000097c:	bdf8      	pop	{r3, r4, r5, r6, r7, pc}
1000097e:	432c      	orrs	r4, r5
10000980:	0010      	movs	r0, r2
10000982:	7034      	strb	r4, [r6, #0]
10000984:	e7ee      	b.n	10000964 <hw_claim_unused_from_range+0x58>
10000986:	f3bf 8f5f 	dmb	sy
1000098a:	2300      	movs	r3, #0
1000098c:	602b      	str	r3, [r5, #0]
1000098e:	f38c 8810 	msr	PRIMASK, ip
10000992:	2001      	movs	r0, #1
10000994:	4240      	negs	r0, r0
10000996:	4643      	mov	r3, r8
10000998:	2b00      	cmp	r3, #0
1000099a:	d0ec      	beq.n	10000976 <hw_claim_unused_from_range+0x6a>
1000099c:	9808      	ldr	r0, [sp, #32]
1000099e:	f7ff ff65 	bl	1000086c <panic>
100009a2:	46c0      	nop			; (mov r8, r8)
100009a4:	d000012c 	.word	0xd000012c

100009a8 <hw_claim_clear>:
100009a8:	b530      	push	{r4, r5, lr}
100009aa:	f3ef 8c10 	mrs	ip, PRIMASK
100009ae:	b672      	cpsid	i
100009b0:	4c0a      	ldr	r4, [pc, #40]	; (100009dc <hw_claim_clear+0x34>)
100009b2:	6823      	ldr	r3, [r4, #0]
100009b4:	2b00      	cmp	r3, #0
100009b6:	d0fc      	beq.n	100009b2 <hw_claim_clear+0xa>
100009b8:	f3bf 8f5f 	dmb	sy
100009bc:	2307      	movs	r3, #7
100009be:	2201      	movs	r2, #1
100009c0:	08cd      	lsrs	r5, r1, #3
100009c2:	4019      	ands	r1, r3
100009c4:	408a      	lsls	r2, r1
100009c6:	5d43      	ldrb	r3, [r0, r5]
100009c8:	4393      	bics	r3, r2
100009ca:	5543      	strb	r3, [r0, r5]
100009cc:	f3bf 8f5f 	dmb	sy
100009d0:	2300      	movs	r3, #0
100009d2:	6023      	str	r3, [r4, #0]
100009d4:	f38c 8810 	msr	PRIMASK, ip
100009d8:	bd30      	pop	{r4, r5, pc}
100009da:	46c0      	nop			; (mov r8, r8)
100009dc:	d000012c 	.word	0xd000012c

100009e0 <next_striped_spin_lock_num>:
100009e0:	4a04      	ldr	r2, [pc, #16]	; (100009f4 <next_striped_spin_lock_num+0x14>)
100009e2:	7810      	ldrb	r0, [r2, #0]
100009e4:	1c43      	adds	r3, r0, #1
100009e6:	b2db      	uxtb	r3, r3
100009e8:	2b17      	cmp	r3, #23
100009ea:	d900      	bls.n	100009ee <next_striped_spin_lock_num+0xe>
100009ec:	2310      	movs	r3, #16
100009ee:	7013      	strb	r3, [r2, #0]
100009f0:	4770      	bx	lr
100009f2:	46c0      	nop			; (mov r8, r8)
100009f4:	200003d8 	.word	0x200003d8

100009f8 <spin_locks_reset>:
100009f8:	2100      	movs	r1, #0
100009fa:	4b04      	ldr	r3, [pc, #16]	; (10000a0c <spin_locks_reset+0x14>)
100009fc:	4a04      	ldr	r2, [pc, #16]	; (10000a10 <spin_locks_reset+0x18>)
100009fe:	f3bf 8f5f 	dmb	sy
10000a02:	c302      	stmia	r3!, {r1}
10000a04:	4293      	cmp	r3, r2
10000a06:	d1fa      	bne.n	100009fe <spin_locks_reset+0x6>
10000a08:	4770      	bx	lr
10000a0a:	46c0      	nop			; (mov r8, r8)
10000a0c:	d0000100 	.word	0xd0000100
10000a10:	d0000180 	.word	0xd0000180

10000a14 <runtime_init_per_core_irq_priorities>:
10000a14:	4b05      	ldr	r3, [pc, #20]	; (10000a2c <runtime_init_per_core_irq_priorities+0x18>)
10000a16:	4a06      	ldr	r2, [pc, #24]	; (10000a30 <runtime_init_per_core_irq_priorities+0x1c>)
10000a18:	6013      	str	r3, [r2, #0]
10000a1a:	4a06      	ldr	r2, [pc, #24]	; (10000a34 <runtime_init_per_core_irq_priorities+0x20>)
10000a1c:	6013      	str	r3, [r2, #0]
10000a1e:	6053      	str	r3, [r2, #4]
10000a20:	6093      	str	r3, [r2, #8]
10000a22:	60d3      	str	r3, [r2, #12]
10000a24:	6113      	str	r3, [r2, #16]
10000a26:	6153      	str	r3, [r2, #20]
10000a28:	6193      	str	r3, [r2, #24]
10000a2a:	4770      	bx	lr
10000a2c:	80808080 	.word	0x80808080
10000a30:	e000e400 	.word	0xe000e400
10000a34:	e000e404 	.word	0xe000e404

10000a38 <irq_set_enabled>:
10000a38:	231f      	movs	r3, #31
10000a3a:	4018      	ands	r0, r3
10000a3c:	3b1e      	subs	r3, #30
10000a3e:	4083      	lsls	r3, r0
10000a40:	2900      	cmp	r1, #0
10000a42:	d005      	beq.n	10000a50 <irq_set_enabled+0x18>
10000a44:	21c0      	movs	r1, #192	; 0xc0
10000a46:	4a04      	ldr	r2, [pc, #16]	; (10000a58 <irq_set_enabled+0x20>)
10000a48:	0049      	lsls	r1, r1, #1
10000a4a:	5053      	str	r3, [r2, r1]
10000a4c:	6013      	str	r3, [r2, #0]
10000a4e:	4770      	bx	lr
10000a50:	2280      	movs	r2, #128	; 0x80
10000a52:	4901      	ldr	r1, [pc, #4]	; (10000a58 <irq_set_enabled+0x20>)
10000a54:	508b      	str	r3, [r1, r2]
10000a56:	e7fa      	b.n	10000a4e <irq_set_enabled+0x16>
10000a58:	e000e100 	.word	0xe000e100

10000a5c <irq_is_enabled>:
10000a5c:	2201      	movs	r2, #1
10000a5e:	4082      	lsls	r2, r0
10000a60:	4b03      	ldr	r3, [pc, #12]	; (10000a70 <irq_is_enabled+0x14>)
10000a62:	681b      	ldr	r3, [r3, #0]
10000a64:	4013      	ands	r3, r2
10000a66:	1e5a      	subs	r2, r3, #1
10000a68:	4193      	sbcs	r3, r2
10000a6a:	b2d8      	uxtb	r0, r3
10000a6c:	4770      	bx	lr
10000a6e:	46c0      	nop			; (mov r8, r8)
10000a70:	e000e100 	.word	0xe000e100

10000a74 <irq_set_pending>:
10000a74:	2301      	movs	r3, #1
10000a76:	4083      	lsls	r3, r0
10000a78:	4a01      	ldr	r2, [pc, #4]	; (10000a80 <irq_set_pending+0xc>)
10000a7a:	6013      	str	r3, [r2, #0]
10000a7c:	4770      	bx	lr
10000a7e:	46c0      	nop			; (mov r8, r8)
10000a80:	e000e200 	.word	0xe000e200

10000a84 <irq_set_exclusive_handler>:
10000a84:	b570      	push	{r4, r5, r6, lr}
10000a86:	000d      	movs	r5, r1
10000a88:	f3ef 8610 	mrs	r6, PRIMASK
10000a8c:	b672      	cpsid	i
10000a8e:	4a0f      	ldr	r2, [pc, #60]	; (10000acc <irq_set_exclusive_handler+0x48>)
10000a90:	6813      	ldr	r3, [r2, #0]
10000a92:	2b00      	cmp	r3, #0
10000a94:	d0fc      	beq.n	10000a90 <irq_set_exclusive_handler+0xc>
10000a96:	f3bf 8f5f 	dmb	sy
10000a9a:	4b0d      	ldr	r3, [pc, #52]	; (10000ad0 <irq_set_exclusive_handler+0x4c>)
10000a9c:	3010      	adds	r0, #16
10000a9e:	689b      	ldr	r3, [r3, #8]
10000aa0:	0084      	lsls	r4, r0, #2
10000aa2:	591b      	ldr	r3, [r3, r4]
10000aa4:	4a0b      	ldr	r2, [pc, #44]	; (10000ad4 <irq_set_exclusive_handler+0x50>)
10000aa6:	4293      	cmp	r3, r2
10000aa8:	d003      	beq.n	10000ab2 <irq_set_exclusive_handler+0x2e>
10000aaa:	429d      	cmp	r5, r3
10000aac:	d001      	beq.n	10000ab2 <irq_set_exclusive_handler+0x2e>
10000aae:	f001 fa9b 	bl	10001fe8 <hard_assertion_failure>
10000ab2:	4b07      	ldr	r3, [pc, #28]	; (10000ad0 <irq_set_exclusive_handler+0x4c>)
10000ab4:	689b      	ldr	r3, [r3, #8]
10000ab6:	511d      	str	r5, [r3, r4]
10000ab8:	f3bf 8f5f 	dmb	sy
10000abc:	f3bf 8f5f 	dmb	sy
10000ac0:	2200      	movs	r2, #0
10000ac2:	4b02      	ldr	r3, [pc, #8]	; (10000acc <irq_set_exclusive_handler+0x48>)
10000ac4:	601a      	str	r2, [r3, #0]
10000ac6:	f386 8810 	msr	PRIMASK, r6
10000aca:	bd70      	pop	{r4, r5, r6, pc}
10000acc:	d0000124 	.word	0xd0000124
10000ad0:	e000ed00 	.word	0xe000ed00
10000ad4:	100001cd 	.word	0x100001cd

10000ad8 <irq_get_exclusive_handler>:
10000ad8:	f3ef 8110 	mrs	r1, PRIMASK
10000adc:	b672      	cpsid	i
10000ade:	4b0e      	ldr	r3, [pc, #56]	; (10000b18 <irq_get_exclusive_handler+0x40>)
10000ae0:	681a      	ldr	r2, [r3, #0]
10000ae2:	2a00      	cmp	r2, #0
10000ae4:	d0fc      	beq.n	10000ae0 <irq_get_exclusive_handler+0x8>
10000ae6:	f3bf 8f5f 	dmb	sy
10000aea:	4a0c      	ldr	r2, [pc, #48]	; (10000b1c <irq_get_exclusive_handler+0x44>)
10000aec:	3010      	adds	r0, #16
10000aee:	6892      	ldr	r2, [r2, #8]
10000af0:	0080      	lsls	r0, r0, #2
10000af2:	5880      	ldr	r0, [r0, r2]
10000af4:	f3bf 8f5f 	dmb	sy
10000af8:	2200      	movs	r2, #0
10000afa:	601a      	str	r2, [r3, #0]
10000afc:	f381 8810 	msr	PRIMASK, r1
10000b00:	4b07      	ldr	r3, [pc, #28]	; (10000b20 <irq_get_exclusive_handler+0x48>)
10000b02:	4298      	cmp	r0, r3
10000b04:	d006      	beq.n	10000b14 <irq_get_exclusive_handler+0x3c>
10000b06:	232f      	movs	r3, #47	; 0x2f
10000b08:	4a06      	ldr	r2, [pc, #24]	; (10000b24 <irq_get_exclusive_handler+0x4c>)
10000b0a:	1a82      	subs	r2, r0, r2
10000b0c:	4293      	cmp	r3, r2
10000b0e:	419b      	sbcs	r3, r3
10000b10:	4018      	ands	r0, r3
10000b12:	4770      	bx	lr
10000b14:	2000      	movs	r0, #0
10000b16:	e7fc      	b.n	10000b12 <irq_get_exclusive_handler+0x3a>
10000b18:	d0000124 	.word	0xd0000124
10000b1c:	e000ed00 	.word	0xe000ed00
10000b20:	100001cd 	.word	0x100001cd
10000b24:	200003dc 	.word	0x200003dc

10000b28 <irq_add_shared_handler>:
10000b28:	b5f0      	push	{r4, r5, r6, r7, lr}
10000b2a:	4657      	mov	r7, sl
10000b2c:	464e      	mov	r6, r9
10000b2e:	46de      	mov	lr, fp
10000b30:	4645      	mov	r5, r8
10000b32:	b5e0      	push	{r5, r6, r7, lr}
10000b34:	b085      	sub	sp, #20
10000b36:	0006      	movs	r6, r0
10000b38:	9102      	str	r1, [sp, #8]
10000b3a:	0017      	movs	r7, r2
10000b3c:	f3ef 8b10 	mrs	fp, PRIMASK
10000b40:	b672      	cpsid	i
10000b42:	4a67      	ldr	r2, [pc, #412]	; (10000ce0 <irq_add_shared_handler+0x1b8>)
10000b44:	6813      	ldr	r3, [r2, #0]
10000b46:	2b00      	cmp	r3, #0
10000b48:	d0fc      	beq.n	10000b44 <irq_add_shared_handler+0x1c>
10000b4a:	f3bf 8f5f 	dmb	sy
10000b4e:	2500      	movs	r5, #0
10000b50:	4b64      	ldr	r3, [pc, #400]	; (10000ce4 <irq_add_shared_handler+0x1bc>)
10000b52:	575d      	ldrsb	r5, [r3, r5]
10000b54:	469a      	mov	sl, r3
10000b56:	2d00      	cmp	r5, #0
10000b58:	da00      	bge.n	10000b5c <irq_add_shared_handler+0x34>
10000b5a:	e0a4      	b.n	10000ca6 <irq_add_shared_handler+0x17e>
10000b5c:	006b      	lsls	r3, r5, #1
10000b5e:	4c62      	ldr	r4, [pc, #392]	; (10000ce8 <irq_add_shared_handler+0x1c0>)
10000b60:	9303      	str	r3, [sp, #12]
10000b62:	195b      	adds	r3, r3, r5
10000b64:	009b      	lsls	r3, r3, #2
10000b66:	4698      	mov	r8, r3
10000b68:	46a1      	mov	r9, r4
10000b6a:	44c1      	add	r9, r8
10000b6c:	464b      	mov	r3, r9
10000b6e:	4652      	mov	r2, sl
10000b70:	799b      	ldrb	r3, [r3, #6]
10000b72:	3610      	adds	r6, #16
10000b74:	7013      	strb	r3, [r2, #0]
10000b76:	4b5d      	ldr	r3, [pc, #372]	; (10000cec <irq_add_shared_handler+0x1c4>)
10000b78:	00b2      	lsls	r2, r6, #2
10000b7a:	689b      	ldr	r3, [r3, #8]
10000b7c:	9201      	str	r2, [sp, #4]
10000b7e:	5899      	ldr	r1, [r3, r2]
10000b80:	1b0b      	subs	r3, r1, r4
10000b82:	2b2f      	cmp	r3, #47	; 0x2f
10000b84:	d934      	bls.n	10000bf0 <irq_add_shared_handler+0xc8>
10000b86:	4b5a      	ldr	r3, [pc, #360]	; (10000cf0 <irq_add_shared_handler+0x1c8>)
10000b88:	4299      	cmp	r1, r3
10000b8a:	d000      	beq.n	10000b8e <irq_add_shared_handler+0x66>
10000b8c:	e0a4      	b.n	10000cd8 <irq_add_shared_handler+0x1b0>
10000b8e:	9b03      	ldr	r3, [sp, #12]
10000b90:	4a58      	ldr	r2, [pc, #352]	; (10000cf4 <irq_add_shared_handler+0x1cc>)
10000b92:	469c      	mov	ip, r3
10000b94:	4b58      	ldr	r3, [pc, #352]	; (10000cf8 <irq_add_shared_handler+0x1d0>)
10000b96:	4465      	add	r5, ip
10000b98:	00ad      	lsls	r5, r5, #2
10000b9a:	5363      	strh	r3, [r4, r5]
10000b9c:	4643      	mov	r3, r8
10000b9e:	3302      	adds	r3, #2
10000ba0:	1965      	adds	r5, r4, r5
10000ba2:	18e4      	adds	r4, r4, r3
10000ba4:	4b55      	ldr	r3, [pc, #340]	; (10000cfc <irq_add_shared_handler+0x1d4>)
10000ba6:	2101      	movs	r1, #1
10000ba8:	3b04      	subs	r3, #4
10000baa:	1b1b      	subs	r3, r3, r4
10000bac:	051b      	lsls	r3, r3, #20
10000bae:	0d5b      	lsrs	r3, r3, #21
10000bb0:	4313      	orrs	r3, r2
10000bb2:	806b      	strh	r3, [r5, #2]
10000bb4:	4b52      	ldr	r3, [pc, #328]	; (10000d00 <irq_add_shared_handler+0x1d8>)
10000bb6:	71ef      	strb	r7, [r5, #7]
10000bb8:	80ab      	strh	r3, [r5, #4]
10000bba:	23ff      	movs	r3, #255	; 0xff
10000bbc:	71ab      	strb	r3, [r5, #6]
10000bbe:	9b02      	ldr	r3, [sp, #8]
10000bc0:	60ab      	str	r3, [r5, #8]
10000bc2:	464b      	mov	r3, r9
10000bc4:	430b      	orrs	r3, r1
10000bc6:	0019      	movs	r1, r3
10000bc8:	4b48      	ldr	r3, [pc, #288]	; (10000cec <irq_add_shared_handler+0x1c4>)
10000bca:	9a01      	ldr	r2, [sp, #4]
10000bcc:	689b      	ldr	r3, [r3, #8]
10000bce:	5099      	str	r1, [r3, r2]
10000bd0:	f3bf 8f5f 	dmb	sy
10000bd4:	f3bf 8f5f 	dmb	sy
10000bd8:	2200      	movs	r2, #0
10000bda:	4b41      	ldr	r3, [pc, #260]	; (10000ce0 <irq_add_shared_handler+0x1b8>)
10000bdc:	601a      	str	r2, [r3, #0]
10000bde:	f38b 8810 	msr	PRIMASK, fp
10000be2:	b005      	add	sp, #20
10000be4:	bcf0      	pop	{r4, r5, r6, r7}
10000be6:	46bb      	mov	fp, r7
10000be8:	46b2      	mov	sl, r6
10000bea:	46a9      	mov	r9, r5
10000bec:	46a0      	mov	r8, r4
10000bee:	bdf0      	pop	{r4, r5, r6, r7, pc}
10000bf0:	2001      	movs	r0, #1
10000bf2:	000a      	movs	r2, r1
10000bf4:	4382      	bics	r2, r0
10000bf6:	79d3      	ldrb	r3, [r2, #7]
10000bf8:	42bb      	cmp	r3, r7
10000bfa:	d82f      	bhi.n	10000c5c <irq_add_shared_handler+0x134>
10000bfc:	4645      	mov	r5, r8
10000bfe:	464e      	mov	r6, r9
10000c00:	0013      	movs	r3, r2
10000c02:	4940      	ldr	r1, [pc, #256]	; (10000d04 <irq_add_shared_handler+0x1dc>)
10000c04:	1b1b      	subs	r3, r3, r4
10000c06:	415b      	adcs	r3, r3
10000c08:	4359      	muls	r1, r3
10000c0a:	0d09      	lsrs	r1, r1, #20
10000c0c:	4b3a      	ldr	r3, [pc, #232]	; (10000cf8 <irq_add_shared_handler+0x1d0>)
10000c0e:	5363      	strh	r3, [r4, r5]
10000c10:	4b3a      	ldr	r3, [pc, #232]	; (10000cfc <irq_add_shared_handler+0x1d4>)
10000c12:	3502      	adds	r5, #2
10000c14:	1965      	adds	r5, r4, r5
10000c16:	3b04      	subs	r3, #4
10000c18:	1b5b      	subs	r3, r3, r5
10000c1a:	051b      	lsls	r3, r3, #20
10000c1c:	4d35      	ldr	r5, [pc, #212]	; (10000cf4 <irq_add_shared_handler+0x1cc>)
10000c1e:	0d5b      	lsrs	r3, r3, #21
10000c20:	432b      	orrs	r3, r5
10000c22:	8073      	strh	r3, [r6, #2]
10000c24:	2604      	movs	r6, #4
10000c26:	46b4      	mov	ip, r6
10000c28:	44e0      	add	r8, ip
10000c2a:	4444      	add	r4, r8
10000c2c:	1f13      	subs	r3, r2, #4
10000c2e:	1b1b      	subs	r3, r3, r4
10000c30:	464c      	mov	r4, r9
10000c32:	71a1      	strb	r1, [r4, #6]
10000c34:	9902      	ldr	r1, [sp, #8]
10000c36:	051b      	lsls	r3, r3, #20
10000c38:	60a1      	str	r1, [r4, #8]
10000c3a:	4649      	mov	r1, r9
10000c3c:	0d5b      	lsrs	r3, r3, #21
10000c3e:	432b      	orrs	r3, r5
10000c40:	80a3      	strh	r3, [r4, #4]
10000c42:	4b31      	ldr	r3, [pc, #196]	; (10000d08 <irq_add_shared_handler+0x1e0>)
10000c44:	71e7      	strb	r7, [r4, #7]
10000c46:	4301      	orrs	r1, r0
10000c48:	6013      	str	r3, [r2, #0]
10000c4a:	e7bd      	b.n	10000bc8 <irq_add_shared_handler+0xa0>
10000c4c:	0058      	lsls	r0, r3, #1
10000c4e:	18c0      	adds	r0, r0, r3
10000c50:	0080      	lsls	r0, r0, #2
10000c52:	1820      	adds	r0, r4, r0
10000c54:	79c6      	ldrb	r6, [r0, #7]
10000c56:	42be      	cmp	r6, r7
10000c58:	d92b      	bls.n	10000cb2 <irq_add_shared_handler+0x18a>
10000c5a:	0002      	movs	r2, r0
10000c5c:	2306      	movs	r3, #6
10000c5e:	56d3      	ldrsb	r3, [r2, r3]
10000c60:	2b00      	cmp	r3, #0
10000c62:	daf3      	bge.n	10000c4c <irq_add_shared_handler+0x124>
10000c64:	1d10      	adds	r0, r2, #4
10000c66:	4682      	mov	sl, r0
10000c68:	4828      	ldr	r0, [pc, #160]	; (10000d0c <irq_add_shared_handler+0x1e4>)
10000c6a:	4680      	mov	r8, r0
10000c6c:	2604      	movs	r6, #4
10000c6e:	4276      	negs	r6, r6
10000c70:	46b4      	mov	ip, r6
10000c72:	44e1      	add	r9, ip
10000c74:	4650      	mov	r0, sl
10000c76:	464e      	mov	r6, r9
10000c78:	1a36      	subs	r6, r6, r0
10000c7a:	0530      	lsls	r0, r6, #20
10000c7c:	0d40      	lsrs	r0, r0, #21
10000c7e:	4682      	mov	sl, r0
10000c80:	4656      	mov	r6, sl
10000c82:	481c      	ldr	r0, [pc, #112]	; (10000cf4 <irq_add_shared_handler+0x1cc>)
10000c84:	7195      	strb	r5, [r2, #6]
10000c86:	4306      	orrs	r6, r0
10000c88:	8096      	strh	r6, [r2, #4]
10000c8a:	9a03      	ldr	r2, [sp, #12]
10000c8c:	4694      	mov	ip, r2
10000c8e:	4465      	add	r5, ip
10000c90:	4a1d      	ldr	r2, [pc, #116]	; (10000d08 <irq_add_shared_handler+0x1e0>)
10000c92:	00ad      	lsls	r5, r5, #2
10000c94:	1964      	adds	r4, r4, r5
10000c96:	6022      	str	r2, [r4, #0]
10000c98:	4642      	mov	r2, r8
10000c9a:	71a3      	strb	r3, [r4, #6]
10000c9c:	9b02      	ldr	r3, [sp, #8]
10000c9e:	80a2      	strh	r2, [r4, #4]
10000ca0:	71e7      	strb	r7, [r4, #7]
10000ca2:	60a3      	str	r3, [r4, #8]
10000ca4:	e790      	b.n	10000bc8 <irq_add_shared_handler+0xa0>
10000ca6:	f001 f99f 	bl	10001fe8 <hard_assertion_failure>
10000caa:	2500      	movs	r5, #0
10000cac:	4653      	mov	r3, sl
10000cae:	575d      	ldrsb	r5, [r3, r5]
10000cb0:	e754      	b.n	10000b5c <irq_add_shared_handler+0x34>
10000cb2:	1d10      	adds	r0, r2, #4
10000cb4:	4682      	mov	sl, r0
10000cb6:	8890      	ldrh	r0, [r2, #4]
10000cb8:	0540      	lsls	r0, r0, #21
10000cba:	1500      	asrs	r0, r0, #20
10000cbc:	4684      	mov	ip, r0
10000cbe:	4640      	mov	r0, r8
10000cc0:	44d4      	add	ip, sl
10000cc2:	4666      	mov	r6, ip
10000cc4:	3004      	adds	r0, #4
10000cc6:	1820      	adds	r0, r4, r0
10000cc8:	1a30      	subs	r0, r6, r0
10000cca:	26e0      	movs	r6, #224	; 0xe0
10000ccc:	0500      	lsls	r0, r0, #20
10000cce:	0d40      	lsrs	r0, r0, #21
10000cd0:	0236      	lsls	r6, r6, #8
10000cd2:	4330      	orrs	r0, r6
10000cd4:	4680      	mov	r8, r0
10000cd6:	e7c9      	b.n	10000c6c <irq_add_shared_handler+0x144>
10000cd8:	f001 f986 	bl	10001fe8 <hard_assertion_failure>
10000cdc:	e757      	b.n	10000b8e <irq_add_shared_handler+0x66>
10000cde:	46c0      	nop			; (mov r8, r8)
10000ce0:	d0000124 	.word	0xd0000124
10000ce4:	200011d4 	.word	0x200011d4
10000ce8:	200003dc 	.word	0x200003dc
10000cec:	e000ed00 	.word	0xe000ed00
10000cf0:	100001cd 	.word	0x100001cd
10000cf4:	ffffe000 	.word	0xffffe000
10000cf8:	ffffa100 	.word	0xffffa100
10000cfc:	2000040c 	.word	0x2000040c
10000d00:	ffffbd01 	.word	0xffffbd01
10000d04:	0000aaaa 	.word	0x0000aaaa
10000d08:	47804801 	.word	0x47804801
10000d0c:	0000bd01 	.word	0x0000bd01

10000d10 <irq_remove_handler>:
10000d10:	b5f0      	push	{r4, r5, r6, r7, lr}
10000d12:	46de      	mov	lr, fp
10000d14:	4657      	mov	r7, sl
10000d16:	464e      	mov	r6, r9
10000d18:	4645      	mov	r5, r8
10000d1a:	b5e0      	push	{r5, r6, r7, lr}
10000d1c:	000c      	movs	r4, r1
10000d1e:	b083      	sub	sp, #12
10000d20:	f3ef 8910 	mrs	r9, PRIMASK
10000d24:	b672      	cpsid	i
10000d26:	4a5f      	ldr	r2, [pc, #380]	; (10000ea4 <irq_remove_handler+0x194>)
10000d28:	6813      	ldr	r3, [r2, #0]
10000d2a:	2b00      	cmp	r3, #0
10000d2c:	d0fc      	beq.n	10000d28 <irq_remove_handler+0x18>
10000d2e:	f3bf 8f5f 	dmb	sy
10000d32:	4b5d      	ldr	r3, [pc, #372]	; (10000ea8 <irq_remove_handler+0x198>)
10000d34:	689a      	ldr	r2, [r3, #8]
10000d36:	0003      	movs	r3, r0
10000d38:	3310      	adds	r3, #16
10000d3a:	009f      	lsls	r7, r3, #2
10000d3c:	59d5      	ldr	r5, [r2, r7]
10000d3e:	4a5b      	ldr	r2, [pc, #364]	; (10000eac <irq_remove_handler+0x19c>)
10000d40:	4690      	mov	r8, r2
10000d42:	4295      	cmp	r5, r2
10000d44:	d03d      	beq.n	10000dc2 <irq_remove_handler+0xb2>
10000d46:	42a5      	cmp	r5, r4
10000d48:	d04e      	beq.n	10000de8 <irq_remove_handler+0xd8>
10000d4a:	4e59      	ldr	r6, [pc, #356]	; (10000eb0 <irq_remove_handler+0x1a0>)
10000d4c:	1baa      	subs	r2, r5, r6
10000d4e:	2a2f      	cmp	r2, #47	; 0x2f
10000d50:	d837      	bhi.n	10000dc2 <irq_remove_handler+0xb2>
10000d52:	4a58      	ldr	r2, [pc, #352]	; (10000eb4 <irq_remove_handler+0x1a4>)
10000d54:	4693      	mov	fp, r2
10000d56:	6812      	ldr	r2, [r2, #0]
10000d58:	4694      	mov	ip, r2
10000d5a:	2201      	movs	r2, #1
10000d5c:	4661      	mov	r1, ip
10000d5e:	4692      	mov	sl, r2
10000d60:	4082      	lsls	r2, r0
10000d62:	4011      	ands	r1, r2
10000d64:	221f      	movs	r2, #31
10000d66:	4010      	ands	r0, r2
10000d68:	4652      	mov	r2, sl
10000d6a:	4082      	lsls	r2, r0
10000d6c:	4692      	mov	sl, r2
10000d6e:	9101      	str	r1, [sp, #4]
10000d70:	2280      	movs	r2, #128	; 0x80
10000d72:	4651      	mov	r1, sl
10000d74:	4658      	mov	r0, fp
10000d76:	5081      	str	r1, [r0, r2]
10000d78:	f3bf 8f5f 	dmb	sy
10000d7c:	f3ef 8205 	mrs	r2, IPSR
10000d80:	4693      	mov	fp, r2
10000d82:	2a00      	cmp	r2, #0
10000d84:	d132      	bne.n	10000dec <irq_remove_handler+0xdc>
10000d86:	2301      	movs	r3, #1
10000d88:	002a      	movs	r2, r5
10000d8a:	439a      	bics	r2, r3
10000d8c:	6890      	ldr	r0, [r2, #8]
10000d8e:	4284      	cmp	r4, r0
10000d90:	d108      	bne.n	10000da4 <irq_remove_handler+0x94>
10000d92:	e07c      	b.n	10000e8e <irq_remove_handler+0x17e>
10000d94:	004b      	lsls	r3, r1, #1
10000d96:	185b      	adds	r3, r3, r1
10000d98:	009b      	lsls	r3, r3, #2
10000d9a:	18f3      	adds	r3, r6, r3
10000d9c:	6898      	ldr	r0, [r3, #8]
10000d9e:	4284      	cmp	r4, r0
10000da0:	d02e      	beq.n	10000e00 <irq_remove_handler+0xf0>
10000da2:	001a      	movs	r2, r3
10000da4:	2106      	movs	r1, #6
10000da6:	5651      	ldrsb	r1, [r2, r1]
10000da8:	2900      	cmp	r1, #0
10000daa:	daf3      	bge.n	10000d94 <irq_remove_handler+0x84>
10000dac:	4284      	cmp	r4, r0
10000dae:	d04d      	beq.n	10000e4c <irq_remove_handler+0x13c>
10000db0:	9b01      	ldr	r3, [sp, #4]
10000db2:	2b00      	cmp	r3, #0
10000db4:	d01f      	beq.n	10000df6 <irq_remove_handler+0xe6>
10000db6:	22c0      	movs	r2, #192	; 0xc0
10000db8:	4651      	mov	r1, sl
10000dba:	4b3e      	ldr	r3, [pc, #248]	; (10000eb4 <irq_remove_handler+0x1a4>)
10000dbc:	0052      	lsls	r2, r2, #1
10000dbe:	5099      	str	r1, [r3, r2]
10000dc0:	6019      	str	r1, [r3, #0]
10000dc2:	4b39      	ldr	r3, [pc, #228]	; (10000ea8 <irq_remove_handler+0x198>)
10000dc4:	689b      	ldr	r3, [r3, #8]
10000dc6:	51dd      	str	r5, [r3, r7]
10000dc8:	f3bf 8f5f 	dmb	sy
10000dcc:	f3bf 8f5f 	dmb	sy
10000dd0:	2200      	movs	r2, #0
10000dd2:	4b34      	ldr	r3, [pc, #208]	; (10000ea4 <irq_remove_handler+0x194>)
10000dd4:	601a      	str	r2, [r3, #0]
10000dd6:	f389 8810 	msr	PRIMASK, r9
10000dda:	b003      	add	sp, #12
10000ddc:	bcf0      	pop	{r4, r5, r6, r7}
10000dde:	46bb      	mov	fp, r7
10000de0:	46b2      	mov	sl, r6
10000de2:	46a9      	mov	r9, r5
10000de4:	46a0      	mov	r8, r4
10000de6:	bdf0      	pop	{r4, r5, r6, r7, pc}
10000de8:	0015      	movs	r5, r2
10000dea:	e7ea      	b.n	10000dc2 <irq_remove_handler+0xb2>
10000dec:	4293      	cmp	r3, r2
10000dee:	d0ca      	beq.n	10000d86 <irq_remove_handler+0x76>
10000df0:	f001 f8fa 	bl	10001fe8 <hard_assertion_failure>
10000df4:	e7c7      	b.n	10000d86 <irq_remove_handler+0x76>
10000df6:	2380      	movs	r3, #128	; 0x80
10000df8:	4651      	mov	r1, sl
10000dfa:	4a2e      	ldr	r2, [pc, #184]	; (10000eb4 <irq_remove_handler+0x1a4>)
10000dfc:	50d1      	str	r1, [r2, r3]
10000dfe:	e7e0      	b.n	10000dc2 <irq_remove_handler+0xb2>
10000e00:	2106      	movs	r1, #6
10000e02:	5659      	ldrsb	r1, [r3, r1]
10000e04:	2900      	cmp	r1, #0
10000e06:	db22      	blt.n	10000e4e <irq_remove_handler+0x13e>
10000e08:	004a      	lsls	r2, r1, #1
10000e0a:	1850      	adds	r0, r2, r1
10000e0c:	0080      	lsls	r0, r0, #2
10000e0e:	1834      	adds	r4, r6, r0
10000e10:	4680      	mov	r8, r0
10000e12:	68a0      	ldr	r0, [r4, #8]
10000e14:	6098      	str	r0, [r3, #8]
10000e16:	79e0      	ldrb	r0, [r4, #7]
10000e18:	71d8      	strb	r0, [r3, #7]
10000e1a:	2006      	movs	r0, #6
10000e1c:	5620      	ldrsb	r0, [r4, r0]
10000e1e:	7198      	strb	r0, [r3, #6]
10000e20:	2800      	cmp	r0, #0
10000e22:	db25      	blt.n	10000e70 <irq_remove_handler+0x160>
10000e24:	88a4      	ldrh	r4, [r4, #4]
10000e26:	1af0      	subs	r0, r6, r3
10000e28:	0564      	lsls	r4, r4, #21
10000e2a:	1524      	asrs	r4, r4, #20
10000e2c:	4444      	add	r4, r8
10000e2e:	1900      	adds	r0, r0, r4
10000e30:	24e0      	movs	r4, #224	; 0xe0
10000e32:	0500      	lsls	r0, r0, #20
10000e34:	0d40      	lsrs	r0, r0, #21
10000e36:	0224      	lsls	r4, r4, #8
10000e38:	4320      	orrs	r0, r4
10000e3a:	8098      	strh	r0, [r3, #4]
10000e3c:	1852      	adds	r2, r2, r1
10000e3e:	4b1e      	ldr	r3, [pc, #120]	; (10000eb8 <irq_remove_handler+0x1a8>)
10000e40:	0092      	lsls	r2, r2, #2
10000e42:	18b6      	adds	r6, r6, r2
10000e44:	781a      	ldrb	r2, [r3, #0]
10000e46:	7019      	strb	r1, [r3, #0]
10000e48:	71b2      	strb	r2, [r6, #6]
10000e4a:	e7b1      	b.n	10000db0 <irq_remove_handler+0xa0>
10000e4c:	0013      	movs	r3, r2
10000e4e:	4659      	mov	r1, fp
10000e50:	2900      	cmp	r1, #0
10000e52:	d10f      	bne.n	10000e74 <irq_remove_handler+0x164>
10000e54:	31ff      	adds	r1, #255	; 0xff
10000e56:	7191      	strb	r1, [r2, #6]
10000e58:	4918      	ldr	r1, [pc, #96]	; (10000ebc <irq_remove_handler+0x1ac>)
10000e5a:	8091      	strh	r1, [r2, #4]
10000e5c:	4916      	ldr	r1, [pc, #88]	; (10000eb8 <irq_remove_handler+0x1a8>)
10000e5e:	780a      	ldrb	r2, [r1, #0]
10000e60:	719a      	strb	r2, [r3, #6]
10000e62:	4a17      	ldr	r2, [pc, #92]	; (10000ec0 <irq_remove_handler+0x1b0>)
10000e64:	1b9b      	subs	r3, r3, r6
10000e66:	415b      	adcs	r3, r3
10000e68:	435a      	muls	r2, r3
10000e6a:	0d12      	lsrs	r2, r2, #20
10000e6c:	700a      	strb	r2, [r1, #0]
10000e6e:	e79f      	b.n	10000db0 <irq_remove_handler+0xa0>
10000e70:	4814      	ldr	r0, [pc, #80]	; (10000ec4 <irq_remove_handler+0x1b4>)
10000e72:	e7e2      	b.n	10000e3a <irq_remove_handler+0x12a>
10000e74:	4a14      	ldr	r2, [pc, #80]	; (10000ec8 <irq_remove_handler+0x1b8>)
10000e76:	4915      	ldr	r1, [pc, #84]	; (10000ecc <irq_remove_handler+0x1bc>)
10000e78:	1ad2      	subs	r2, r2, r3
10000e7a:	3a08      	subs	r2, #8
10000e7c:	0250      	lsls	r0, r2, #9
10000e7e:	0d40      	lsrs	r0, r0, #21
10000e80:	4301      	orrs	r1, r0
10000e82:	8099      	strh	r1, [r3, #4]
10000e84:	4912      	ldr	r1, [pc, #72]	; (10000ed0 <irq_remove_handler+0x1c0>)
10000e86:	0852      	lsrs	r2, r2, #1
10000e88:	430a      	orrs	r2, r1
10000e8a:	80da      	strh	r2, [r3, #6]
10000e8c:	e790      	b.n	10000db0 <irq_remove_handler+0xa0>
10000e8e:	2106      	movs	r1, #6
10000e90:	5651      	ldrsb	r1, [r2, r1]
10000e92:	0013      	movs	r3, r2
10000e94:	2900      	cmp	r1, #0
10000e96:	dab7      	bge.n	10000e08 <irq_remove_handler+0xf8>
10000e98:	465a      	mov	r2, fp
10000e9a:	2a00      	cmp	r2, #0
10000e9c:	d1ea      	bne.n	10000e74 <irq_remove_handler+0x164>
10000e9e:	4645      	mov	r5, r8
10000ea0:	e7dc      	b.n	10000e5c <irq_remove_handler+0x14c>
10000ea2:	46c0      	nop			; (mov r8, r8)
10000ea4:	d0000124 	.word	0xd0000124
10000ea8:	e000ed00 	.word	0xe000ed00
10000eac:	100001cd 	.word	0x100001cd
10000eb0:	200003dc 	.word	0x200003dc
10000eb4:	e000e100 	.word	0xe000e100
10000eb8:	200011d4 	.word	0x200011d4
10000ebc:	ffffbd01 	.word	0xffffbd01
10000ec0:	0000aaaa 	.word	0x0000aaaa
10000ec4:	0000bd01 	.word	0x0000bd01
10000ec8:	20000416 	.word	0x20000416
10000ecc:	fffff000 	.word	0xfffff000
10000ed0:	fffff800 	.word	0xfffff800

10000ed4 <irq_set_priority>:
10000ed4:	b510      	push	{r4, lr}
10000ed6:	0883      	lsrs	r3, r0, #2
10000ed8:	0004      	movs	r4, r0
10000eda:	2003      	movs	r0, #3
10000edc:	4020      	ands	r0, r4
10000ede:	24ff      	movs	r4, #255	; 0xff
10000ee0:	4a05      	ldr	r2, [pc, #20]	; (10000ef8 <irq_set_priority+0x24>)
10000ee2:	00c0      	lsls	r0, r0, #3
10000ee4:	4694      	mov	ip, r2
10000ee6:	4084      	lsls	r4, r0
10000ee8:	4081      	lsls	r1, r0
10000eea:	009b      	lsls	r3, r3, #2
10000eec:	4463      	add	r3, ip
10000eee:	681a      	ldr	r2, [r3, #0]
10000ef0:	43a2      	bics	r2, r4
10000ef2:	430a      	orrs	r2, r1
10000ef4:	601a      	str	r2, [r3, #0]
10000ef6:	bd10      	pop	{r4, pc}
10000ef8:	e000e400 	.word	0xe000e400

10000efc <irq_add_tail_to_free_list>:
10000efc:	b570      	push	{r4, r5, r6, lr}
10000efe:	2401      	movs	r4, #1
10000f00:	4304      	orrs	r4, r0
10000f02:	f3ef 8105 	mrs	r1, IPSR
10000f06:	f3ef 8c10 	mrs	ip, PRIMASK
10000f0a:	b672      	cpsid	i
10000f0c:	4a21      	ldr	r2, [pc, #132]	; (10000f94 <irq_add_tail_to_free_list+0x98>)
10000f0e:	6813      	ldr	r3, [r2, #0]
10000f10:	2b00      	cmp	r3, #0
10000f12:	d0fc      	beq.n	10000f0e <irq_add_tail_to_free_list+0x12>
10000f14:	f3bf 8f5f 	dmb	sy
10000f18:	4b1f      	ldr	r3, [pc, #124]	; (10000f98 <irq_add_tail_to_free_list+0x9c>)
10000f1a:	0005      	movs	r5, r0
10000f1c:	4a1f      	ldr	r2, [pc, #124]	; (10000f9c <irq_add_tail_to_free_list+0xa0>)
10000f1e:	1aed      	subs	r5, r5, r3
10000f20:	416d      	adcs	r5, r5
10000f22:	436a      	muls	r2, r5
10000f24:	0d12      	lsrs	r2, r2, #20
10000f26:	4d1e      	ldr	r5, [pc, #120]	; (10000fa0 <irq_add_tail_to_free_list+0xa4>)
10000f28:	0089      	lsls	r1, r1, #2
10000f2a:	68ae      	ldr	r6, [r5, #8]
10000f2c:	b252      	sxtb	r2, r2
10000f2e:	5876      	ldr	r6, [r6, r1]
10000f30:	42a6      	cmp	r6, r4
10000f32:	d01c      	beq.n	10000f6e <irq_add_tail_to_free_list+0x72>
10000f34:	2106      	movs	r1, #6
10000f36:	5659      	ldrsb	r1, [r3, r1]
10000f38:	4291      	cmp	r1, r2
10000f3a:	d01c      	beq.n	10000f76 <irq_add_tail_to_free_list+0x7a>
10000f3c:	2112      	movs	r1, #18
10000f3e:	5659      	ldrsb	r1, [r3, r1]
10000f40:	4291      	cmp	r1, r2
10000f42:	d022      	beq.n	10000f8a <irq_add_tail_to_free_list+0x8e>
10000f44:	211e      	movs	r1, #30
10000f46:	5659      	ldrsb	r1, [r3, r1]
10000f48:	4291      	cmp	r1, r2
10000f4a:	d020      	beq.n	10000f8e <irq_add_tail_to_free_list+0x92>
10000f4c:	212a      	movs	r1, #42	; 0x2a
10000f4e:	5659      	ldrsb	r1, [r3, r1]
10000f50:	2403      	movs	r4, #3
10000f52:	4291      	cmp	r1, r2
10000f54:	d010      	beq.n	10000f78 <irq_add_tail_to_free_list+0x7c>
10000f56:	4b13      	ldr	r3, [pc, #76]	; (10000fa4 <irq_add_tail_to_free_list+0xa8>)
10000f58:	7819      	ldrb	r1, [r3, #0]
10000f5a:	701a      	strb	r2, [r3, #0]
10000f5c:	7181      	strb	r1, [r0, #6]
10000f5e:	f3bf 8f5f 	dmb	sy
10000f62:	2200      	movs	r2, #0
10000f64:	4b0b      	ldr	r3, [pc, #44]	; (10000f94 <irq_add_tail_to_free_list+0x98>)
10000f66:	601a      	str	r2, [r3, #0]
10000f68:	f38c 8810 	msr	PRIMASK, ip
10000f6c:	bd70      	pop	{r4, r5, r6, pc}
10000f6e:	68ab      	ldr	r3, [r5, #8]
10000f70:	4c0d      	ldr	r4, [pc, #52]	; (10000fa8 <irq_add_tail_to_free_list+0xac>)
10000f72:	505c      	str	r4, [r3, r1]
10000f74:	e7ef      	b.n	10000f56 <irq_add_tail_to_free_list+0x5a>
10000f76:	2400      	movs	r4, #0
10000f78:	0061      	lsls	r1, r4, #1
10000f7a:	1909      	adds	r1, r1, r4
10000f7c:	0089      	lsls	r1, r1, #2
10000f7e:	185b      	adds	r3, r3, r1
10000f80:	21ff      	movs	r1, #255	; 0xff
10000f82:	7199      	strb	r1, [r3, #6]
10000f84:	4909      	ldr	r1, [pc, #36]	; (10000fac <irq_add_tail_to_free_list+0xb0>)
10000f86:	8099      	strh	r1, [r3, #4]
10000f88:	e7e5      	b.n	10000f56 <irq_add_tail_to_free_list+0x5a>
10000f8a:	2401      	movs	r4, #1
10000f8c:	e7f4      	b.n	10000f78 <irq_add_tail_to_free_list+0x7c>
10000f8e:	2402      	movs	r4, #2
10000f90:	e7f2      	b.n	10000f78 <irq_add_tail_to_free_list+0x7c>
10000f92:	46c0      	nop			; (mov r8, r8)
10000f94:	d0000124 	.word	0xd0000124
10000f98:	200003dc 	.word	0x200003dc
10000f9c:	0000aaaa 	.word	0x0000aaaa
10000fa0:	e000ed00 	.word	0xe000ed00
10000fa4:	200011d4 	.word	0x200011d4
10000fa8:	100001cd 	.word	0x100001cd
10000fac:	ffffbd01 	.word	0xffffbd01

10000fb0 <user_irq_unclaim>:
10000fb0:	211f      	movs	r1, #31
10000fb2:	b510      	push	{r4, lr}
10000fb4:	1a09      	subs	r1, r1, r0
10000fb6:	4802      	ldr	r0, [pc, #8]	; (10000fc0 <user_irq_unclaim+0x10>)
10000fb8:	f7ff fcf6 	bl	100009a8 <hw_claim_clear>
10000fbc:	bd10      	pop	{r4, pc}
10000fbe:	46c0      	nop			; (mov r8, r8)
10000fc0:	200011d6 	.word	0x200011d6

10000fc4 <user_irq_claim_unused>:
10000fc4:	b500      	push	{lr}
10000fc6:	4b07      	ldr	r3, [pc, #28]	; (10000fe4 <user_irq_claim_unused+0x20>)
10000fc8:	b083      	sub	sp, #12
10000fca:	0001      	movs	r1, r0
10000fcc:	9300      	str	r3, [sp, #0]
10000fce:	2200      	movs	r2, #0
10000fd0:	2305      	movs	r3, #5
10000fd2:	4805      	ldr	r0, [pc, #20]	; (10000fe8 <user_irq_claim_unused+0x24>)
10000fd4:	f7ff fc9a 	bl	1000090c <hw_claim_unused_from_range>
10000fd8:	2800      	cmp	r0, #0
10000fda:	db01      	blt.n	10000fe0 <user_irq_claim_unused+0x1c>
10000fdc:	231f      	movs	r3, #31
10000fde:	1a18      	subs	r0, r3, r0
10000fe0:	b003      	add	sp, #12
10000fe2:	bd00      	pop	{pc}
10000fe4:	10006338 	.word	0x10006338
10000fe8:	200011d6 	.word	0x200011d6

10000fec <sem_init>:
10000fec:	b570      	push	{r4, r5, r6, lr}
10000fee:	0004      	movs	r4, r0
10000ff0:	000e      	movs	r6, r1
10000ff2:	0015      	movs	r5, r2
10000ff4:	f7ff fcf4 	bl	100009e0 <next_striped_spin_lock_num>
10000ff8:	0001      	movs	r1, r0
10000ffa:	0020      	movs	r0, r4
10000ffc:	f000 f806 	bl	1000100c <lock_init>
10001000:	80a6      	strh	r6, [r4, #4]
10001002:	80e5      	strh	r5, [r4, #6]
10001004:	f3bf 8f5f 	dmb	sy
10001008:	bd70      	pop	{r4, r5, r6, pc}
1000100a:	46c0      	nop			; (mov r8, r8)

1000100c <lock_init>:
1000100c:	4b02      	ldr	r3, [pc, #8]	; (10001018 <lock_init+0xc>)
1000100e:	469c      	mov	ip, r3
10001010:	4461      	add	r1, ip
10001012:	0089      	lsls	r1, r1, #2
10001014:	6001      	str	r1, [r0, #0]
10001016:	4770      	bx	lr
10001018:	34000040 	.word	0x34000040

1000101c <runtime_init_mutex>:
1000101c:	b5f8      	push	{r3, r4, r5, r6, r7, lr}
1000101e:	4d13      	ldr	r5, [pc, #76]	; (1000106c <runtime_init_mutex+0x50>)
10001020:	4e13      	ldr	r6, [pc, #76]	; (10001070 <runtime_init_mutex+0x54>)
10001022:	002c      	movs	r4, r5
10001024:	27ff      	movs	r7, #255	; 0xff
10001026:	42b5      	cmp	r5, r6
10001028:	d21e      	bcs.n	10001068 <runtime_init_mutex+0x4c>
1000102a:	6823      	ldr	r3, [r4, #0]
1000102c:	2b00      	cmp	r3, #0
1000102e:	d00f      	beq.n	10001050 <runtime_init_mutex+0x34>
10001030:	f7ff fcd6 	bl	100009e0 <next_striped_spin_lock_num>
10001034:	0001      	movs	r1, r0
10001036:	0028      	movs	r0, r5
10001038:	f7ff ffe8 	bl	1000100c <lock_init>
1000103c:	80a7      	strh	r7, [r4, #4]
1000103e:	f3bf 8f5f 	dmb	sy
10001042:	3408      	adds	r4, #8
10001044:	42b4      	cmp	r4, r6
10001046:	d20f      	bcs.n	10001068 <runtime_init_mutex+0x4c>
10001048:	6823      	ldr	r3, [r4, #0]
1000104a:	0025      	movs	r5, r4
1000104c:	2b00      	cmp	r3, #0
1000104e:	d1ef      	bne.n	10001030 <runtime_init_mutex+0x14>
10001050:	f7ff fcc6 	bl	100009e0 <next_striped_spin_lock_num>
10001054:	0001      	movs	r1, r0
10001056:	0028      	movs	r0, r5
10001058:	f7ff ffd8 	bl	1000100c <lock_init>
1000105c:	7127      	strb	r7, [r4, #4]
1000105e:	f3bf 8f5f 	dmb	sy
10001062:	3408      	adds	r4, #8
10001064:	42b4      	cmp	r4, r6
10001066:	d3ef      	bcc.n	10001048 <runtime_init_mutex+0x2c>
10001068:	bdf8      	pop	{r3, r4, r5, r6, r7, pc}
1000106a:	46c0      	nop			; (mov r8, r8)
1000106c:	20000cb8 	.word	0x20000cb8
10001070:	20000cc8 	.word	0x20000cc8

10001074 <recursive_mutex_init>:
10001074:	b510      	push	{r4, lr}
10001076:	0004      	movs	r4, r0
10001078:	f7ff fcb2 	bl	100009e0 <next_striped_spin_lock_num>
1000107c:	0001      	movs	r1, r0
1000107e:	0020      	movs	r0, r4
10001080:	f7ff ffc4 	bl	1000100c <lock_init>
10001084:	23ff      	movs	r3, #255	; 0xff
10001086:	80a3      	strh	r3, [r4, #4]
10001088:	f3bf 8f5f 	dmb	sy
1000108c:	bd10      	pop	{r4, pc}
1000108e:	46c0      	nop			; (mov r8, r8)

10001090 <sleep_until_callback>:
10001090:	4b0a      	ldr	r3, [pc, #40]	; (100010bc <sleep_until_callback+0x2c>)
10001092:	6819      	ldr	r1, [r3, #0]
10001094:	f3ef 8010 	mrs	r0, PRIMASK
10001098:	b672      	cpsid	i
1000109a:	680a      	ldr	r2, [r1, #0]
1000109c:	2a00      	cmp	r2, #0
1000109e:	d0fc      	beq.n	1000109a <sleep_until_callback+0xa>
100010a0:	f3bf 8f5f 	dmb	sy
100010a4:	681b      	ldr	r3, [r3, #0]
100010a6:	f3bf 8f5f 	dmb	sy
100010aa:	2200      	movs	r2, #0
100010ac:	601a      	str	r2, [r3, #0]
100010ae:	f380 8810 	msr	PRIMASK, r0
100010b2:	bf40      	sev
100010b4:	2000      	movs	r0, #0
100010b6:	2100      	movs	r1, #0
100010b8:	4770      	bx	lr
100010ba:	46c0      	nop			; (mov r8, r8)
100010bc:	20001184 	.word	0x20001184

100010c0 <alarm_pool_irq_handler>:
100010c0:	b5f0      	push	{r4, r5, r6, r7, lr}
100010c2:	46de      	mov	lr, fp
100010c4:	4657      	mov	r7, sl
100010c6:	464e      	mov	r6, r9
100010c8:	4645      	mov	r5, r8
100010ca:	b5e0      	push	{r5, r6, r7, lr}
100010cc:	b085      	sub	sp, #20
100010ce:	f3ef 8205 	mrs	r2, IPSR
100010d2:	2303      	movs	r3, #3
100010d4:	4013      	ands	r3, r2
100010d6:	009a      	lsls	r2, r3, #2
100010d8:	0011      	movs	r1, r2
100010da:	9203      	str	r2, [sp, #12]
100010dc:	4ab6      	ldr	r2, [pc, #728]	; (100013b8 <alarm_pool_irq_handler+0x2f8>)
100010de:	5852      	ldr	r2, [r2, r1]
100010e0:	4690      	mov	r8, r2
100010e2:	2201      	movs	r2, #1
100010e4:	409a      	lsls	r2, r3
100010e6:	4bb5      	ldr	r3, [pc, #724]	; (100013bc <alarm_pool_irq_handler+0x2fc>)
100010e8:	4691      	mov	r9, r2
100010ea:	601a      	str	r2, [r3, #0]
100010ec:	e031      	b.n	10001152 <alarm_pool_irq_handler+0x92>
100010ee:	4643      	mov	r3, r8
100010f0:	889b      	ldrh	r3, [r3, #4]
100010f2:	b21b      	sxth	r3, r3
100010f4:	2b00      	cmp	r3, #0
100010f6:	db00      	blt.n	100010fa <alarm_pool_irq_handler+0x3a>
100010f8:	e09d      	b.n	10001236 <alarm_pool_irq_handler+0x176>
100010fa:	4643      	mov	r3, r8
100010fc:	799b      	ldrb	r3, [r3, #6]
100010fe:	2b00      	cmp	r3, #0
10001100:	d000      	beq.n	10001104 <alarm_pool_irq_handler+0x44>
10001102:	e0ef      	b.n	100012e4 <alarm_pool_irq_handler+0x224>
10001104:	4643      	mov	r3, r8
10001106:	2408      	movs	r4, #8
10001108:	5f1c      	ldrsh	r4, [r3, r4]
1000110a:	2c00      	cmp	r4, #0
1000110c:	da00      	bge.n	10001110 <alarm_pool_irq_handler+0x50>
1000110e:	e117      	b.n	10001340 <alarm_pool_irq_handler+0x280>
10001110:	4642      	mov	r2, r8
10001112:	6952      	ldr	r2, [r2, #20]
10001114:	0063      	lsls	r3, r4, #1
10001116:	4694      	mov	ip, r2
10001118:	191b      	adds	r3, r3, r4
1000111a:	00db      	lsls	r3, r3, #3
1000111c:	4463      	add	r3, ip
1000111e:	689c      	ldr	r4, [r3, #8]
10001120:	68dd      	ldr	r5, [r3, #12]
10001122:	1c63      	adds	r3, r4, #1
10001124:	d100      	bne.n	10001128 <alarm_pool_irq_handler+0x68>
10001126:	e113      	b.n	10001350 <alarm_pool_irq_handler+0x290>
10001128:	4ba5      	ldr	r3, [pc, #660]	; (100013c0 <alarm_pool_irq_handler+0x300>)
1000112a:	9903      	ldr	r1, [sp, #12]
1000112c:	469c      	mov	ip, r3
1000112e:	4461      	add	r1, ip
10001130:	6a9a      	ldr	r2, [r3, #40]	; 0x28
10001132:	690b      	ldr	r3, [r1, #16]
10001134:	1aa0      	subs	r0, r4, r2
10001136:	1a9b      	subs	r3, r3, r2
10001138:	4298      	cmp	r0, r3
1000113a:	d200      	bcs.n	1000113e <alarm_pool_irq_handler+0x7e>
1000113c:	610c      	str	r4, [r1, #16]
1000113e:	48a0      	ldr	r0, [pc, #640]	; (100013c0 <alarm_pool_irq_handler+0x300>)
10001140:	f000 fc48 	bl	100019d4 <timer_time_us_64>
10001144:	1a24      	subs	r4, r4, r0
10001146:	418d      	sbcs	r5, r1
10001148:	2d00      	cmp	r5, #0
1000114a:	dd00      	ble.n	1000114e <alarm_pool_irq_handler+0x8e>
1000114c:	e0f8      	b.n	10001340 <alarm_pool_irq_handler+0x280>
1000114e:	d100      	bne.n	10001152 <alarm_pool_irq_handler+0x92>
10001150:	e12e      	b.n	100013b0 <alarm_pool_irq_handler+0x2f0>
10001152:	464b      	mov	r3, r9
10001154:	489a      	ldr	r0, [pc, #616]	; (100013c0 <alarm_pool_irq_handler+0x300>)
10001156:	6343      	str	r3, [r0, #52]	; 0x34
10001158:	4643      	mov	r3, r8
1000115a:	2208      	movs	r2, #8
1000115c:	5e9b      	ldrsh	r3, [r3, r2]
1000115e:	469a      	mov	sl, r3
10001160:	2b00      	cmp	r3, #0
10001162:	dbc4      	blt.n	100010ee <alarm_pool_irq_handler+0x2e>
10001164:	4642      	mov	r2, r8
10001166:	6952      	ldr	r2, [r2, #20]
10001168:	005b      	lsls	r3, r3, #1
1000116a:	4693      	mov	fp, r2
1000116c:	4453      	add	r3, sl
1000116e:	00db      	lsls	r3, r3, #3
10001170:	449b      	add	fp, r3
10001172:	465b      	mov	r3, fp
10001174:	689e      	ldr	r6, [r3, #8]
10001176:	68df      	ldr	r7, [r3, #12]
10001178:	f000 fc2c 	bl	100019d4 <timer_time_us_64>
1000117c:	1b80      	subs	r0, r0, r6
1000117e:	41b9      	sbcs	r1, r7
10001180:	2900      	cmp	r1, #0
10001182:	dbb4      	blt.n	100010ee <alarm_pool_irq_handler+0x2e>
10001184:	2f00      	cmp	r7, #0
10001186:	da00      	bge.n	1000118a <alarm_pool_irq_handler+0xca>
10001188:	e0ed      	b.n	10001366 <alarm_pool_irq_handler+0x2a6>
1000118a:	465b      	mov	r3, fp
1000118c:	4a8d      	ldr	r2, [pc, #564]	; (100013c4 <alarm_pool_irq_handler+0x304>)
1000118e:	691b      	ldr	r3, [r3, #16]
10001190:	4293      	cmp	r3, r2
10001192:	d100      	bne.n	10001196 <alarm_pool_irq_handler+0xd6>
10001194:	e0e0      	b.n	10001358 <alarm_pool_irq_handler+0x298>
10001196:	4641      	mov	r1, r8
10001198:	465a      	mov	r2, fp
1000119a:	2008      	movs	r0, #8
1000119c:	5e08      	ldrsh	r0, [r1, r0]
1000119e:	8852      	ldrh	r2, [r2, #2]
100011a0:	0400      	lsls	r0, r0, #16
100011a2:	4310      	orrs	r0, r2
100011a4:	465a      	mov	r2, fp
100011a6:	6951      	ldr	r1, [r2, #20]
100011a8:	4798      	blx	r3
100011aa:	0004      	movs	r4, r0
100011ac:	000d      	movs	r5, r1
100011ae:	0023      	movs	r3, r4
100011b0:	432b      	orrs	r3, r5
100011b2:	d100      	bne.n	100011b6 <alarm_pool_irq_handler+0xf6>
100011b4:	e0d7      	b.n	10001366 <alarm_pool_irq_handler+0x2a6>
100011b6:	2d00      	cmp	r5, #0
100011b8:	db00      	blt.n	100011bc <alarm_pool_irq_handler+0xfc>
100011ba:	e0f0      	b.n	1000139e <alarm_pool_irq_handler+0x2de>
100011bc:	1b36      	subs	r6, r6, r4
100011be:	41af      	sbcs	r7, r5
100011c0:	0034      	movs	r4, r6
100011c2:	003d      	movs	r5, r7
100011c4:	465b      	mov	r3, fp
100011c6:	609c      	str	r4, [r3, #8]
100011c8:	60dd      	str	r5, [r3, #12]
100011ca:	2100      	movs	r1, #0
100011cc:	5e59      	ldrsh	r1, [r3, r1]
100011ce:	2900      	cmp	r1, #0
100011d0:	db8d      	blt.n	100010ee <alarm_pool_irq_handler+0x2e>
100011d2:	4643      	mov	r3, r8
100011d4:	695b      	ldr	r3, [r3, #20]
100011d6:	0022      	movs	r2, r4
100011d8:	469c      	mov	ip, r3
100011da:	002b      	movs	r3, r5
100011dc:	0048      	lsls	r0, r1, #1
100011de:	1840      	adds	r0, r0, r1
100011e0:	00c0      	lsls	r0, r0, #3
100011e2:	4460      	add	r0, ip
100011e4:	6886      	ldr	r6, [r0, #8]
100011e6:	68c7      	ldr	r7, [r0, #12]
100011e8:	1b92      	subs	r2, r2, r6
100011ea:	41bb      	sbcs	r3, r7
100011ec:	2b00      	cmp	r3, #0
100011ee:	da00      	bge.n	100011f2 <alarm_pool_irq_handler+0x132>
100011f0:	e77d      	b.n	100010ee <alarm_pool_irq_handler+0x2e>
100011f2:	4643      	mov	r3, r8
100011f4:	4666      	mov	r6, ip
100011f6:	0002      	movs	r2, r0
100011f8:	9400      	str	r4, [sp, #0]
100011fa:	9501      	str	r5, [sp, #4]
100011fc:	8119      	strh	r1, [r3, #8]
100011fe:	e00c      	b.n	1000121a <alarm_pool_irq_handler+0x15a>
10001200:	007b      	lsls	r3, r7, #1
10001202:	19db      	adds	r3, r3, r7
10001204:	00db      	lsls	r3, r3, #3
10001206:	18f3      	adds	r3, r6, r3
10001208:	9800      	ldr	r0, [sp, #0]
1000120a:	9901      	ldr	r1, [sp, #4]
1000120c:	689c      	ldr	r4, [r3, #8]
1000120e:	68dd      	ldr	r5, [r3, #12]
10001210:	1b00      	subs	r0, r0, r4
10001212:	41a9      	sbcs	r1, r5
10001214:	2900      	cmp	r1, #0
10001216:	db04      	blt.n	10001222 <alarm_pool_irq_handler+0x162>
10001218:	001a      	movs	r2, r3
1000121a:	2300      	movs	r3, #0
1000121c:	5ed7      	ldrsh	r7, [r2, r3]
1000121e:	2f00      	cmp	r7, #0
10001220:	daee      	bge.n	10001200 <alarm_pool_irq_handler+0x140>
10001222:	465b      	mov	r3, fp
10001224:	801f      	strh	r7, [r3, #0]
10001226:	4653      	mov	r3, sl
10001228:	8013      	strh	r3, [r2, #0]
1000122a:	4643      	mov	r3, r8
1000122c:	889b      	ldrh	r3, [r3, #4]
1000122e:	b21b      	sxth	r3, r3
10001230:	2b00      	cmp	r3, #0
10001232:	da00      	bge.n	10001236 <alarm_pool_irq_handler+0x176>
10001234:	e761      	b.n	100010fa <alarm_pool_irq_handler+0x3a>
10001236:	4643      	mov	r3, r8
10001238:	691a      	ldr	r2, [r3, #16]
1000123a:	f3ef 8110 	mrs	r1, PRIMASK
1000123e:	b672      	cpsid	i
10001240:	6813      	ldr	r3, [r2, #0]
10001242:	2b00      	cmp	r3, #0
10001244:	d0fc      	beq.n	10001240 <alarm_pool_irq_handler+0x180>
10001246:	f3bf 8f5f 	dmb	sy
1000124a:	4643      	mov	r3, r8
1000124c:	889b      	ldrh	r3, [r3, #4]
1000124e:	4642      	mov	r2, r8
10001250:	b21b      	sxth	r3, r3
10001252:	469a      	mov	sl, r3
10001254:	2301      	movs	r3, #1
10001256:	425b      	negs	r3, r3
10001258:	8093      	strh	r3, [r2, #4]
1000125a:	6913      	ldr	r3, [r2, #16]
1000125c:	f3bf 8f5f 	dmb	sy
10001260:	2200      	movs	r2, #0
10001262:	601a      	str	r2, [r3, #0]
10001264:	f381 8810 	msr	PRIMASK, r1
10001268:	4653      	mov	r3, sl
1000126a:	2b00      	cmp	r3, #0
1000126c:	da00      	bge.n	10001270 <alarm_pool_irq_handler+0x1b0>
1000126e:	e744      	b.n	100010fa <alarm_pool_irq_handler+0x3a>
10001270:	4643      	mov	r3, r8
10001272:	695b      	ldr	r3, [r3, #20]
10001274:	469c      	mov	ip, r3
10001276:	2308      	movs	r3, #8
10001278:	4443      	add	r3, r8
1000127a:	469b      	mov	fp, r3
1000127c:	4653      	mov	r3, sl
1000127e:	005f      	lsls	r7, r3, #1
10001280:	4643      	mov	r3, r8
10001282:	4457      	add	r7, sl
10001284:	00ff      	lsls	r7, r7, #3
10001286:	2208      	movs	r2, #8
10001288:	5e9a      	ldrsh	r2, [r3, r2]
1000128a:	4467      	add	r7, ip
1000128c:	465e      	mov	r6, fp
1000128e:	68bc      	ldr	r4, [r7, #8]
10001290:	68fd      	ldr	r5, [r7, #12]
10001292:	2a00      	cmp	r2, #0
10001294:	db19      	blt.n	100012ca <alarm_pool_irq_handler+0x20a>
10001296:	003b      	movs	r3, r7
10001298:	9400      	str	r4, [sp, #0]
1000129a:	9501      	str	r5, [sp, #4]
1000129c:	4667      	mov	r7, ip
1000129e:	469c      	mov	ip, r3
100012a0:	e004      	b.n	100012ac <alarm_pool_irq_handler+0x1ec>
100012a2:	001e      	movs	r6, r3
100012a4:	2300      	movs	r3, #0
100012a6:	5ef2      	ldrsh	r2, [r6, r3]
100012a8:	2a00      	cmp	r2, #0
100012aa:	db0b      	blt.n	100012c4 <alarm_pool_irq_handler+0x204>
100012ac:	9800      	ldr	r0, [sp, #0]
100012ae:	9901      	ldr	r1, [sp, #4]
100012b0:	0053      	lsls	r3, r2, #1
100012b2:	189b      	adds	r3, r3, r2
100012b4:	00db      	lsls	r3, r3, #3
100012b6:	18fb      	adds	r3, r7, r3
100012b8:	689c      	ldr	r4, [r3, #8]
100012ba:	68dd      	ldr	r5, [r3, #12]
100012bc:	1b00      	subs	r0, r0, r4
100012be:	41a9      	sbcs	r1, r5
100012c0:	2900      	cmp	r1, #0
100012c2:	daee      	bge.n	100012a2 <alarm_pool_irq_handler+0x1e2>
100012c4:	4663      	mov	r3, ip
100012c6:	46bc      	mov	ip, r7
100012c8:	001f      	movs	r7, r3
100012ca:	4653      	mov	r3, sl
100012cc:	8033      	strh	r3, [r6, #0]
100012ce:	2100      	movs	r1, #0
100012d0:	5e7b      	ldrsh	r3, [r7, r1]
100012d2:	803a      	strh	r2, [r7, #0]
100012d4:	469a      	mov	sl, r3
100012d6:	2b00      	cmp	r3, #0
100012d8:	dad0      	bge.n	1000127c <alarm_pool_irq_handler+0x1bc>
100012da:	4643      	mov	r3, r8
100012dc:	799b      	ldrb	r3, [r3, #6]
100012de:	2b00      	cmp	r3, #0
100012e0:	d100      	bne.n	100012e4 <alarm_pool_irq_handler+0x224>
100012e2:	e70f      	b.n	10001104 <alarm_pool_irq_handler+0x44>
100012e4:	2300      	movs	r3, #0
100012e6:	4642      	mov	r2, r8
100012e8:	7193      	strb	r3, [r2, #6]
100012ea:	4643      	mov	r3, r8
100012ec:	4646      	mov	r6, r8
100012ee:	2108      	movs	r1, #8
100012f0:	5e59      	ldrsh	r1, [r3, r1]
100012f2:	3608      	adds	r6, #8
100012f4:	1c4b      	adds	r3, r1, #1
100012f6:	d023      	beq.n	10001340 <alarm_pool_irq_handler+0x280>
100012f8:	4647      	mov	r7, r8
100012fa:	468c      	mov	ip, r1
100012fc:	6955      	ldr	r5, [r2, #20]
100012fe:	e002      	b.n	10001306 <alarm_pool_irq_handler+0x246>
10001300:	0006      	movs	r6, r0
10001302:	1c4b      	adds	r3, r1, #1
10001304:	d017      	beq.n	10001336 <alarm_pool_irq_handler+0x276>
10001306:	004b      	lsls	r3, r1, #1
10001308:	185b      	adds	r3, r3, r1
1000130a:	00db      	lsls	r3, r3, #3
1000130c:	18e8      	adds	r0, r5, r3
1000130e:	000a      	movs	r2, r1
10001310:	5ee9      	ldrsh	r1, [r5, r3]
10001312:	8843      	ldrh	r3, [r0, #2]
10001314:	b21b      	sxth	r3, r3
10001316:	2b00      	cmp	r3, #0
10001318:	daf2      	bge.n	10001300 <alarm_pool_irq_handler+0x240>
1000131a:	2301      	movs	r3, #1
1000131c:	425b      	negs	r3, r3
1000131e:	17dc      	asrs	r4, r3, #31
10001320:	6083      	str	r3, [r0, #8]
10001322:	60c4      	str	r4, [r0, #12]
10001324:	4562      	cmp	r2, ip
10001326:	d0ec      	beq.n	10001302 <alarm_pool_irq_handler+0x242>
10001328:	8031      	strh	r1, [r6, #0]
1000132a:	893b      	ldrh	r3, [r7, #8]
1000132c:	4694      	mov	ip, r2
1000132e:	8003      	strh	r3, [r0, #0]
10001330:	813a      	strh	r2, [r7, #8]
10001332:	1c4b      	adds	r3, r1, #1
10001334:	d1e7      	bne.n	10001306 <alarm_pool_irq_handler+0x246>
10001336:	4664      	mov	r4, ip
10001338:	46b8      	mov	r8, r7
1000133a:	2c00      	cmp	r4, #0
1000133c:	db00      	blt.n	10001340 <alarm_pool_irq_handler+0x280>
1000133e:	e6e7      	b.n	10001110 <alarm_pool_irq_handler+0x50>
10001340:	bf40      	sev
10001342:	b005      	add	sp, #20
10001344:	bcf0      	pop	{r4, r5, r6, r7}
10001346:	46bb      	mov	fp, r7
10001348:	46b2      	mov	sl, r6
1000134a:	46a9      	mov	r9, r5
1000134c:	46a0      	mov	r8, r4
1000134e:	bdf0      	pop	{r4, r5, r6, r7, pc}
10001350:	1c6b      	adds	r3, r5, #1
10001352:	d000      	beq.n	10001356 <alarm_pool_irq_handler+0x296>
10001354:	e6e8      	b.n	10001128 <alarm_pool_irq_handler+0x68>
10001356:	e6f2      	b.n	1000113e <alarm_pool_irq_handler+0x7e>
10001358:	465b      	mov	r3, fp
1000135a:	695c      	ldr	r4, [r3, #20]
1000135c:	0020      	movs	r0, r4
1000135e:	6923      	ldr	r3, [r4, #16]
10001360:	4798      	blx	r3
10001362:	2800      	cmp	r0, #0
10001364:	d121      	bne.n	100013aa <alarm_pool_irq_handler+0x2ea>
10001366:	465b      	mov	r3, fp
10001368:	4642      	mov	r2, r8
1000136a:	881b      	ldrh	r3, [r3, #0]
1000136c:	8113      	strh	r3, [r2, #8]
1000136e:	6912      	ldr	r2, [r2, #16]
10001370:	f3ef 8310 	mrs	r3, PRIMASK
10001374:	b672      	cpsid	i
10001376:	6811      	ldr	r1, [r2, #0]
10001378:	2900      	cmp	r1, #0
1000137a:	d0fc      	beq.n	10001376 <alarm_pool_irq_handler+0x2b6>
1000137c:	f3bf 8f5f 	dmb	sy
10001380:	4642      	mov	r2, r8
10001382:	4659      	mov	r1, fp
10001384:	8852      	ldrh	r2, [r2, #2]
10001386:	800a      	strh	r2, [r1, #0]
10001388:	4642      	mov	r2, r8
1000138a:	4651      	mov	r1, sl
1000138c:	8051      	strh	r1, [r2, #2]
1000138e:	6912      	ldr	r2, [r2, #16]
10001390:	f3bf 8f5f 	dmb	sy
10001394:	2100      	movs	r1, #0
10001396:	6011      	str	r1, [r2, #0]
10001398:	f383 8810 	msr	PRIMASK, r3
1000139c:	e6a7      	b.n	100010ee <alarm_pool_irq_handler+0x2e>
1000139e:	4808      	ldr	r0, [pc, #32]	; (100013c0 <alarm_pool_irq_handler+0x300>)
100013a0:	f000 fb18 	bl	100019d4 <timer_time_us_64>
100013a4:	1824      	adds	r4, r4, r0
100013a6:	414d      	adcs	r5, r1
100013a8:	e70c      	b.n	100011c4 <alarm_pool_irq_handler+0x104>
100013aa:	6865      	ldr	r5, [r4, #4]
100013ac:	6824      	ldr	r4, [r4, #0]
100013ae:	e6fe      	b.n	100011ae <alarm_pool_irq_handler+0xee>
100013b0:	2c00      	cmp	r4, #0
100013b2:	d100      	bne.n	100013b6 <alarm_pool_irq_handler+0x2f6>
100013b4:	e6cd      	b.n	10001152 <alarm_pool_irq_handler+0x92>
100013b6:	e7c3      	b.n	10001340 <alarm_pool_irq_handler+0x280>
100013b8:	20001170 	.word	0x20001170
100013bc:	4005703c 	.word	0x4005703c
100013c0:	40054000 	.word	0x40054000
100013c4:	100010c1 	.word	0x100010c1

100013c8 <runtime_init_default_alarm_pool>:
100013c8:	b570      	push	{r4, r5, r6, lr}
100013ca:	4c2e      	ldr	r4, [pc, #184]	; (10001484 <runtime_init_default_alarm_pool+0xbc>)
100013cc:	6925      	ldr	r5, [r4, #16]
100013ce:	2d00      	cmp	r5, #0
100013d0:	d004      	beq.n	100013dc <runtime_init_default_alarm_pool+0x14>
100013d2:	210a      	movs	r1, #10
100013d4:	482c      	ldr	r0, [pc, #176]	; (10001488 <runtime_init_default_alarm_pool+0xc0>)
100013d6:	f7ff fe19 	bl	1000100c <lock_init>
100013da:	bd70      	pop	{r4, r5, r6, pc}
100013dc:	4e2b      	ldr	r6, [pc, #172]	; (1000148c <runtime_init_default_alarm_pool+0xc4>)
100013de:	2103      	movs	r1, #3
100013e0:	0030      	movs	r0, r6
100013e2:	f000 fad5 	bl	10001990 <timer_hardware_alarm_claim>
100013e6:	60e6      	str	r6, [r4, #12]
100013e8:	f7ff fafa 	bl	100009e0 <next_striped_spin_lock_num>
100013ec:	4b28      	ldr	r3, [pc, #160]	; (10001490 <runtime_init_default_alarm_pool+0xc8>)
100013ee:	2203      	movs	r2, #3
100013f0:	469c      	mov	ip, r3
100013f2:	23d0      	movs	r3, #208	; 0xd0
100013f4:	7022      	strb	r2, [r4, #0]
100013f6:	061b      	lsls	r3, r3, #24
100013f8:	681b      	ldr	r3, [r3, #0]
100013fa:	2101      	movs	r1, #1
100013fc:	7063      	strb	r3, [r4, #1]
100013fe:	4b25      	ldr	r3, [pc, #148]	; (10001494 <runtime_init_default_alarm_pool+0xcc>)
10001400:	4460      	add	r0, ip
10001402:	60a3      	str	r3, [r4, #8]
10001404:	230f      	movs	r3, #15
10001406:	0080      	lsls	r0, r0, #2
10001408:	6120      	str	r0, [r4, #16]
1000140a:	2002      	movs	r0, #2
1000140c:	8063      	strh	r3, [r4, #2]
1000140e:	6963      	ldr	r3, [r4, #20]
10001410:	4249      	negs	r1, r1
10001412:	80a1      	strh	r1, [r4, #4]
10001414:	8019      	strh	r1, [r3, #0]
10001416:	3102      	adds	r1, #2
10001418:	8619      	strh	r1, [r3, #48]	; 0x30
1000141a:	3147      	adds	r1, #71	; 0x47
1000141c:	831d      	strh	r5, [r3, #24]
1000141e:	5258      	strh	r0, [r3, r1]
10001420:	3118      	adds	r1, #24
10001422:	525a      	strh	r2, [r3, r1]
10001424:	3275      	adds	r2, #117	; 0x75
10001426:	395c      	subs	r1, #92	; 0x5c
10001428:	5299      	strh	r1, [r3, r2]
1000142a:	3218      	adds	r2, #24
1000142c:	3101      	adds	r1, #1
1000142e:	5299      	strh	r1, [r3, r2]
10001430:	3218      	adds	r2, #24
10001432:	3101      	adds	r1, #1
10001434:	5299      	strh	r1, [r3, r2]
10001436:	3218      	adds	r2, #24
10001438:	3101      	adds	r1, #1
1000143a:	5299      	strh	r1, [r3, r2]
1000143c:	3508      	adds	r5, #8
1000143e:	3218      	adds	r2, #24
10001440:	529d      	strh	r5, [r3, r2]
10001442:	3102      	adds	r1, #2
10001444:	3218      	adds	r2, #24
10001446:	5299      	strh	r1, [r3, r2]
10001448:	3218      	adds	r2, #24
1000144a:	3101      	adds	r1, #1
1000144c:	5299      	strh	r1, [r3, r2]
1000144e:	3218      	adds	r2, #24
10001450:	3101      	adds	r1, #1
10001452:	5299      	strh	r1, [r3, r2]
10001454:	3218      	adds	r2, #24
10001456:	3101      	adds	r1, #1
10001458:	5299      	strh	r1, [r3, r2]
1000145a:	3218      	adds	r2, #24
1000145c:	3101      	adds	r1, #1
1000145e:	5299      	strh	r1, [r3, r2]
10001460:	3218      	adds	r2, #24
10001462:	3101      	adds	r1, #1
10001464:	5299      	strh	r1, [r3, r2]
10001466:	4b0c      	ldr	r3, [pc, #48]	; (10001498 <runtime_init_default_alarm_pool+0xd0>)
10001468:	490c      	ldr	r1, [pc, #48]	; (1000149c <runtime_init_default_alarm_pool+0xd4>)
1000146a:	60dc      	str	r4, [r3, #12]
1000146c:	3001      	adds	r0, #1
1000146e:	6235      	str	r5, [r6, #32]
10001470:	f7ff fb08 	bl	10000a84 <irq_set_exclusive_handler>
10001474:	2101      	movs	r1, #1
10001476:	2003      	movs	r0, #3
10001478:	f7ff fade 	bl	10000a38 <irq_set_enabled>
1000147c:	4b08      	ldr	r3, [pc, #32]	; (100014a0 <runtime_init_default_alarm_pool+0xd8>)
1000147e:	601d      	str	r5, [r3, #0]
10001480:	e7a7      	b.n	100013d2 <runtime_init_default_alarm_pool+0xa>
10001482:	46c0      	nop			; (mov r8, r8)
10001484:	20000424 	.word	0x20000424
10001488:	20001184 	.word	0x20001184
1000148c:	40054000 	.word	0x40054000
10001490:	34000040 	.word	0x34000040
10001494:	0010ffff 	.word	0x0010ffff
10001498:	20001170 	.word	0x20001170
1000149c:	100010c1 	.word	0x100010c1
100014a0:	40056038 	.word	0x40056038

100014a4 <alarm_pool_get_default>:
100014a4:	4800      	ldr	r0, [pc, #0]	; (100014a8 <alarm_pool_get_default+0x4>)
100014a6:	4770      	bx	lr
100014a8:	20000424 	.word	0x20000424

100014ac <alarm_pool_create_on_timer_with_unused_hardware_alarm>:
100014ac:	b5f8      	push	{r3, r4, r5, r6, r7, lr}
100014ae:	0005      	movs	r5, r0
100014b0:	2018      	movs	r0, #24
100014b2:	000f      	movs	r7, r1
100014b4:	f001 fd88 	bl	10002fc8 <__wrap_malloc>
100014b8:	1e04      	subs	r4, r0, #0
100014ba:	d03e      	beq.n	1000153a <alarm_pool_create_on_timer_with_unused_hardware_alarm+0x8e>
100014bc:	2118      	movs	r1, #24
100014be:	0038      	movs	r0, r7
100014c0:	f001 fda0 	bl	10003004 <__wrap_calloc>
100014c4:	2101      	movs	r1, #1
100014c6:	6160      	str	r0, [r4, #20]
100014c8:	0028      	movs	r0, r5
100014ca:	f000 fa73 	bl	100019b4 <timer_hardware_alarm_claim_unused>
100014ce:	60e5      	str	r5, [r4, #12]
100014d0:	0006      	movs	r6, r0
100014d2:	f7ff fa85 	bl	100009e0 <next_striped_spin_lock_num>
100014d6:	22d0      	movs	r2, #208	; 0xd0
100014d8:	7026      	strb	r6, [r4, #0]
100014da:	0612      	lsls	r2, r2, #24
100014dc:	6812      	ldr	r2, [r2, #0]
100014de:	4b18      	ldr	r3, [pc, #96]	; (10001540 <alarm_pool_create_on_timer_with_unused_hardware_alarm+0x94>)
100014e0:	7062      	strb	r2, [r4, #1]
100014e2:	469c      	mov	ip, r3
100014e4:	2201      	movs	r2, #1
100014e6:	b2bb      	uxth	r3, r7
100014e8:	4252      	negs	r2, r2
100014ea:	4460      	add	r0, ip
100014ec:	0080      	lsls	r0, r0, #2
100014ee:	8163      	strh	r3, [r4, #10]
100014f0:	189b      	adds	r3, r3, r2
100014f2:	6120      	str	r0, [r4, #16]
100014f4:	8122      	strh	r2, [r4, #8]
100014f6:	80a2      	strh	r2, [r4, #4]
100014f8:	8063      	strh	r3, [r4, #2]
100014fa:	2f00      	cmp	r7, #0
100014fc:	d00b      	beq.n	10001516 <alarm_pool_create_on_timer_with_unused_hardware_alarm+0x6a>
100014fe:	0079      	lsls	r1, r7, #1
10001500:	6962      	ldr	r2, [r4, #20]
10001502:	19c9      	adds	r1, r1, r7
10001504:	00c9      	lsls	r1, r1, #3
10001506:	4b0f      	ldr	r3, [pc, #60]	; (10001544 <alarm_pool_create_on_timer_with_unused_hardware_alarm+0x98>)
10001508:	1889      	adds	r1, r1, r2
1000150a:	8013      	strh	r3, [r2, #0]
1000150c:	3301      	adds	r3, #1
1000150e:	3218      	adds	r2, #24
10001510:	b29b      	uxth	r3, r3
10001512:	428a      	cmp	r2, r1
10001514:	d1f9      	bne.n	1000150a <alarm_pool_create_on_timer_with_unused_hardware_alarm+0x5e>
10001516:	2701      	movs	r7, #1
10001518:	40b7      	lsls	r7, r6
1000151a:	4b0b      	ldr	r3, [pc, #44]	; (10001548 <alarm_pool_create_on_timer_with_unused_hardware_alarm+0x9c>)
1000151c:	00b2      	lsls	r2, r6, #2
1000151e:	50d4      	str	r4, [r2, r3]
10001520:	0030      	movs	r0, r6
10001522:	490a      	ldr	r1, [pc, #40]	; (1000154c <alarm_pool_create_on_timer_with_unused_hardware_alarm+0xa0>)
10001524:	622f      	str	r7, [r5, #32]
10001526:	f7ff faad 	bl	10000a84 <irq_set_exclusive_handler>
1000152a:	2101      	movs	r1, #1
1000152c:	0030      	movs	r0, r6
1000152e:	f7ff fa83 	bl	10000a38 <irq_set_enabled>
10001532:	4b07      	ldr	r3, [pc, #28]	; (10001550 <alarm_pool_create_on_timer_with_unused_hardware_alarm+0xa4>)
10001534:	469c      	mov	ip, r3
10001536:	4465      	add	r5, ip
10001538:	602f      	str	r7, [r5, #0]
1000153a:	0020      	movs	r0, r4
1000153c:	bdf8      	pop	{r3, r4, r5, r6, r7, pc}
1000153e:	46c0      	nop			; (mov r8, r8)
10001540:	34000040 	.word	0x34000040
10001544:	0000ffff 	.word	0x0000ffff
10001548:	20001170 	.word	0x20001170
1000154c:	100010c1 	.word	0x100010c1
10001550:	00002038 	.word	0x00002038

10001554 <alarm_pool_destroy>:
10001554:	4b11      	ldr	r3, [pc, #68]	; (1000159c <alarm_pool_destroy+0x48>)
10001556:	b570      	push	{r4, r5, r6, lr}
10001558:	0004      	movs	r4, r0
1000155a:	4298      	cmp	r0, r3
1000155c:	d01d      	beq.n	1000159a <alarm_pool_destroy+0x46>
1000155e:	2201      	movs	r2, #1
10001560:	490f      	ldr	r1, [pc, #60]	; (100015a0 <alarm_pool_destroy+0x4c>)
10001562:	7805      	ldrb	r5, [r0, #0]
10001564:	468c      	mov	ip, r1
10001566:	40aa      	lsls	r2, r5
10001568:	68c3      	ldr	r3, [r0, #12]
1000156a:	2101      	movs	r1, #1
1000156c:	4463      	add	r3, ip
1000156e:	601a      	str	r2, [r3, #0]
10001570:	0028      	movs	r0, r5
10001572:	f7ff fa61 	bl	10000a38 <irq_set_enabled>
10001576:	490b      	ldr	r1, [pc, #44]	; (100015a4 <alarm_pool_destroy+0x50>)
10001578:	0028      	movs	r0, r5
1000157a:	f7ff fbc9 	bl	10000d10 <irq_remove_handler>
1000157e:	0028      	movs	r0, r5
10001580:	f000 fa10 	bl	100019a4 <hardware_alarm_unclaim>
10001584:	2100      	movs	r1, #0
10001586:	7823      	ldrb	r3, [r4, #0]
10001588:	4a07      	ldr	r2, [pc, #28]	; (100015a8 <alarm_pool_destroy+0x54>)
1000158a:	009b      	lsls	r3, r3, #2
1000158c:	6960      	ldr	r0, [r4, #20]
1000158e:	5099      	str	r1, [r3, r2]
10001590:	f001 fd5a 	bl	10003048 <__wrap_free>
10001594:	0020      	movs	r0, r4
10001596:	f001 fd57 	bl	10003048 <__wrap_free>
1000159a:	bd70      	pop	{r4, r5, r6, pc}
1000159c:	20000424 	.word	0x20000424
100015a0:	00003038 	.word	0x00003038
100015a4:	100010c1 	.word	0x100010c1
100015a8:	20001170 	.word	0x20001170

100015ac <alarm_pool_add_alarm_at>:
100015ac:	b5f8      	push	{r3, r4, r5, r6, r7, lr}
100015ae:	001f      	movs	r7, r3
100015b0:	ab08      	add	r3, sp, #32
100015b2:	781b      	ldrb	r3, [r3, #0]
100015b4:	0004      	movs	r4, r0
100015b6:	0016      	movs	r6, r2
100015b8:	2b00      	cmp	r3, #0
100015ba:	d107      	bne.n	100015cc <alarm_pool_add_alarm_at+0x20>
100015bc:	f000 fa12 	bl	100019e4 <time_us_64>
100015c0:	0032      	movs	r2, r6
100015c2:	003b      	movs	r3, r7
100015c4:	1a12      	subs	r2, r2, r0
100015c6:	418b      	sbcs	r3, r1
100015c8:	2b00      	cmp	r3, #0
100015ca:	db4c      	blt.n	10001666 <alarm_pool_add_alarm_at+0xba>
100015cc:	6922      	ldr	r2, [r4, #16]
100015ce:	f3ef 8010 	mrs	r0, PRIMASK
100015d2:	b672      	cpsid	i
100015d4:	6813      	ldr	r3, [r2, #0]
100015d6:	2b00      	cmp	r3, #0
100015d8:	d0fc      	beq.n	100015d4 <alarm_pool_add_alarm_at+0x28>
100015da:	f3bf 8f5f 	dmb	sy
100015de:	6962      	ldr	r2, [r4, #20]
100015e0:	2302      	movs	r3, #2
100015e2:	5ee1      	ldrsh	r1, [r4, r3]
100015e4:	4694      	mov	ip, r2
100015e6:	004b      	lsls	r3, r1, #1
100015e8:	185b      	adds	r3, r3, r1
100015ea:	00db      	lsls	r3, r3, #3
100015ec:	4463      	add	r3, ip
100015ee:	2900      	cmp	r1, #0
100015f0:	db01      	blt.n	100015f6 <alarm_pool_add_alarm_at+0x4a>
100015f2:	881a      	ldrh	r2, [r3, #0]
100015f4:	8062      	strh	r2, [r4, #2]
100015f6:	6922      	ldr	r2, [r4, #16]
100015f8:	f3bf 8f5f 	dmb	sy
100015fc:	2500      	movs	r5, #0
100015fe:	6015      	str	r5, [r2, #0]
10001600:	f380 8810 	msr	PRIMASK, r0
10001604:	2900      	cmp	r1, #0
10001606:	db30      	blt.n	1000166a <alarm_pool_add_alarm_at+0xbe>
10001608:	9a06      	ldr	r2, [sp, #24]
1000160a:	609e      	str	r6, [r3, #8]
1000160c:	60df      	str	r7, [r3, #12]
1000160e:	611a      	str	r2, [r3, #16]
10001610:	9a07      	ldr	r2, [sp, #28]
10001612:	615a      	str	r2, [r3, #20]
10001614:	885a      	ldrh	r2, [r3, #2]
10001616:	3201      	adds	r2, #1
10001618:	0452      	lsls	r2, r2, #17
1000161a:	0c52      	lsrs	r2, r2, #17
1000161c:	1c16      	adds	r6, r2, #0
1000161e:	2a00      	cmp	r2, #0
10001620:	d01f      	beq.n	10001662 <alarm_pool_add_alarm_at+0xb6>
10001622:	b2b0      	uxth	r0, r6
10001624:	040a      	lsls	r2, r1, #16
10001626:	805e      	strh	r6, [r3, #2]
10001628:	4310      	orrs	r0, r2
1000162a:	6926      	ldr	r6, [r4, #16]
1000162c:	f3ef 8510 	mrs	r5, PRIMASK
10001630:	b672      	cpsid	i
10001632:	6832      	ldr	r2, [r6, #0]
10001634:	2a00      	cmp	r2, #0
10001636:	d0fc      	beq.n	10001632 <alarm_pool_add_alarm_at+0x86>
10001638:	f3bf 8f5f 	dmb	sy
1000163c:	88a2      	ldrh	r2, [r4, #4]
1000163e:	801a      	strh	r2, [r3, #0]
10001640:	80a1      	strh	r1, [r4, #4]
10001642:	6923      	ldr	r3, [r4, #16]
10001644:	f3bf 8f5f 	dmb	sy
10001648:	2200      	movs	r2, #0
1000164a:	601a      	str	r2, [r3, #0]
1000164c:	f385 8810 	msr	PRIMASK, r5
10001650:	4907      	ldr	r1, [pc, #28]	; (10001670 <alarm_pool_add_alarm_at+0xc4>)
10001652:	7823      	ldrb	r3, [r4, #0]
10001654:	468c      	mov	ip, r1
10001656:	3201      	adds	r2, #1
10001658:	409a      	lsls	r2, r3
1000165a:	68e3      	ldr	r3, [r4, #12]
1000165c:	4463      	add	r3, ip
1000165e:	601a      	str	r2, [r3, #0]
10001660:	bdf8      	pop	{r3, r4, r5, r6, r7, pc}
10001662:	2601      	movs	r6, #1
10001664:	e7dd      	b.n	10001622 <alarm_pool_add_alarm_at+0x76>
10001666:	2000      	movs	r0, #0
10001668:	e7fa      	b.n	10001660 <alarm_pool_add_alarm_at+0xb4>
1000166a:	2001      	movs	r0, #1
1000166c:	4240      	negs	r0, r0
1000166e:	e7f7      	b.n	10001660 <alarm_pool_add_alarm_at+0xb4>
10001670:	0000203c 	.word	0x0000203c

10001674 <alarm_pool_add_alarm_at_force_in_context>:
10001674:	b570      	push	{r4, r5, r6, lr}
10001676:	46c6      	mov	lr, r8
10001678:	0001      	movs	r1, r0
1000167a:	b500      	push	{lr}
1000167c:	6904      	ldr	r4, [r0, #16]
1000167e:	f3ef 8c10 	mrs	ip, PRIMASK
10001682:	b672      	cpsid	i
10001684:	6820      	ldr	r0, [r4, #0]
10001686:	2800      	cmp	r0, #0
10001688:	d0fc      	beq.n	10001684 <alarm_pool_add_alarm_at_force_in_context+0x10>
1000168a:	f3bf 8f5f 	dmb	sy
1000168e:	2002      	movs	r0, #2
10001690:	5e0d      	ldrsh	r5, [r1, r0]
10001692:	6948      	ldr	r0, [r1, #20]
10001694:	006c      	lsls	r4, r5, #1
10001696:	4680      	mov	r8, r0
10001698:	1964      	adds	r4, r4, r5
1000169a:	00e4      	lsls	r4, r4, #3
1000169c:	4444      	add	r4, r8
1000169e:	2d00      	cmp	r5, #0
100016a0:	db01      	blt.n	100016a6 <alarm_pool_add_alarm_at_force_in_context+0x32>
100016a2:	8820      	ldrh	r0, [r4, #0]
100016a4:	8048      	strh	r0, [r1, #2]
100016a6:	6908      	ldr	r0, [r1, #16]
100016a8:	f3bf 8f5f 	dmb	sy
100016ac:	2600      	movs	r6, #0
100016ae:	6006      	str	r6, [r0, #0]
100016b0:	f38c 8810 	msr	PRIMASK, ip
100016b4:	2d00      	cmp	r5, #0
100016b6:	db30      	blt.n	1000171a <alarm_pool_add_alarm_at_force_in_context+0xa6>
100016b8:	60e3      	str	r3, [r4, #12]
100016ba:	8863      	ldrh	r3, [r4, #2]
100016bc:	9805      	ldr	r0, [sp, #20]
100016be:	3301      	adds	r3, #1
100016c0:	6120      	str	r0, [r4, #16]
100016c2:	045b      	lsls	r3, r3, #17
100016c4:	9806      	ldr	r0, [sp, #24]
100016c6:	0c5b      	lsrs	r3, r3, #17
100016c8:	60a2      	str	r2, [r4, #8]
100016ca:	6160      	str	r0, [r4, #20]
100016cc:	1c1a      	adds	r2, r3, #0
100016ce:	2b00      	cmp	r3, #0
100016d0:	d021      	beq.n	10001716 <alarm_pool_add_alarm_at_force_in_context+0xa2>
100016d2:	b290      	uxth	r0, r2
100016d4:	042b      	lsls	r3, r5, #16
100016d6:	8062      	strh	r2, [r4, #2]
100016d8:	4318      	orrs	r0, r3
100016da:	690a      	ldr	r2, [r1, #16]
100016dc:	f3ef 8610 	mrs	r6, PRIMASK
100016e0:	b672      	cpsid	i
100016e2:	6813      	ldr	r3, [r2, #0]
100016e4:	2b00      	cmp	r3, #0
100016e6:	d0fc      	beq.n	100016e2 <alarm_pool_add_alarm_at_force_in_context+0x6e>
100016e8:	f3bf 8f5f 	dmb	sy
100016ec:	888b      	ldrh	r3, [r1, #4]
100016ee:	8023      	strh	r3, [r4, #0]
100016f0:	808d      	strh	r5, [r1, #4]
100016f2:	690b      	ldr	r3, [r1, #16]
100016f4:	f3bf 8f5f 	dmb	sy
100016f8:	2200      	movs	r2, #0
100016fa:	601a      	str	r2, [r3, #0]
100016fc:	f386 8810 	msr	PRIMASK, r6
10001700:	780b      	ldrb	r3, [r1, #0]
10001702:	3201      	adds	r2, #1
10001704:	409a      	lsls	r2, r3
10001706:	68cb      	ldr	r3, [r1, #12]
10001708:	4905      	ldr	r1, [pc, #20]	; (10001720 <alarm_pool_add_alarm_at_force_in_context+0xac>)
1000170a:	468c      	mov	ip, r1
1000170c:	4463      	add	r3, ip
1000170e:	601a      	str	r2, [r3, #0]
10001710:	bc40      	pop	{r6}
10001712:	46b0      	mov	r8, r6
10001714:	bd70      	pop	{r4, r5, r6, pc}
10001716:	2201      	movs	r2, #1
10001718:	e7db      	b.n	100016d2 <alarm_pool_add_alarm_at_force_in_context+0x5e>
1000171a:	2001      	movs	r0, #1
1000171c:	4240      	negs	r0, r0
1000171e:	e7f7      	b.n	10001710 <alarm_pool_add_alarm_at_force_in_context+0x9c>
10001720:	0000203c 	.word	0x0000203c

10001724 <alarm_pool_cancel_alarm>:
10001724:	b510      	push	{r4, lr}
10001726:	8943      	ldrh	r3, [r0, #10]
10001728:	140a      	asrs	r2, r1, #16
1000172a:	4293      	cmp	r3, r2
1000172c:	dd33      	ble.n	10001796 <alarm_pool_cancel_alarm+0x72>
1000172e:	0053      	lsls	r3, r2, #1
10001730:	189b      	adds	r3, r3, r2
10001732:	6942      	ldr	r2, [r0, #20]
10001734:	00db      	lsls	r3, r3, #3
10001736:	4694      	mov	ip, r2
10001738:	6904      	ldr	r4, [r0, #16]
1000173a:	4463      	add	r3, ip
1000173c:	f3ef 8c10 	mrs	ip, PRIMASK
10001740:	b672      	cpsid	i
10001742:	6822      	ldr	r2, [r4, #0]
10001744:	2a00      	cmp	r2, #0
10001746:	d0fc      	beq.n	10001742 <alarm_pool_cancel_alarm+0x1e>
10001748:	f3bf 8f5f 	dmb	sy
1000174c:	885a      	ldrh	r2, [r3, #2]
1000174e:	0409      	lsls	r1, r1, #16
10001750:	b294      	uxth	r4, r2
10001752:	0c09      	lsrs	r1, r1, #16
10001754:	428a      	cmp	r2, r1
10001756:	d008      	beq.n	1000176a <alarm_pool_cancel_alarm+0x46>
10001758:	6903      	ldr	r3, [r0, #16]
1000175a:	f3bf 8f5f 	dmb	sy
1000175e:	2200      	movs	r2, #0
10001760:	601a      	str	r2, [r3, #0]
10001762:	f38c 8810 	msr	PRIMASK, ip
10001766:	2000      	movs	r0, #0
10001768:	bd10      	pop	{r4, pc}
1000176a:	2280      	movs	r2, #128	; 0x80
1000176c:	0212      	lsls	r2, r2, #8
1000176e:	4314      	orrs	r4, r2
10001770:	805c      	strh	r4, [r3, #2]
10001772:	2301      	movs	r3, #1
10001774:	6902      	ldr	r2, [r0, #16]
10001776:	7183      	strb	r3, [r0, #6]
10001778:	f3bf 8f5f 	dmb	sy
1000177c:	2100      	movs	r1, #0
1000177e:	6011      	str	r1, [r2, #0]
10001780:	f38c 8810 	msr	PRIMASK, ip
10001784:	4905      	ldr	r1, [pc, #20]	; (1000179c <alarm_pool_cancel_alarm+0x78>)
10001786:	7802      	ldrb	r2, [r0, #0]
10001788:	468c      	mov	ip, r1
1000178a:	4093      	lsls	r3, r2
1000178c:	68c2      	ldr	r2, [r0, #12]
1000178e:	2001      	movs	r0, #1
10001790:	4462      	add	r2, ip
10001792:	6013      	str	r3, [r2, #0]
10001794:	e7e8      	b.n	10001768 <alarm_pool_cancel_alarm+0x44>
10001796:	2000      	movs	r0, #0
10001798:	e7e6      	b.n	10001768 <alarm_pool_cancel_alarm+0x44>
1000179a:	46c0      	nop			; (mov r8, r8)
1000179c:	0000203c 	.word	0x0000203c

100017a0 <alarm_pool_core_num>:
100017a0:	7840      	ldrb	r0, [r0, #1]
100017a2:	4770      	bx	lr

100017a4 <sleep_until>:
100017a4:	b5f0      	push	{r4, r5, r6, r7, lr}
100017a6:	0004      	movs	r4, r0
100017a8:	000d      	movs	r5, r1
100017aa:	2606      	movs	r6, #6
100017ac:	4276      	negs	r6, r6
100017ae:	17f7      	asrs	r7, r6, #31
100017b0:	46c6      	mov	lr, r8
100017b2:	1936      	adds	r6, r6, r4
100017b4:	416f      	adcs	r7, r5
100017b6:	b500      	push	{lr}
100017b8:	b082      	sub	sp, #8
100017ba:	428f      	cmp	r7, r1
100017bc:	d814      	bhi.n	100017e8 <sleep_until+0x44>
100017be:	d011      	beq.n	100017e4 <sleep_until+0x40>
100017c0:	f000 f910 	bl	100019e4 <time_us_64>
100017c4:	0032      	movs	r2, r6
100017c6:	003b      	movs	r3, r7
100017c8:	1a12      	subs	r2, r2, r0
100017ca:	418b      	sbcs	r3, r1
100017cc:	2b00      	cmp	r3, #0
100017ce:	dc15      	bgt.n	100017fc <sleep_until+0x58>
100017d0:	2b00      	cmp	r3, #0
100017d2:	d044      	beq.n	1000185e <sleep_until+0xba>
100017d4:	0020      	movs	r0, r4
100017d6:	0029      	movs	r1, r5
100017d8:	f000 f938 	bl	10001a4c <busy_wait_until>
100017dc:	b002      	add	sp, #8
100017de:	bc80      	pop	{r7}
100017e0:	46b8      	mov	r8, r7
100017e2:	bdf0      	pop	{r4, r5, r6, r7, pc}
100017e4:	4286      	cmp	r6, r0
100017e6:	d9eb      	bls.n	100017c0 <sleep_until+0x1c>
100017e8:	2600      	movs	r6, #0
100017ea:	2700      	movs	r7, #0
100017ec:	f000 f8fa 	bl	100019e4 <time_us_64>
100017f0:	0032      	movs	r2, r6
100017f2:	003b      	movs	r3, r7
100017f4:	1a12      	subs	r2, r2, r0
100017f6:	418b      	sbcs	r3, r1
100017f8:	2b00      	cmp	r3, #0
100017fa:	dde9      	ble.n	100017d0 <sleep_until+0x2c>
100017fc:	f000 f8f2 	bl	100019e4 <time_us_64>
10001800:	0032      	movs	r2, r6
10001802:	003b      	movs	r3, r7
10001804:	1a12      	subs	r2, r2, r0
10001806:	418b      	sbcs	r3, r1
10001808:	2b00      	cmp	r3, #0
1000180a:	db0a      	blt.n	10001822 <sleep_until+0x7e>
1000180c:	2300      	movs	r3, #0
1000180e:	9301      	str	r3, [sp, #4]
10001810:	4b14      	ldr	r3, [pc, #80]	; (10001864 <sleep_until+0xc0>)
10001812:	0032      	movs	r2, r6
10001814:	9300      	str	r3, [sp, #0]
10001816:	4814      	ldr	r0, [pc, #80]	; (10001868 <sleep_until+0xc4>)
10001818:	003b      	movs	r3, r7
1000181a:	f7ff ff2b 	bl	10001674 <alarm_pool_add_alarm_at_force_in_context>
1000181e:	2800      	cmp	r0, #0
10001820:	dbd8      	blt.n	100017d4 <sleep_until+0x30>
10001822:	46b0      	mov	r8, r6
10001824:	2600      	movs	r6, #0
10001826:	46bc      	mov	ip, r7
10001828:	4a10      	ldr	r2, [pc, #64]	; (1000186c <sleep_until+0xc8>)
1000182a:	4f11      	ldr	r7, [pc, #68]	; (10001870 <sleep_until+0xcc>)
1000182c:	6a7b      	ldr	r3, [r7, #36]	; 0x24
1000182e:	459c      	cmp	ip, r3
10001830:	d804      	bhi.n	1000183c <sleep_until+0x98>
10001832:	6ab9      	ldr	r1, [r7, #40]	; 0x28
10001834:	4588      	cmp	r8, r1
10001836:	d9cd      	bls.n	100017d4 <sleep_until+0x30>
10001838:	459c      	cmp	ip, r3
1000183a:	d1cb      	bne.n	100017d4 <sleep_until+0x30>
1000183c:	6811      	ldr	r1, [r2, #0]
1000183e:	f3ef 8010 	mrs	r0, PRIMASK
10001842:	b672      	cpsid	i
10001844:	680b      	ldr	r3, [r1, #0]
10001846:	2b00      	cmp	r3, #0
10001848:	d0fc      	beq.n	10001844 <sleep_until+0xa0>
1000184a:	f3bf 8f5f 	dmb	sy
1000184e:	6813      	ldr	r3, [r2, #0]
10001850:	f3bf 8f5f 	dmb	sy
10001854:	601e      	str	r6, [r3, #0]
10001856:	f380 8810 	msr	PRIMASK, r0
1000185a:	bf20      	wfe
1000185c:	e7e6      	b.n	1000182c <sleep_until+0x88>
1000185e:	2a00      	cmp	r2, #0
10001860:	d0b8      	beq.n	100017d4 <sleep_until+0x30>
10001862:	e7cb      	b.n	100017fc <sleep_until+0x58>
10001864:	10001091 	.word	0x10001091
10001868:	20000424 	.word	0x20000424
1000186c:	20001184 	.word	0x20001184
10001870:	40054000 	.word	0x40054000

10001874 <sleep_ms>:
10001874:	b570      	push	{r4, r5, r6, lr}
10001876:	0006      	movs	r6, r0
10001878:	f000 f8b4 	bl	100019e4 <time_us_64>
1000187c:	22fa      	movs	r2, #250	; 0xfa
1000187e:	0004      	movs	r4, r0
10001880:	000d      	movs	r5, r1
10001882:	2300      	movs	r3, #0
10001884:	0030      	movs	r0, r6
10001886:	2100      	movs	r1, #0
10001888:	0092      	lsls	r2, r2, #2
1000188a:	f001 fae9 	bl	10002e60 <__wrap___aeabi_lmul>
1000188e:	1900      	adds	r0, r0, r4
10001890:	4169      	adcs	r1, r5
10001892:	2900      	cmp	r1, #0
10001894:	db02      	blt.n	1000189c <sleep_ms+0x28>
10001896:	f7ff ff85 	bl	100017a4 <sleep_until>
1000189a:	bd70      	pop	{r4, r5, r6, pc}
1000189c:	2001      	movs	r0, #1
1000189e:	4901      	ldr	r1, [pc, #4]	; (100018a4 <sleep_ms+0x30>)
100018a0:	4240      	negs	r0, r0
100018a2:	e7f8      	b.n	10001896 <sleep_ms+0x22>
100018a4:	7fffffff 	.word	0x7fffffff

100018a8 <best_effort_wfe_or_timeout>:
100018a8:	b5f0      	push	{r4, r5, r6, r7, lr}
100018aa:	46ce      	mov	lr, r9
100018ac:	4647      	mov	r7, r8
100018ae:	b580      	push	{r7, lr}
100018b0:	0004      	movs	r4, r0
100018b2:	000d      	movs	r5, r1
100018b4:	b083      	sub	sp, #12
100018b6:	f3ef 8705 	mrs	r7, IPSR
100018ba:	2f00      	cmp	r7, #0
100018bc:	d13b      	bne.n	10001936 <best_effort_wfe_or_timeout+0x8e>
100018be:	4e2f      	ldr	r6, [pc, #188]	; (1000197c <best_effort_wfe_or_timeout+0xd4>)
100018c0:	4681      	mov	r9, r0
100018c2:	7833      	ldrb	r3, [r6, #0]
100018c4:	68f2      	ldr	r2, [r6, #12]
100018c6:	3304      	adds	r3, #4
100018c8:	009b      	lsls	r3, r3, #2
100018ca:	6a91      	ldr	r1, [r2, #40]	; 0x28
100018cc:	589b      	ldr	r3, [r3, r2]
100018ce:	1a42      	subs	r2, r0, r1
100018d0:	1a5b      	subs	r3, r3, r1
100018d2:	429a      	cmp	r2, r3
100018d4:	d30e      	bcc.n	100018f4 <best_effort_wfe_or_timeout+0x4c>
100018d6:	bf20      	wfe
100018d8:	4a29      	ldr	r2, [pc, #164]	; (10001980 <best_effort_wfe_or_timeout+0xd8>)
100018da:	2000      	movs	r0, #0
100018dc:	6a53      	ldr	r3, [r2, #36]	; 0x24
100018de:	42ab      	cmp	r3, r5
100018e0:	d303      	bcc.n	100018ea <best_effort_wfe_or_timeout+0x42>
100018e2:	6a92      	ldr	r2, [r2, #40]	; 0x28
100018e4:	3001      	adds	r0, #1
100018e6:	4591      	cmp	r9, r2
100018e8:	d83c      	bhi.n	10001964 <best_effort_wfe_or_timeout+0xbc>
100018ea:	b003      	add	sp, #12
100018ec:	bcc0      	pop	{r6, r7}
100018ee:	46b9      	mov	r9, r7
100018f0:	46b0      	mov	r8, r6
100018f2:	bdf0      	pop	{r4, r5, r6, r7, pc}
100018f4:	f000 f876 	bl	100019e4 <time_us_64>
100018f8:	0022      	movs	r2, r4
100018fa:	002b      	movs	r3, r5
100018fc:	1a12      	subs	r2, r2, r0
100018fe:	418b      	sbcs	r3, r1
10001900:	2b00      	cmp	r3, #0
10001902:	db26      	blt.n	10001952 <best_effort_wfe_or_timeout+0xaa>
10001904:	4b1f      	ldr	r3, [pc, #124]	; (10001984 <best_effort_wfe_or_timeout+0xdc>)
10001906:	0022      	movs	r2, r4
10001908:	9300      	str	r3, [sp, #0]
1000190a:	0030      	movs	r0, r6
1000190c:	002b      	movs	r3, r5
1000190e:	9701      	str	r7, [sp, #4]
10001910:	f7ff feb0 	bl	10001674 <alarm_pool_add_alarm_at_force_in_context>
10001914:	1e01      	subs	r1, r0, #0
10001916:	dd1c      	ble.n	10001952 <best_effort_wfe_or_timeout+0xaa>
10001918:	4b19      	ldr	r3, [pc, #100]	; (10001980 <best_effort_wfe_or_timeout+0xd8>)
1000191a:	46a8      	mov	r8, r5
1000191c:	6a5a      	ldr	r2, [r3, #36]	; 0x24
1000191e:	4295      	cmp	r5, r2
10001920:	d925      	bls.n	1000196e <best_effort_wfe_or_timeout+0xc6>
10001922:	bf20      	wfe
10001924:	0030      	movs	r0, r6
10001926:	f7ff fefd 	bl	10001724 <alarm_pool_cancel_alarm>
1000192a:	4a15      	ldr	r2, [pc, #84]	; (10001980 <best_effort_wfe_or_timeout+0xd8>)
1000192c:	2000      	movs	r0, #0
1000192e:	6a53      	ldr	r3, [r2, #36]	; 0x24
10001930:	4598      	cmp	r8, r3
10001932:	d8da      	bhi.n	100018ea <best_effort_wfe_or_timeout+0x42>
10001934:	e7d5      	b.n	100018e2 <best_effort_wfe_or_timeout+0x3a>
10001936:	4a12      	ldr	r2, [pc, #72]	; (10001980 <best_effort_wfe_or_timeout+0xd8>)
10001938:	2000      	movs	r0, #0
1000193a:	6a53      	ldr	r3, [r2, #36]	; 0x24
1000193c:	428b      	cmp	r3, r1
1000193e:	d3d4      	bcc.n	100018ea <best_effort_wfe_or_timeout+0x42>
10001940:	6a92      	ldr	r2, [r2, #40]	; 0x28
10001942:	3001      	adds	r0, #1
10001944:	42a2      	cmp	r2, r4
10001946:	d2d0      	bcs.n	100018ea <best_effort_wfe_or_timeout+0x42>
10001948:	1a58      	subs	r0, r3, r1
1000194a:	1e42      	subs	r2, r0, #1
1000194c:	4190      	sbcs	r0, r2
1000194e:	b2c0      	uxtb	r0, r0
10001950:	e7cb      	b.n	100018ea <best_effort_wfe_or_timeout+0x42>
10001952:	4a0b      	ldr	r2, [pc, #44]	; (10001980 <best_effort_wfe_or_timeout+0xd8>)
10001954:	2000      	movs	r0, #0
10001956:	6a53      	ldr	r3, [r2, #36]	; 0x24
10001958:	42ab      	cmp	r3, r5
1000195a:	d3c6      	bcc.n	100018ea <best_effort_wfe_or_timeout+0x42>
1000195c:	6a92      	ldr	r2, [r2, #40]	; 0x28
1000195e:	2001      	movs	r0, #1
10001960:	4591      	cmp	r9, r2
10001962:	d9c2      	bls.n	100018ea <best_effort_wfe_or_timeout+0x42>
10001964:	1ae8      	subs	r0, r5, r3
10001966:	1e42      	subs	r2, r0, #1
10001968:	4190      	sbcs	r0, r2
1000196a:	b2c0      	uxtb	r0, r0
1000196c:	e7bd      	b.n	100018ea <best_effort_wfe_or_timeout+0x42>
1000196e:	6a9b      	ldr	r3, [r3, #40]	; 0x28
10001970:	429c      	cmp	r4, r3
10001972:	d9d7      	bls.n	10001924 <best_effort_wfe_or_timeout+0x7c>
10001974:	4295      	cmp	r5, r2
10001976:	d1d5      	bne.n	10001924 <best_effort_wfe_or_timeout+0x7c>
10001978:	e7d3      	b.n	10001922 <best_effort_wfe_or_timeout+0x7a>
1000197a:	46c0      	nop			; (mov r8, r8)
1000197c:	20000424 	.word	0x20000424
10001980:	40054000 	.word	0x40054000
10001984:	10001091 	.word	0x10001091

10001988 <alarm_pool_get_default_timer>:
10001988:	4800      	ldr	r0, [pc, #0]	; (1000198c <alarm_pool_get_default_timer+0x4>)
1000198a:	4770      	bx	lr
1000198c:	40054000 	.word	0x40054000

10001990 <timer_hardware_alarm_claim>:
10001990:	b510      	push	{r4, lr}
10001992:	4a02      	ldr	r2, [pc, #8]	; (1000199c <timer_hardware_alarm_claim+0xc>)
10001994:	4802      	ldr	r0, [pc, #8]	; (100019a0 <timer_hardware_alarm_claim+0x10>)
10001996:	f7fe ff97 	bl	100008c8 <hw_claim_or_assert>
1000199a:	bd10      	pop	{r4, pc}
1000199c:	10006360 	.word	0x10006360
100019a0:	20001114 	.word	0x20001114

100019a4 <hardware_alarm_unclaim>:
100019a4:	b510      	push	{r4, lr}
100019a6:	0001      	movs	r1, r0
100019a8:	4801      	ldr	r0, [pc, #4]	; (100019b0 <hardware_alarm_unclaim+0xc>)
100019aa:	f7fe fffd 	bl	100009a8 <hw_claim_clear>
100019ae:	bd10      	pop	{r4, pc}
100019b0:	20001114 	.word	0x20001114

100019b4 <timer_hardware_alarm_claim_unused>:
100019b4:	b500      	push	{lr}
100019b6:	4b05      	ldr	r3, [pc, #20]	; (100019cc <timer_hardware_alarm_claim_unused+0x18>)
100019b8:	b083      	sub	sp, #12
100019ba:	9300      	str	r3, [sp, #0]
100019bc:	2200      	movs	r2, #0
100019be:	2303      	movs	r3, #3
100019c0:	4803      	ldr	r0, [pc, #12]	; (100019d0 <timer_hardware_alarm_claim_unused+0x1c>)
100019c2:	f7fe ffa3 	bl	1000090c <hw_claim_unused_from_range>
100019c6:	b003      	add	sp, #12
100019c8:	bd00      	pop	{pc}
100019ca:	46c0      	nop			; (mov r8, r8)
100019cc:	10006384 	.word	0x10006384
100019d0:	20001114 	.word	0x20001114

100019d4 <timer_time_us_64>:
100019d4:	0003      	movs	r3, r0
100019d6:	6a41      	ldr	r1, [r0, #36]	; 0x24
100019d8:	000a      	movs	r2, r1
100019da:	6a98      	ldr	r0, [r3, #40]	; 0x28
100019dc:	6a59      	ldr	r1, [r3, #36]	; 0x24
100019de:	428a      	cmp	r2, r1
100019e0:	d1fa      	bne.n	100019d8 <timer_time_us_64+0x4>
100019e2:	4770      	bx	lr

100019e4 <time_us_64>:
100019e4:	4b03      	ldr	r3, [pc, #12]	; (100019f4 <time_us_64+0x10>)
100019e6:	6a59      	ldr	r1, [r3, #36]	; 0x24
100019e8:	000a      	movs	r2, r1
100019ea:	6a98      	ldr	r0, [r3, #40]	; 0x28
100019ec:	6a59      	ldr	r1, [r3, #36]	; 0x24
100019ee:	4291      	cmp	r1, r2
100019f0:	d1fa      	bne.n	100019e8 <time_us_64+0x4>
100019f2:	4770      	bx	lr
100019f4:	40054000 	.word	0x40054000

100019f8 <busy_wait_us>:
100019f8:	b570      	push	{r4, r5, r6, lr}
100019fa:	0004      	movs	r4, r0
100019fc:	000d      	movs	r5, r1
100019fe:	4a12      	ldr	r2, [pc, #72]	; (10001a48 <busy_wait_us+0x50>)
10001a00:	6a53      	ldr	r3, [r2, #36]	; 0x24
10001a02:	0019      	movs	r1, r3
10001a04:	6a96      	ldr	r6, [r2, #40]	; 0x28
10001a06:	6a53      	ldr	r3, [r2, #36]	; 0x24
10001a08:	428b      	cmp	r3, r1
10001a0a:	d1fa      	bne.n	10001a02 <busy_wait_us+0xa>
10001a0c:	0030      	movs	r0, r6
10001a0e:	0019      	movs	r1, r3
10001a10:	1824      	adds	r4, r4, r0
10001a12:	414d      	adcs	r5, r1
10001a14:	42ab      	cmp	r3, r5
10001a16:	d811      	bhi.n	10001a3c <busy_wait_us+0x44>
10001a18:	d00e      	beq.n	10001a38 <busy_wait_us+0x40>
10001a1a:	002b      	movs	r3, r5
10001a1c:	490a      	ldr	r1, [pc, #40]	; (10001a48 <busy_wait_us+0x50>)
10001a1e:	6a4a      	ldr	r2, [r1, #36]	; 0x24
10001a20:	429a      	cmp	r2, r3
10001a22:	d3fc      	bcc.n	10001a1e <busy_wait_us+0x26>
10001a24:	d107      	bne.n	10001a36 <busy_wait_us+0x3e>
10001a26:	4a08      	ldr	r2, [pc, #32]	; (10001a48 <busy_wait_us+0x50>)
10001a28:	e002      	b.n	10001a30 <busy_wait_us+0x38>
10001a2a:	6a51      	ldr	r1, [r2, #36]	; 0x24
10001a2c:	4299      	cmp	r1, r3
10001a2e:	d102      	bne.n	10001a36 <busy_wait_us+0x3e>
10001a30:	6a91      	ldr	r1, [r2, #40]	; 0x28
10001a32:	42a1      	cmp	r1, r4
10001a34:	d3f9      	bcc.n	10001a2a <busy_wait_us+0x32>
10001a36:	bd70      	pop	{r4, r5, r6, pc}
10001a38:	42a6      	cmp	r6, r4
10001a3a:	d9ee      	bls.n	10001a1a <busy_wait_us+0x22>
10001a3c:	2301      	movs	r3, #1
10001a3e:	2401      	movs	r4, #1
10001a40:	4264      	negs	r4, r4
10001a42:	17e5      	asrs	r5, r4, #31
10001a44:	425b      	negs	r3, r3
10001a46:	e7e9      	b.n	10001a1c <busy_wait_us+0x24>
10001a48:	40054000 	.word	0x40054000

10001a4c <busy_wait_until>:
10001a4c:	4a06      	ldr	r2, [pc, #24]	; (10001a68 <busy_wait_until+0x1c>)
10001a4e:	6a53      	ldr	r3, [r2, #36]	; 0x24
10001a50:	4299      	cmp	r1, r3
10001a52:	d8fc      	bhi.n	10001a4e <busy_wait_until+0x2>
10001a54:	d107      	bne.n	10001a66 <busy_wait_until+0x1a>
10001a56:	4b04      	ldr	r3, [pc, #16]	; (10001a68 <busy_wait_until+0x1c>)
10001a58:	e002      	b.n	10001a60 <busy_wait_until+0x14>
10001a5a:	6a5a      	ldr	r2, [r3, #36]	; 0x24
10001a5c:	4291      	cmp	r1, r2
10001a5e:	d102      	bne.n	10001a66 <busy_wait_until+0x1a>
10001a60:	6a9a      	ldr	r2, [r3, #40]	; 0x28
10001a62:	4282      	cmp	r2, r0
10001a64:	d3f9      	bcc.n	10001a5a <busy_wait_until+0xe>
10001a66:	4770      	bx	lr
10001a68:	40054000 	.word	0x40054000

10001a6c <queue_init_with_spinlock>:
10001a6c:	b570      	push	{r4, r5, r6, lr}
10001a6e:	0016      	movs	r6, r2
10001a70:	000d      	movs	r5, r1
10001a72:	0019      	movs	r1, r3
10001a74:	0004      	movs	r4, r0
10001a76:	f7ff fac9 	bl	1000100c <lock_init>
10001a7a:	0029      	movs	r1, r5
10001a7c:	1c70      	adds	r0, r6, #1
10001a7e:	f001 fac1 	bl	10003004 <__wrap_calloc>
10001a82:	2300      	movs	r3, #0
10001a84:	81e6      	strh	r6, [r4, #14]
10001a86:	81a5      	strh	r5, [r4, #12]
10001a88:	6060      	str	r0, [r4, #4]
10001a8a:	60a3      	str	r3, [r4, #8]
10001a8c:	bd70      	pop	{r4, r5, r6, pc}
10001a8e:	46c0      	nop			; (mov r8, r8)

10001a90 <queue_free>:
10001a90:	b510      	push	{r4, lr}
10001a92:	6840      	ldr	r0, [r0, #4]
10001a94:	f001 fad8 	bl	10003048 <__wrap_free>
10001a98:	bd10      	pop	{r4, pc}
10001a9a:	46c0      	nop			; (mov r8, r8)

10001a9c <queue_try_add>:
10001a9c:	b570      	push	{r4, r5, r6, lr}
10001a9e:	6802      	ldr	r2, [r0, #0]
10001aa0:	0004      	movs	r4, r0
10001aa2:	f3ef 8510 	mrs	r5, PRIMASK
10001aa6:	b672      	cpsid	i
10001aa8:	6813      	ldr	r3, [r2, #0]
10001aaa:	2b00      	cmp	r3, #0
10001aac:	d0fc      	beq.n	10001aa8 <queue_try_add+0xc>
10001aae:	f3bf 8f5f 	dmb	sy
10001ab2:	8920      	ldrh	r0, [r4, #8]
10001ab4:	8963      	ldrh	r3, [r4, #10]
10001ab6:	89e2      	ldrh	r2, [r4, #14]
10001ab8:	1ac3      	subs	r3, r0, r3
10001aba:	d501      	bpl.n	10001ac0 <queue_try_add+0x24>
10001abc:	1c56      	adds	r6, r2, #1
10001abe:	199b      	adds	r3, r3, r6
10001ac0:	4293      	cmp	r3, r2
10001ac2:	d108      	bne.n	10001ad6 <queue_try_add+0x3a>
10001ac4:	6823      	ldr	r3, [r4, #0]
10001ac6:	f3bf 8f5f 	dmb	sy
10001aca:	2200      	movs	r2, #0
10001acc:	601a      	str	r2, [r3, #0]
10001ace:	f385 8810 	msr	PRIMASK, r5
10001ad2:	2000      	movs	r0, #0
10001ad4:	bd70      	pop	{r4, r5, r6, pc}
10001ad6:	6863      	ldr	r3, [r4, #4]
10001ad8:	89a2      	ldrh	r2, [r4, #12]
10001ada:	469c      	mov	ip, r3
10001adc:	4350      	muls	r0, r2
10001ade:	4460      	add	r0, ip
10001ae0:	f001 fad0 	bl	10003084 <__wrap___aeabi_memcpy>
10001ae4:	2200      	movs	r2, #0
10001ae6:	0010      	movs	r0, r2
10001ae8:	8923      	ldrh	r3, [r4, #8]
10001aea:	89e1      	ldrh	r1, [r4, #14]
10001aec:	3301      	adds	r3, #1
10001aee:	b29b      	uxth	r3, r3
10001af0:	4299      	cmp	r1, r3
10001af2:	4150      	adcs	r0, r2
10001af4:	4241      	negs	r1, r0
10001af6:	400b      	ands	r3, r1
10001af8:	8123      	strh	r3, [r4, #8]
10001afa:	6823      	ldr	r3, [r4, #0]
10001afc:	f3bf 8f5f 	dmb	sy
10001b00:	601a      	str	r2, [r3, #0]
10001b02:	f385 8810 	msr	PRIMASK, r5
10001b06:	bf40      	sev
10001b08:	2001      	movs	r0, #1
10001b0a:	e7e3      	b.n	10001ad4 <queue_try_add+0x38>

10001b0c <queue_try_remove>:
10001b0c:	b570      	push	{r4, r5, r6, lr}
10001b0e:	0004      	movs	r4, r0
10001b10:	0008      	movs	r0, r1
10001b12:	6822      	ldr	r2, [r4, #0]
10001b14:	f3ef 8610 	mrs	r6, PRIMASK
10001b18:	b672      	cpsid	i
10001b1a:	6813      	ldr	r3, [r2, #0]
10001b1c:	2b00      	cmp	r3, #0
10001b1e:	d0fc      	beq.n	10001b1a <queue_try_remove+0xe>
10001b20:	f3bf 8f5f 	dmb	sy
10001b24:	8965      	ldrh	r5, [r4, #10]
10001b26:	8923      	ldrh	r3, [r4, #8]
10001b28:	1b5b      	subs	r3, r3, r5
10001b2a:	d502      	bpl.n	10001b32 <queue_try_remove+0x26>
10001b2c:	89e2      	ldrh	r2, [r4, #14]
10001b2e:	3201      	adds	r2, #1
10001b30:	189b      	adds	r3, r3, r2
10001b32:	2b00      	cmp	r3, #0
10001b34:	d107      	bne.n	10001b46 <queue_try_remove+0x3a>
10001b36:	6822      	ldr	r2, [r4, #0]
10001b38:	f3bf 8f5f 	dmb	sy
10001b3c:	6013      	str	r3, [r2, #0]
10001b3e:	f386 8810 	msr	PRIMASK, r6
10001b42:	2000      	movs	r0, #0
10001b44:	bd70      	pop	{r4, r5, r6, pc}
10001b46:	2800      	cmp	r0, #0
10001b48:	d006      	beq.n	10001b58 <queue_try_remove+0x4c>
10001b4a:	89a2      	ldrh	r2, [r4, #12]
10001b4c:	6863      	ldr	r3, [r4, #4]
10001b4e:	4355      	muls	r5, r2
10001b50:	1959      	adds	r1, r3, r5
10001b52:	f001 fa97 	bl	10003084 <__wrap___aeabi_memcpy>
10001b56:	8965      	ldrh	r5, [r4, #10]
10001b58:	2300      	movs	r3, #0
10001b5a:	0019      	movs	r1, r3
10001b5c:	89e2      	ldrh	r2, [r4, #14]
10001b5e:	3501      	adds	r5, #1
10001b60:	b2ad      	uxth	r5, r5
10001b62:	42aa      	cmp	r2, r5
10001b64:	4159      	adcs	r1, r3
10001b66:	424a      	negs	r2, r1
10001b68:	4015      	ands	r5, r2
10001b6a:	8165      	strh	r5, [r4, #10]
10001b6c:	6822      	ldr	r2, [r4, #0]
10001b6e:	f3bf 8f5f 	dmb	sy
10001b72:	6013      	str	r3, [r2, #0]
10001b74:	f386 8810 	msr	PRIMASK, r6
10001b78:	bf40      	sev
10001b7a:	2001      	movs	r0, #1
10001b7c:	e7e2      	b.n	10001b44 <queue_try_remove+0x38>
10001b7e:	46c0      	nop			; (mov r8, r8)

10001b80 <uart_init>:
10001b80:	b5f8      	push	{r3, r4, r5, r6, r7, lr}
10001b82:	0004      	movs	r4, r0
10001b84:	2006      	movs	r0, #6
10001b86:	000d      	movs	r5, r1
10001b88:	f000 f988 	bl	10001e9c <clock_get_hz>
10001b8c:	2800      	cmp	r0, #0
10001b8e:	d042      	beq.n	10001c16 <uart_init+0x96>
10001b90:	4b36      	ldr	r3, [pc, #216]	; (10001c6c <uart_init+0xec>)
10001b92:	4937      	ldr	r1, [pc, #220]	; (10001c70 <uart_init+0xf0>)
10001b94:	18e2      	adds	r2, r4, r3
10001b96:	4253      	negs	r3, r2
10001b98:	415a      	adcs	r2, r3
10001b9a:	2380      	movs	r3, #128	; 0x80
10001b9c:	03db      	lsls	r3, r3, #15
10001b9e:	469c      	mov	ip, r3
10001ba0:	0592      	lsls	r2, r2, #22
10001ba2:	4b34      	ldr	r3, [pc, #208]	; (10001c74 <uart_init+0xf4>)
10001ba4:	4462      	add	r2, ip
10001ba6:	601a      	str	r2, [r3, #0]
10001ba8:	4b33      	ldr	r3, [pc, #204]	; (10001c78 <uart_init+0xf8>)
10001baa:	601a      	str	r2, [r3, #0]
10001bac:	0010      	movs	r0, r2
10001bae:	680b      	ldr	r3, [r1, #0]
10001bb0:	4398      	bics	r0, r3
10001bb2:	d1fb      	bne.n	10001bac <uart_init+0x2c>
10001bb4:	4b2d      	ldr	r3, [pc, #180]	; (10001c6c <uart_init+0xec>)
10001bb6:	2180      	movs	r1, #128	; 0x80
10001bb8:	18e3      	adds	r3, r4, r3
10001bba:	425a      	negs	r2, r3
10001bbc:	4153      	adcs	r3, r2
10001bbe:	4a2f      	ldr	r2, [pc, #188]	; (10001c7c <uart_init+0xfc>)
10001bc0:	005b      	lsls	r3, r3, #1
10001bc2:	0049      	lsls	r1, r1, #1
10001bc4:	5299      	strh	r1, [r3, r2]
10001bc6:	2006      	movs	r0, #6
10001bc8:	f000 f968 	bl	10001e9c <clock_get_hz>
10001bcc:	0029      	movs	r1, r5
10001bce:	00c0      	lsls	r0, r0, #3
10001bd0:	f000 fb24 	bl	1000221c <__wrap___aeabi_uidiv>
10001bd4:	3001      	adds	r0, #1
10001bd6:	09c3      	lsrs	r3, r0, #7
10001bd8:	d11e      	bne.n	10001c18 <uart_init+0x98>
10001bda:	2740      	movs	r7, #64	; 0x40
10001bdc:	2201      	movs	r2, #1
10001bde:	6262      	str	r2, [r4, #36]	; 0x24
10001be0:	62a3      	str	r3, [r4, #40]	; 0x28
10001be2:	6b26      	ldr	r6, [r4, #48]	; 0x30
10001be4:	07f3      	lsls	r3, r6, #31
10001be6:	d422      	bmi.n	10001c2e <uart_init+0xae>
10001be8:	6ae3      	ldr	r3, [r4, #44]	; 0x2c
10001bea:	4b25      	ldr	r3, [pc, #148]	; (10001c80 <uart_init+0x100>)
10001bec:	2006      	movs	r0, #6
10001bee:	18e5      	adds	r5, r4, r3
10001bf0:	2300      	movs	r3, #0
10001bf2:	602b      	str	r3, [r5, #0]
10001bf4:	6326      	str	r6, [r4, #48]	; 0x30
10001bf6:	f000 f951 	bl	10001e9c <clock_get_hz>
10001bfa:	0039      	movs	r1, r7
10001bfc:	0080      	lsls	r0, r0, #2
10001bfe:	f000 fb0d 	bl	1000221c <__wrap___aeabi_uidiv>
10001c02:	2270      	movs	r2, #112	; 0x70
10001c04:	6ae3      	ldr	r3, [r4, #44]	; 0x2c
10001c06:	405a      	eors	r2, r3
10001c08:	237e      	movs	r3, #126	; 0x7e
10001c0a:	4013      	ands	r3, r2
10001c0c:	602b      	str	r3, [r5, #0]
10001c0e:	4b1d      	ldr	r3, [pc, #116]	; (10001c84 <uart_init+0x104>)
10001c10:	6323      	str	r3, [r4, #48]	; 0x30
10001c12:	2303      	movs	r3, #3
10001c14:	64a3      	str	r3, [r4, #72]	; 0x48
10001c16:	bdf8      	pop	{r3, r4, r5, r6, r7, pc}
10001c18:	4a1b      	ldr	r2, [pc, #108]	; (10001c88 <uart_init+0x108>)
10001c1a:	4293      	cmp	r3, r2
10001c1c:	d91e      	bls.n	10001c5c <uart_init+0xdc>
10001c1e:	2300      	movs	r3, #0
10001c20:	4a1a      	ldr	r2, [pc, #104]	; (10001c8c <uart_init+0x10c>)
10001c22:	4f1b      	ldr	r7, [pc, #108]	; (10001c90 <uart_init+0x110>)
10001c24:	6262      	str	r2, [r4, #36]	; 0x24
10001c26:	62a3      	str	r3, [r4, #40]	; 0x28
10001c28:	6b26      	ldr	r6, [r4, #48]	; 0x30
10001c2a:	07f3      	lsls	r3, r6, #31
10001c2c:	d5dc      	bpl.n	10001be8 <uart_init+0x68>
10001c2e:	4b19      	ldr	r3, [pc, #100]	; (10001c94 <uart_init+0x114>)
10001c30:	4a14      	ldr	r2, [pc, #80]	; (10001c84 <uart_init+0x104>)
10001c32:	18e3      	adds	r3, r4, r3
10001c34:	601a      	str	r2, [r3, #0]
10001c36:	6a65      	ldr	r5, [r4, #36]	; 0x24
10001c38:	6aa2      	ldr	r2, [r4, #40]	; 0x28
10001c3a:	2006      	movs	r0, #6
10001c3c:	01ad      	lsls	r5, r5, #6
10001c3e:	18ad      	adds	r5, r5, r2
10001c40:	f000 f92c 	bl	10001e9c <clock_get_hz>
10001c44:	4914      	ldr	r1, [pc, #80]	; (10001c98 <uart_init+0x118>)
10001c46:	f000 fae9 	bl	1000221c <__wrap___aeabi_uidiv>
10001c4a:	02ad      	lsls	r5, r5, #10
10001c4c:	0001      	movs	r1, r0
10001c4e:	0028      	movs	r0, r5
10001c50:	f000 fae4 	bl	1000221c <__wrap___aeabi_uidiv>
10001c54:	2100      	movs	r1, #0
10001c56:	f7ff fecf 	bl	100019f8 <busy_wait_us>
10001c5a:	e7c5      	b.n	10001be8 <uart_init+0x68>
10001c5c:	0640      	lsls	r0, r0, #25
10001c5e:	0e80      	lsrs	r0, r0, #26
10001c60:	019f      	lsls	r7, r3, #6
10001c62:	001a      	movs	r2, r3
10001c64:	183f      	adds	r7, r7, r0
10001c66:	0003      	movs	r3, r0
10001c68:	e7b9      	b.n	10001bde <uart_init+0x5e>
10001c6a:	46c0      	nop			; (mov r8, r8)
10001c6c:	bffc8000 	.word	0xbffc8000
10001c70:	4000c008 	.word	0x4000c008
10001c74:	4000e000 	.word	0x4000e000
10001c78:	4000f000 	.word	0x4000f000
10001c7c:	200011cc 	.word	0x200011cc
10001c80:	0000102c 	.word	0x0000102c
10001c84:	00000301 	.word	0x00000301
10001c88:	0000fffe 	.word	0x0000fffe
10001c8c:	0000ffff 	.word	0x0000ffff
10001c90:	003fffc0 	.word	0x003fffc0
10001c94:	00003030 	.word	0x00003030
10001c98:	00000e4e 	.word	0x00000e4e

10001c9c <uart_deinit>:
10001c9c:	4b06      	ldr	r3, [pc, #24]	; (10001cb8 <uart_deinit+0x1c>)
10001c9e:	469c      	mov	ip, r3
10001ca0:	4460      	add	r0, ip
10001ca2:	4243      	negs	r3, r0
10001ca4:	4158      	adcs	r0, r3
10001ca6:	2380      	movs	r3, #128	; 0x80
10001ca8:	03db      	lsls	r3, r3, #15
10001caa:	469c      	mov	ip, r3
10001cac:	0580      	lsls	r0, r0, #22
10001cae:	4b03      	ldr	r3, [pc, #12]	; (10001cbc <uart_deinit+0x20>)
10001cb0:	4460      	add	r0, ip
10001cb2:	6018      	str	r0, [r3, #0]
10001cb4:	4770      	bx	lr
10001cb6:	46c0      	nop			; (mov r8, r8)
10001cb8:	bffc8000 	.word	0xbffc8000
10001cbc:	4000e000 	.word	0x4000e000

10001cc0 <clock_configure_int_divider>:
10001cc0:	b5f8      	push	{r3, r4, r5, r6, r7, lr}
10001cc2:	46de      	mov	lr, fp
10001cc4:	464e      	mov	r6, r9
10001cc6:	4657      	mov	r7, sl
10001cc8:	4645      	mov	r5, r8
10001cca:	b5e0      	push	{r5, r6, r7, lr}
10001ccc:	468b      	mov	fp, r1
10001cce:	0005      	movs	r5, r0
10001cd0:	990a      	ldr	r1, [sp, #40]	; 0x28
10001cd2:	0018      	movs	r0, r3
10001cd4:	0016      	movs	r6, r2
10001cd6:	f000 faa1 	bl	1000221c <__wrap___aeabi_uidiv>
10001cda:	9b0a      	ldr	r3, [sp, #40]	; 0x28
10001cdc:	006c      	lsls	r4, r5, #1
10001cde:	021f      	lsls	r7, r3, #8
10001ce0:	4b32      	ldr	r3, [pc, #200]	; (10001dac <clock_configure_int_divider+0xec>)
10001ce2:	1964      	adds	r4, r4, r5
10001ce4:	469c      	mov	ip, r3
10001ce6:	00a4      	lsls	r4, r4, #2
10001ce8:	4464      	add	r4, ip
10001cea:	6863      	ldr	r3, [r4, #4]
10001cec:	4681      	mov	r9, r0
10001cee:	429f      	cmp	r7, r3
10001cf0:	d900      	bls.n	10001cf4 <clock_configure_int_divider+0x34>
10001cf2:	6067      	str	r7, [r4, #4]
10001cf4:	1f2b      	subs	r3, r5, #4
10001cf6:	b2db      	uxtb	r3, r3
10001cf8:	4698      	mov	r8, r3
10001cfa:	2b01      	cmp	r3, #1
10001cfc:	d930      	bls.n	10001d60 <clock_configure_int_divider+0xa0>
10001cfe:	23c0      	movs	r3, #192	; 0xc0
10001d00:	2280      	movs	r2, #128	; 0x80
10001d02:	019b      	lsls	r3, r3, #6
10001d04:	18e3      	adds	r3, r4, r3
10001d06:	0112      	lsls	r2, r2, #4
10001d08:	601a      	str	r2, [r3, #0]
10001d0a:	4b29      	ldr	r3, [pc, #164]	; (10001db0 <clock_configure_int_divider+0xf0>)
10001d0c:	00ad      	lsls	r5, r5, #2
10001d0e:	5959      	ldr	r1, [r3, r5]
10001d10:	469a      	mov	sl, r3
10001d12:	2900      	cmp	r1, #0
10001d14:	d11b      	bne.n	10001d4e <clock_configure_int_divider+0x8e>
10001d16:	6822      	ldr	r2, [r4, #0]
10001d18:	0176      	lsls	r6, r6, #5
10001d1a:	4072      	eors	r2, r6
10001d1c:	26e0      	movs	r6, #224	; 0xe0
10001d1e:	2380      	movs	r3, #128	; 0x80
10001d20:	4016      	ands	r6, r2
10001d22:	4642      	mov	r2, r8
10001d24:	015b      	lsls	r3, r3, #5
10001d26:	18e3      	adds	r3, r4, r3
10001d28:	601e      	str	r6, [r3, #0]
10001d2a:	2a01      	cmp	r2, #1
10001d2c:	d930      	bls.n	10001d90 <clock_configure_int_divider+0xd0>
10001d2e:	2380      	movs	r3, #128	; 0x80
10001d30:	2280      	movs	r2, #128	; 0x80
10001d32:	019b      	lsls	r3, r3, #6
10001d34:	18e3      	adds	r3, r4, r3
10001d36:	0112      	lsls	r2, r2, #4
10001d38:	601a      	str	r2, [r3, #0]
10001d3a:	4653      	mov	r3, sl
10001d3c:	464a      	mov	r2, r9
10001d3e:	6067      	str	r7, [r4, #4]
10001d40:	515a      	str	r2, [r3, r5]
10001d42:	bcf0      	pop	{r4, r5, r6, r7}
10001d44:	46bb      	mov	fp, r7
10001d46:	46b2      	mov	sl, r6
10001d48:	46a9      	mov	r9, r5
10001d4a:	46a0      	mov	r8, r4
10001d4c:	bdf8      	pop	{r3, r4, r5, r6, r7, pc}
10001d4e:	6958      	ldr	r0, [r3, #20]
10001d50:	f000 fa64 	bl	1000221c <__wrap___aeabi_uidiv>
10001d54:	1c43      	adds	r3, r0, #1
10001d56:	0058      	lsls	r0, r3, #1
10001d58:	18c0      	adds	r0, r0, r3
10001d5a:	3803      	subs	r0, #3
10001d5c:	d2fd      	bcs.n	10001d5a <clock_configure_int_divider+0x9a>
10001d5e:	e7da      	b.n	10001d16 <clock_configure_int_divider+0x56>
10001d60:	465b      	mov	r3, fp
10001d62:	2b01      	cmp	r3, #1
10001d64:	d1cb      	bne.n	10001cfe <clock_configure_int_divider+0x3e>
10001d66:	23c0      	movs	r3, #192	; 0xc0
10001d68:	2203      	movs	r2, #3
10001d6a:	019b      	lsls	r3, r3, #6
10001d6c:	18e3      	adds	r3, r4, r3
10001d6e:	601a      	str	r2, [r3, #0]
10001d70:	3a02      	subs	r2, #2
10001d72:	68a3      	ldr	r3, [r4, #8]
10001d74:	421a      	tst	r2, r3
10001d76:	d0fc      	beq.n	10001d72 <clock_configure_int_divider+0xb2>
10001d78:	23e0      	movs	r3, #224	; 0xe0
10001d7a:	6822      	ldr	r2, [r4, #0]
10001d7c:	0176      	lsls	r6, r6, #5
10001d7e:	4056      	eors	r6, r2
10001d80:	401e      	ands	r6, r3
10001d82:	2380      	movs	r3, #128	; 0x80
10001d84:	4a0a      	ldr	r2, [pc, #40]	; (10001db0 <clock_configure_int_divider+0xf0>)
10001d86:	015b      	lsls	r3, r3, #5
10001d88:	4692      	mov	sl, r2
10001d8a:	18e3      	adds	r3, r4, r3
10001d8c:	601e      	str	r6, [r3, #0]
10001d8e:	00ad      	lsls	r5, r5, #2
10001d90:	465a      	mov	r2, fp
10001d92:	6821      	ldr	r1, [r4, #0]
10001d94:	4051      	eors	r1, r2
10001d96:	2203      	movs	r2, #3
10001d98:	400a      	ands	r2, r1
10001d9a:	601a      	str	r2, [r3, #0]
10001d9c:	2201      	movs	r2, #1
10001d9e:	465b      	mov	r3, fp
10001da0:	409a      	lsls	r2, r3
10001da2:	68a3      	ldr	r3, [r4, #8]
10001da4:	421a      	tst	r2, r3
10001da6:	d0fc      	beq.n	10001da2 <clock_configure_int_divider+0xe2>
10001da8:	e7c1      	b.n	10001d2e <clock_configure_int_divider+0x6e>
10001daa:	46c0      	nop			; (mov r8, r8)
10001dac:	40008000 	.word	0x40008000
10001db0:	2000111c 	.word	0x2000111c

10001db4 <clock_configure_undivided>:
10001db4:	b5f0      	push	{r4, r5, r6, r7, lr}
10001db6:	4646      	mov	r6, r8
10001db8:	464f      	mov	r7, r9
10001dba:	46d6      	mov	lr, sl
10001dbc:	b5c0      	push	{r6, r7, lr}
10001dbe:	001f      	movs	r7, r3
10001dc0:	4b34      	ldr	r3, [pc, #208]	; (10001e94 <clock_configure_undivided+0xe0>)
10001dc2:	0044      	lsls	r4, r0, #1
10001dc4:	469c      	mov	ip, r3
10001dc6:	1824      	adds	r4, r4, r0
10001dc8:	00a4      	lsls	r4, r4, #2
10001dca:	4464      	add	r4, ip
10001dcc:	6863      	ldr	r3, [r4, #4]
10001dce:	4688      	mov	r8, r1
10001dd0:	0016      	movs	r6, r2
10001dd2:	2bff      	cmp	r3, #255	; 0xff
10001dd4:	d802      	bhi.n	10001ddc <clock_configure_undivided+0x28>
10001dd6:	2380      	movs	r3, #128	; 0x80
10001dd8:	005b      	lsls	r3, r3, #1
10001dda:	6063      	str	r3, [r4, #4]
10001ddc:	1f03      	subs	r3, r0, #4
10001dde:	b2db      	uxtb	r3, r3
10001de0:	469a      	mov	sl, r3
10001de2:	2b01      	cmp	r3, #1
10001de4:	d930      	bls.n	10001e48 <clock_configure_undivided+0x94>
10001de6:	23c0      	movs	r3, #192	; 0xc0
10001de8:	2280      	movs	r2, #128	; 0x80
10001dea:	019b      	lsls	r3, r3, #6
10001dec:	18e3      	adds	r3, r4, r3
10001dee:	0112      	lsls	r2, r2, #4
10001df0:	601a      	str	r2, [r3, #0]
10001df2:	4b29      	ldr	r3, [pc, #164]	; (10001e98 <clock_configure_undivided+0xe4>)
10001df4:	0085      	lsls	r5, r0, #2
10001df6:	5959      	ldr	r1, [r3, r5]
10001df8:	4699      	mov	r9, r3
10001dfa:	2900      	cmp	r1, #0
10001dfc:	d11b      	bne.n	10001e36 <clock_configure_undivided+0x82>
10001dfe:	6822      	ldr	r2, [r4, #0]
10001e00:	0176      	lsls	r6, r6, #5
10001e02:	4072      	eors	r2, r6
10001e04:	26e0      	movs	r6, #224	; 0xe0
10001e06:	2380      	movs	r3, #128	; 0x80
10001e08:	4016      	ands	r6, r2
10001e0a:	4652      	mov	r2, sl
10001e0c:	015b      	lsls	r3, r3, #5
10001e0e:	18e3      	adds	r3, r4, r3
10001e10:	601e      	str	r6, [r3, #0]
10001e12:	2a01      	cmp	r2, #1
10001e14:	d930      	bls.n	10001e78 <clock_configure_undivided+0xc4>
10001e16:	2380      	movs	r3, #128	; 0x80
10001e18:	2280      	movs	r2, #128	; 0x80
10001e1a:	019b      	lsls	r3, r3, #6
10001e1c:	18e3      	adds	r3, r4, r3
10001e1e:	0112      	lsls	r2, r2, #4
10001e20:	601a      	str	r2, [r3, #0]
10001e22:	2380      	movs	r3, #128	; 0x80
10001e24:	005b      	lsls	r3, r3, #1
10001e26:	6063      	str	r3, [r4, #4]
10001e28:	464b      	mov	r3, r9
10001e2a:	515f      	str	r7, [r3, r5]
10001e2c:	bce0      	pop	{r5, r6, r7}
10001e2e:	46ba      	mov	sl, r7
10001e30:	46b1      	mov	r9, r6
10001e32:	46a8      	mov	r8, r5
10001e34:	bdf0      	pop	{r4, r5, r6, r7, pc}
10001e36:	6958      	ldr	r0, [r3, #20]
10001e38:	f000 f9f0 	bl	1000221c <__wrap___aeabi_uidiv>
10001e3c:	1c43      	adds	r3, r0, #1
10001e3e:	0058      	lsls	r0, r3, #1
10001e40:	18c0      	adds	r0, r0, r3
10001e42:	3803      	subs	r0, #3
10001e44:	d2fd      	bcs.n	10001e42 <clock_configure_undivided+0x8e>
10001e46:	e7da      	b.n	10001dfe <clock_configure_undivided+0x4a>
10001e48:	4643      	mov	r3, r8
10001e4a:	2b01      	cmp	r3, #1
10001e4c:	d1cb      	bne.n	10001de6 <clock_configure_undivided+0x32>
10001e4e:	23c0      	movs	r3, #192	; 0xc0
10001e50:	2203      	movs	r2, #3
10001e52:	019b      	lsls	r3, r3, #6
10001e54:	18e3      	adds	r3, r4, r3
10001e56:	601a      	str	r2, [r3, #0]
10001e58:	3a02      	subs	r2, #2
10001e5a:	68a3      	ldr	r3, [r4, #8]
10001e5c:	421a      	tst	r2, r3
10001e5e:	d0fc      	beq.n	10001e5a <clock_configure_undivided+0xa6>
10001e60:	23e0      	movs	r3, #224	; 0xe0
10001e62:	6822      	ldr	r2, [r4, #0]
10001e64:	0176      	lsls	r6, r6, #5
10001e66:	4056      	eors	r6, r2
10001e68:	401e      	ands	r6, r3
10001e6a:	2380      	movs	r3, #128	; 0x80
10001e6c:	4a0a      	ldr	r2, [pc, #40]	; (10001e98 <clock_configure_undivided+0xe4>)
10001e6e:	015b      	lsls	r3, r3, #5
10001e70:	4691      	mov	r9, r2
10001e72:	18e3      	adds	r3, r4, r3
10001e74:	601e      	str	r6, [r3, #0]
10001e76:	0085      	lsls	r5, r0, #2
10001e78:	4642      	mov	r2, r8
10001e7a:	6821      	ldr	r1, [r4, #0]
10001e7c:	4051      	eors	r1, r2
10001e7e:	2203      	movs	r2, #3
10001e80:	400a      	ands	r2, r1
10001e82:	601a      	str	r2, [r3, #0]
10001e84:	2301      	movs	r3, #1
10001e86:	4642      	mov	r2, r8
10001e88:	4093      	lsls	r3, r2
10001e8a:	68a2      	ldr	r2, [r4, #8]
10001e8c:	4213      	tst	r3, r2
10001e8e:	d0fc      	beq.n	10001e8a <clock_configure_undivided+0xd6>
10001e90:	e7c1      	b.n	10001e16 <clock_configure_undivided+0x62>
10001e92:	46c0      	nop			; (mov r8, r8)
10001e94:	40008000 	.word	0x40008000
10001e98:	2000111c 	.word	0x2000111c

10001e9c <clock_get_hz>:
10001e9c:	4b01      	ldr	r3, [pc, #4]	; (10001ea4 <clock_get_hz+0x8>)
10001e9e:	0080      	lsls	r0, r0, #2
10001ea0:	58c0      	ldr	r0, [r0, r3]
10001ea2:	4770      	bx	lr
10001ea4:	2000111c 	.word	0x2000111c

10001ea8 <pll_init>:
10001ea8:	b5f8      	push	{r3, r4, r5, r6, r7, lr}
10001eaa:	0004      	movs	r4, r0
10001eac:	4820      	ldr	r0, [pc, #128]	; (10001f30 <pll_init+0x88>)
10001eae:	001d      	movs	r5, r3
10001eb0:	0017      	movs	r7, r2
10001eb2:	000e      	movs	r6, r1
10001eb4:	f000 f9b2 	bl	1000221c <__wrap___aeabi_uidiv>
10001eb8:	0001      	movs	r1, r0
10001eba:	0038      	movs	r0, r7
10001ebc:	f000 f9ae 	bl	1000221c <__wrap___aeabi_uidiv>
10001ec0:	9b06      	ldr	r3, [sp, #24]
10001ec2:	0429      	lsls	r1, r5, #16
10001ec4:	031b      	lsls	r3, r3, #12
10001ec6:	4319      	orrs	r1, r3
10001ec8:	6823      	ldr	r3, [r4, #0]
10001eca:	2b00      	cmp	r3, #0
10001ecc:	db1e      	blt.n	10001f0c <pll_init+0x64>
10001ece:	4b19      	ldr	r3, [pc, #100]	; (10001f34 <pll_init+0x8c>)
10001ed0:	4d19      	ldr	r5, [pc, #100]	; (10001f38 <pll_init+0x90>)
10001ed2:	18e2      	adds	r2, r4, r3
10001ed4:	4253      	negs	r3, r2
10001ed6:	415a      	adcs	r2, r3
10001ed8:	2380      	movs	r3, #128	; 0x80
10001eda:	015b      	lsls	r3, r3, #5
10001edc:	469c      	mov	ip, r3
10001ede:	0312      	lsls	r2, r2, #12
10001ee0:	4b16      	ldr	r3, [pc, #88]	; (10001f3c <pll_init+0x94>)
10001ee2:	4462      	add	r2, ip
10001ee4:	601a      	str	r2, [r3, #0]
10001ee6:	4b16      	ldr	r3, [pc, #88]	; (10001f40 <pll_init+0x98>)
10001ee8:	601a      	str	r2, [r3, #0]
10001eea:	0017      	movs	r7, r2
10001eec:	682b      	ldr	r3, [r5, #0]
10001eee:	439f      	bics	r7, r3
10001ef0:	d1fb      	bne.n	10001eea <pll_init+0x42>
10001ef2:	4b14      	ldr	r3, [pc, #80]	; (10001f44 <pll_init+0x9c>)
10001ef4:	6026      	str	r6, [r4, #0]
10001ef6:	18e2      	adds	r2, r4, r3
10001ef8:	2321      	movs	r3, #33	; 0x21
10001efa:	60a0      	str	r0, [r4, #8]
10001efc:	6013      	str	r3, [r2, #0]
10001efe:	6823      	ldr	r3, [r4, #0]
10001f00:	2b00      	cmp	r3, #0
10001f02:	dafc      	bge.n	10001efe <pll_init+0x56>
10001f04:	2308      	movs	r3, #8
10001f06:	60e1      	str	r1, [r4, #12]
10001f08:	6013      	str	r3, [r2, #0]
10001f0a:	bdf8      	pop	{r3, r4, r5, r6, r7, pc}
10001f0c:	233f      	movs	r3, #63	; 0x3f
10001f0e:	6822      	ldr	r2, [r4, #0]
10001f10:	4013      	ands	r3, r2
10001f12:	42b3      	cmp	r3, r6
10001f14:	d1db      	bne.n	10001ece <pll_init+0x26>
10001f16:	68a3      	ldr	r3, [r4, #8]
10001f18:	051b      	lsls	r3, r3, #20
10001f1a:	0d1b      	lsrs	r3, r3, #20
10001f1c:	4283      	cmp	r3, r0
10001f1e:	d1d6      	bne.n	10001ece <pll_init+0x26>
10001f20:	22ee      	movs	r2, #238	; 0xee
10001f22:	68e3      	ldr	r3, [r4, #12]
10001f24:	02d2      	lsls	r2, r2, #11
10001f26:	4013      	ands	r3, r2
10001f28:	428b      	cmp	r3, r1
10001f2a:	d1d0      	bne.n	10001ece <pll_init+0x26>
10001f2c:	e7ed      	b.n	10001f0a <pll_init+0x62>
10001f2e:	46c0      	nop			; (mov r8, r8)
10001f30:	00b71b00 	.word	0x00b71b00
10001f34:	bffd4000 	.word	0xbffd4000
10001f38:	4000c008 	.word	0x4000c008
10001f3c:	4000e000 	.word	0x4000e000
10001f40:	4000f000 	.word	0x4000f000
10001f44:	00003004 	.word	0x00003004

10001f48 <tick_start>:
10001f48:	2380      	movs	r3, #128	; 0x80
10001f4a:	4a02      	ldr	r2, [pc, #8]	; (10001f54 <tick_start+0xc>)
10001f4c:	009b      	lsls	r3, r3, #2
10001f4e:	430b      	orrs	r3, r1
10001f50:	62d3      	str	r3, [r2, #44]	; 0x2c
10001f52:	4770      	bx	lr
10001f54:	40058000 	.word	0x40058000

10001f58 <rom_func_lookup>:
10001f58:	2314      	movs	r3, #20
10001f5a:	b510      	push	{r4, lr}
10001f5c:	0001      	movs	r1, r0
10001f5e:	8818      	ldrh	r0, [r3, #0]
10001f60:	3304      	adds	r3, #4
10001f62:	881b      	ldrh	r3, [r3, #0]
10001f64:	4798      	blx	r3
10001f66:	bd10      	pop	{r4, pc}

10001f68 <rom_data_lookup>:
10001f68:	2316      	movs	r3, #22
10001f6a:	b510      	push	{r4, lr}
10001f6c:	0001      	movs	r1, r0
10001f6e:	8818      	ldrh	r0, [r3, #0]
10001f70:	3302      	adds	r3, #2
10001f72:	881b      	ldrh	r3, [r3, #0]
10001f74:	4798      	blx	r3
10001f76:	bd10      	pop	{r4, pc}

10001f78 <rom_funcs_lookup>:
10001f78:	b5f8      	push	{r3, r4, r5, r6, r7, lr}
10001f7a:	4647      	mov	r7, r8
10001f7c:	46ce      	mov	lr, r9
10001f7e:	b580      	push	{r7, lr}
10001f80:	1e0f      	subs	r7, r1, #0
10001f82:	d019      	beq.n	10001fb8 <rom_funcs_lookup+0x40>
10001f84:	2314      	movs	r3, #20
10001f86:	4699      	mov	r9, r3
10001f88:	3304      	adds	r3, #4
10001f8a:	0004      	movs	r4, r0
10001f8c:	2500      	movs	r5, #0
10001f8e:	2601      	movs	r6, #1
10001f90:	4698      	mov	r8, r3
10001f92:	464b      	mov	r3, r9
10001f94:	8818      	ldrh	r0, [r3, #0]
10001f96:	4643      	mov	r3, r8
10001f98:	6821      	ldr	r1, [r4, #0]
10001f9a:	881b      	ldrh	r3, [r3, #0]
10001f9c:	4798      	blx	r3
10001f9e:	c401      	stmia	r4!, {r0}
10001fa0:	1e43      	subs	r3, r0, #1
10001fa2:	4198      	sbcs	r0, r3
10001fa4:	3501      	adds	r5, #1
10001fa6:	4240      	negs	r0, r0
10001fa8:	4006      	ands	r6, r0
10001faa:	42af      	cmp	r7, r5
10001fac:	d1f1      	bne.n	10001f92 <rom_funcs_lookup+0x1a>
10001fae:	0030      	movs	r0, r6
10001fb0:	bcc0      	pop	{r6, r7}
10001fb2:	46b9      	mov	r9, r7
10001fb4:	46b0      	mov	r8, r6
10001fb6:	bdf8      	pop	{r3, r4, r5, r6, r7, pc}
10001fb8:	2601      	movs	r6, #1
10001fba:	e7f8      	b.n	10001fae <rom_funcs_lookup+0x36>

10001fbc <xosc_init>:
10001fbc:	23aa      	movs	r3, #170	; 0xaa
10001fbe:	4a06      	ldr	r2, [pc, #24]	; (10001fd8 <xosc_init+0x1c>)
10001fc0:	011b      	lsls	r3, r3, #4
10001fc2:	6013      	str	r3, [r2, #0]
10001fc4:	232f      	movs	r3, #47	; 0x2f
10001fc6:	4905      	ldr	r1, [pc, #20]	; (10001fdc <xosc_init+0x20>)
10001fc8:	60d3      	str	r3, [r2, #12]
10001fca:	4b05      	ldr	r3, [pc, #20]	; (10001fe0 <xosc_init+0x24>)
10001fcc:	6019      	str	r1, [r3, #0]
10001fce:	6853      	ldr	r3, [r2, #4]
10001fd0:	2b00      	cmp	r3, #0
10001fd2:	dafc      	bge.n	10001fce <xosc_init+0x12>
10001fd4:	4770      	bx	lr
10001fd6:	46c0      	nop			; (mov r8, r8)
10001fd8:	40024000 	.word	0x40024000
10001fdc:	00fab000 	.word	0x00fab000
10001fe0:	40026000 	.word	0x40026000

10001fe4 <first_per_core_initializer>:
10001fe4:	4770      	bx	lr
10001fe6:	46c0      	nop			; (mov r8, r8)

10001fe8 <hard_assertion_failure>:
10001fe8:	b510      	push	{r4, lr}
10001fea:	4801      	ldr	r0, [pc, #4]	; (10001ff0 <hard_assertion_failure+0x8>)
10001fec:	f7fe fc3e 	bl	1000086c <panic>
10001ff0:	10006398 	.word	0x10006398

10001ff4 <runtime_run_initializers>:
10001ff4:	b570      	push	{r4, r5, r6, lr}
10001ff6:	4d07      	ldr	r5, [pc, #28]	; (10002014 <runtime_run_initializers+0x20>)
10001ff8:	4e07      	ldr	r6, [pc, #28]	; (10002018 <runtime_run_initializers+0x24>)
10001ffa:	42b5      	cmp	r5, r6
10001ffc:	d209      	bcs.n	10002012 <runtime_run_initializers+0x1e>
10001ffe:	2400      	movs	r4, #0
10002000:	3e01      	subs	r6, #1
10002002:	1b76      	subs	r6, r6, r5
10002004:	08b6      	lsrs	r6, r6, #2
10002006:	cd08      	ldmia	r5!, {r3}
10002008:	4798      	blx	r3
1000200a:	0023      	movs	r3, r4
1000200c:	3401      	adds	r4, #1
1000200e:	42b3      	cmp	r3, r6
10002010:	d1f9      	bne.n	10002006 <runtime_run_initializers+0x12>
10002012:	bd70      	pop	{r4, r5, r6, pc}
10002014:	10006220 	.word	0x10006220
10002018:	1000625c 	.word	0x1000625c

1000201c <runtime_run_per_core_initializers>:
1000201c:	b570      	push	{r4, r5, r6, lr}
1000201e:	4d07      	ldr	r5, [pc, #28]	; (1000203c <runtime_run_per_core_initializers+0x20>)
10002020:	4e07      	ldr	r6, [pc, #28]	; (10002040 <runtime_run_per_core_initializers+0x24>)
10002022:	42b5      	cmp	r5, r6
10002024:	d209      	bcs.n	1000203a <runtime_run_per_core_initializers+0x1e>
10002026:	2400      	movs	r4, #0
10002028:	3e01      	subs	r6, #1
1000202a:	1b76      	subs	r6, r6, r5
1000202c:	08b6      	lsrs	r6, r6, #2
1000202e:	cd08      	ldmia	r5!, {r3}
10002030:	4798      	blx	r3
10002032:	0023      	movs	r3, r4
10002034:	3401      	adds	r4, #1
10002036:	42b3      	cmp	r3, r6
10002038:	d1f9      	bne.n	1000202e <runtime_run_per_core_initializers+0x12>
1000203a:	bd70      	pop	{r4, r5, r6, pc}
1000203c:	10006254 	.word	0x10006254
10002040:	1000625c 	.word	0x1000625c

10002044 <runtime_init_early_resets>:
10002044:	4b05      	ldr	r3, [pc, #20]	; (1000205c <runtime_init_early_resets+0x18>)
10002046:	4a06      	ldr	r2, [pc, #24]	; (10002060 <runtime_init_early_resets+0x1c>)
10002048:	4906      	ldr	r1, [pc, #24]	; (10002064 <runtime_init_early_resets+0x20>)
1000204a:	601a      	str	r2, [r3, #0]
1000204c:	4a06      	ldr	r2, [pc, #24]	; (10002068 <runtime_init_early_resets+0x24>)
1000204e:	4b07      	ldr	r3, [pc, #28]	; (1000206c <runtime_init_early_resets+0x28>)
10002050:	601a      	str	r2, [r3, #0]
10002052:	0010      	movs	r0, r2
10002054:	680b      	ldr	r3, [r1, #0]
10002056:	4398      	bics	r0, r3
10002058:	d1fb      	bne.n	10002052 <runtime_init_early_resets+0xe>
1000205a:	4770      	bx	lr
1000205c:	4000e000 	.word	0x4000e000
10002060:	fefbcdbf 	.word	0xfefbcdbf
10002064:	4000c008 	.word	0x4000c008
10002068:	003c7ffe 	.word	0x003c7ffe
1000206c:	4000f000 	.word	0x4000f000

10002070 <runtime_init_usb_power_down>:
10002070:	4b04      	ldr	r3, [pc, #16]	; (10002084 <runtime_init_usb_power_down+0x14>)
10002072:	6cdb      	ldr	r3, [r3, #76]	; 0x4c
10002074:	2b00      	cmp	r3, #0
10002076:	d103      	bne.n	10002080 <runtime_init_usb_power_down+0x10>
10002078:	2280      	movs	r2, #128	; 0x80
1000207a:	4b03      	ldr	r3, [pc, #12]	; (10002088 <runtime_init_usb_power_down+0x18>)
1000207c:	02d2      	lsls	r2, r2, #11
1000207e:	601a      	str	r2, [r3, #0]
10002080:	4770      	bx	lr
10002082:	46c0      	nop			; (mov r8, r8)
10002084:	50110000 	.word	0x50110000
10002088:	5011204c 	.word	0x5011204c

1000208c <runtime_init_post_clock_resets>:
1000208c:	4a04      	ldr	r2, [pc, #16]	; (100020a0 <runtime_init_post_clock_resets+0x14>)
1000208e:	4b05      	ldr	r3, [pc, #20]	; (100020a4 <runtime_init_post_clock_resets+0x18>)
10002090:	601a      	str	r2, [r3, #0]
10002092:	4a05      	ldr	r2, [pc, #20]	; (100020a8 <runtime_init_post_clock_resets+0x1c>)
10002094:	6813      	ldr	r3, [r2, #0]
10002096:	01db      	lsls	r3, r3, #7
10002098:	3380      	adds	r3, #128	; 0x80
1000209a:	d1fb      	bne.n	10002094 <runtime_init_post_clock_resets+0x8>
1000209c:	4770      	bx	lr
1000209e:	46c0      	nop			; (mov r8, r8)
100020a0:	01ffffff 	.word	0x01ffffff
100020a4:	4000f000 	.word	0x4000f000
100020a8:	4000c008 	.word	0x4000c008

100020ac <runtime_init_rp2040_gpio_ie_disable>:
100020ac:	2240      	movs	r2, #64	; 0x40
100020ae:	4b03      	ldr	r3, [pc, #12]	; (100020bc <runtime_init_rp2040_gpio_ie_disable+0x10>)
100020b0:	679a      	str	r2, [r3, #120]	; 0x78
100020b2:	675a      	str	r2, [r3, #116]	; 0x74
100020b4:	671a      	str	r2, [r3, #112]	; 0x70
100020b6:	66da      	str	r2, [r3, #108]	; 0x6c
100020b8:	4770      	bx	lr
100020ba:	46c0      	nop			; (mov r8, r8)
100020bc:	4001f000 	.word	0x4001f000

100020c0 <runtime_init_spin_locks_reset>:
100020c0:	b510      	push	{r4, lr}
100020c2:	f7fe fc99 	bl	100009f8 <spin_locks_reset>
100020c6:	bd10      	pop	{r4, pc}

100020c8 <runtime_init_install_ram_vector_table>:
100020c8:	b570      	push	{r4, r5, r6, lr}
100020ca:	4d04      	ldr	r5, [pc, #16]	; (100020dc <runtime_init_install_ram_vector_table+0x14>)
100020cc:	4c04      	ldr	r4, [pc, #16]	; (100020e0 <runtime_init_install_ram_vector_table+0x18>)
100020ce:	0028      	movs	r0, r5
100020d0:	22c0      	movs	r2, #192	; 0xc0
100020d2:	68a1      	ldr	r1, [r4, #8]
100020d4:	f000 ffd6 	bl	10003084 <__wrap___aeabi_memcpy>
100020d8:	60a5      	str	r5, [r4, #8]
100020da:	bd70      	pop	{r4, r5, r6, pc}
100020dc:	20000000 	.word	0x20000000
100020e0:	e000ed00 	.word	0xe000ed00

100020e4 <runtime_init_clocks>:
100020e4:	2300      	movs	r3, #0
100020e6:	b510      	push	{r4, lr}
100020e8:	4c29      	ldr	r4, [pc, #164]	; (10002190 <runtime_init_clocks+0xac>)
100020ea:	b082      	sub	sp, #8
100020ec:	67a3      	str	r3, [r4, #120]	; 0x78
100020ee:	f7ff ff65 	bl	10001fbc <xosc_init>
100020f2:	2201      	movs	r2, #1
100020f4:	4b27      	ldr	r3, [pc, #156]	; (10002194 <runtime_init_clocks+0xb0>)
100020f6:	601a      	str	r2, [r3, #0]
100020f8:	6c63      	ldr	r3, [r4, #68]	; 0x44
100020fa:	2b01      	cmp	r3, #1
100020fc:	d1fc      	bne.n	100020f8 <runtime_init_clocks+0x14>
100020fe:	2203      	movs	r2, #3
10002100:	4b25      	ldr	r3, [pc, #148]	; (10002198 <runtime_init_clocks+0xb4>)
10002102:	601a      	str	r2, [r3, #0]
10002104:	4a22      	ldr	r2, [pc, #136]	; (10002190 <runtime_init_clocks+0xac>)
10002106:	6b93      	ldr	r3, [r2, #56]	; 0x38
10002108:	2b01      	cmp	r3, #1
1000210a:	d1fc      	bne.n	10002106 <runtime_init_clocks+0x22>
1000210c:	3301      	adds	r3, #1
1000210e:	9300      	str	r3, [sp, #0]
10002110:	2101      	movs	r1, #1
10002112:	4a22      	ldr	r2, [pc, #136]	; (1000219c <runtime_init_clocks+0xb8>)
10002114:	4822      	ldr	r0, [pc, #136]	; (100021a0 <runtime_init_clocks+0xbc>)
10002116:	3304      	adds	r3, #4
10002118:	f7ff fec6 	bl	10001ea8 <pll_init>
1000211c:	2305      	movs	r3, #5
1000211e:	2101      	movs	r1, #1
10002120:	9300      	str	r3, [sp, #0]
10002122:	4a20      	ldr	r2, [pc, #128]	; (100021a4 <runtime_init_clocks+0xc0>)
10002124:	4820      	ldr	r0, [pc, #128]	; (100021a8 <runtime_init_clocks+0xc4>)
10002126:	f7ff febf 	bl	10001ea8 <pll_init>
1000212a:	2200      	movs	r2, #0
1000212c:	2102      	movs	r1, #2
1000212e:	2004      	movs	r0, #4
10002130:	4b1e      	ldr	r3, [pc, #120]	; (100021ac <runtime_init_clocks+0xc8>)
10002132:	f7ff fe3f 	bl	10001db4 <clock_configure_undivided>
10002136:	2200      	movs	r2, #0
10002138:	2101      	movs	r1, #1
1000213a:	2005      	movs	r0, #5
1000213c:	4b1c      	ldr	r3, [pc, #112]	; (100021b0 <runtime_init_clocks+0xcc>)
1000213e:	f7ff fe39 	bl	10001db4 <clock_configure_undivided>
10002142:	2200      	movs	r2, #0
10002144:	2100      	movs	r1, #0
10002146:	2007      	movs	r0, #7
10002148:	4b1a      	ldr	r3, [pc, #104]	; (100021b4 <runtime_init_clocks+0xd0>)
1000214a:	f7ff fe33 	bl	10001db4 <clock_configure_undivided>
1000214e:	2200      	movs	r2, #0
10002150:	2100      	movs	r1, #0
10002152:	2008      	movs	r0, #8
10002154:	4b17      	ldr	r3, [pc, #92]	; (100021b4 <runtime_init_clocks+0xd0>)
10002156:	f7ff fe2d 	bl	10001db4 <clock_configure_undivided>
1000215a:	2380      	movs	r3, #128	; 0x80
1000215c:	00db      	lsls	r3, r3, #3
1000215e:	9300      	str	r3, [sp, #0]
10002160:	2200      	movs	r2, #0
10002162:	2100      	movs	r1, #0
10002164:	2009      	movs	r0, #9
10002166:	4b13      	ldr	r3, [pc, #76]	; (100021b4 <runtime_init_clocks+0xd0>)
10002168:	f7ff fdaa 	bl	10001cc0 <clock_configure_int_divider>
1000216c:	2200      	movs	r2, #0
1000216e:	4b10      	ldr	r3, [pc, #64]	; (100021b0 <runtime_init_clocks+0xcc>)
10002170:	2100      	movs	r1, #0
10002172:	2006      	movs	r0, #6
10002174:	f7ff fe1e 	bl	10001db4 <clock_configure_undivided>
10002178:	2004      	movs	r0, #4
1000217a:	f7ff fe8f 	bl	10001e9c <clock_get_hz>
1000217e:	490e      	ldr	r1, [pc, #56]	; (100021b8 <runtime_init_clocks+0xd4>)
10002180:	f000 f84c 	bl	1000221c <__wrap___aeabi_uidiv>
10002184:	0001      	movs	r1, r0
10002186:	2000      	movs	r0, #0
10002188:	f7ff fede 	bl	10001f48 <tick_start>
1000218c:	b002      	add	sp, #8
1000218e:	bd10      	pop	{r4, pc}
10002190:	40008000 	.word	0x40008000
10002194:	4000b03c 	.word	0x4000b03c
10002198:	4000b030 	.word	0x4000b030
1000219c:	59682f00 	.word	0x59682f00
100021a0:	40028000 	.word	0x40028000
100021a4:	47868c00 	.word	0x47868c00
100021a8:	4002c000 	.word	0x4002c000
100021ac:	00b71b00 	.word	0x00b71b00
100021b0:	07735940 	.word	0x07735940
100021b4:	02dc6c00 	.word	0x02dc6c00
100021b8:	000f4240 	.word	0x000f4240

100021bc <__aeabi_bits_init>:
100021bc:	4801      	ldr	r0, [pc, #4]	; (100021c4 <__aeabi_bits_init+0x8>)
100021be:	2104      	movs	r1, #4
100021c0:	4b01      	ldr	r3, [pc, #4]	; (100021c8 <__aeabi_bits_init+0xc>)
100021c2:	4718      	bx	r3
100021c4:	20000440 	.word	0x20000440
100021c8:	10001f79 	.word	0x10001f79

100021cc <__wrap___aeabi_idiv>:
100021cc:	4a12      	ldr	r2, [pc, #72]	; (10002218 <divmod_s32s32_savestate+0x18>)
100021ce:	6f93      	ldr	r3, [r2, #120]	; 0x78
100021d0:	089b      	lsrs	r3, r3, #2
100021d2:	d215      	bcs.n	10002200 <divmod_s32s32_savestate>

100021d4 <divmod_s32s32_unsafe>:
100021d4:	6690      	str	r0, [r2, #104]	; 0x68
100021d6:	66d1      	str	r1, [r2, #108]	; 0x6c
100021d8:	2900      	cmp	r1, #0
100021da:	d005      	beq.n	100021e8 <divmod_s32s32_unsafe+0x14>
100021dc:	e7ff      	b.n	100021de <divmod_s32s32_unsafe+0xa>
100021de:	e7ff      	b.n	100021e0 <divmod_s32s32_unsafe+0xc>
100021e0:	e7ff      	b.n	100021e2 <divmod_s32s32_unsafe+0xe>
100021e2:	6f51      	ldr	r1, [r2, #116]	; 0x74
100021e4:	6f10      	ldr	r0, [r2, #112]	; 0x70
100021e6:	4770      	bx	lr
100021e8:	b504      	push	{r2, lr}
100021ea:	2180      	movs	r1, #128	; 0x80
100021ec:	0609      	lsls	r1, r1, #24
100021ee:	17c2      	asrs	r2, r0, #31
100021f0:	4051      	eors	r1, r2
100021f2:	2800      	cmp	r0, #0
100021f4:	d000      	beq.n	100021f8 <divmod_s32s32_unsafe+0x24>
100021f6:	43c8      	mvns	r0, r1
100021f8:	f003 ffda 	bl	100061b0 <____aeabi_idiv0_veneer>
100021fc:	2100      	movs	r1, #0
100021fe:	bd04      	pop	{r2, pc}

10002200 <divmod_s32s32_savestate>:
10002200:	b5f0      	push	{r4, r5, r6, r7, lr}
10002202:	6e14      	ldr	r4, [r2, #96]	; 0x60
10002204:	6e55      	ldr	r5, [r2, #100]	; 0x64
10002206:	6f57      	ldr	r7, [r2, #116]	; 0x74
10002208:	6f16      	ldr	r6, [r2, #112]	; 0x70
1000220a:	f7ff ffe3 	bl	100021d4 <divmod_s32s32_unsafe>
1000220e:	6614      	str	r4, [r2, #96]	; 0x60
10002210:	6655      	str	r5, [r2, #100]	; 0x64
10002212:	6757      	str	r7, [r2, #116]	; 0x74
10002214:	6716      	str	r6, [r2, #112]	; 0x70
10002216:	bdf0      	pop	{r4, r5, r6, r7, pc}
10002218:	d0000000 	.word	0xd0000000

1000221c <__wrap___aeabi_uidiv>:
1000221c:	4a11      	ldr	r2, [pc, #68]	; (10002264 <divmod_u32u32_savestate+0x18>)
1000221e:	6f93      	ldr	r3, [r2, #120]	; 0x78
10002220:	089b      	lsrs	r3, r3, #2
10002222:	d213      	bcs.n	1000224c <divmod_u32u32_savestate>

10002224 <divmod_u32u32_unsafe>:
10002224:	6610      	str	r0, [r2, #96]	; 0x60
10002226:	6651      	str	r1, [r2, #100]	; 0x64
10002228:	2900      	cmp	r1, #0
1000222a:	d005      	beq.n	10002238 <divmod_u32u32_unsafe+0x14>
1000222c:	e7ff      	b.n	1000222e <divmod_u32u32_unsafe+0xa>
1000222e:	e7ff      	b.n	10002230 <divmod_u32u32_unsafe+0xc>
10002230:	e7ff      	b.n	10002232 <divmod_u32u32_unsafe+0xe>
10002232:	6f51      	ldr	r1, [r2, #116]	; 0x74
10002234:	6f10      	ldr	r0, [r2, #112]	; 0x70
10002236:	4770      	bx	lr
10002238:	b504      	push	{r2, lr}
1000223a:	2800      	cmp	r0, #0
1000223c:	d001      	beq.n	10002242 <divmod_u32u32_unsafe+0x1e>
1000223e:	2000      	movs	r0, #0
10002240:	43c0      	mvns	r0, r0
10002242:	f003 ffb5 	bl	100061b0 <____aeabi_idiv0_veneer>
10002246:	2100      	movs	r1, #0
10002248:	bd04      	pop	{r2, pc}
1000224a:	46c0      	nop			; (mov r8, r8)

1000224c <divmod_u32u32_savestate>:
1000224c:	b5f0      	push	{r4, r5, r6, r7, lr}
1000224e:	6e14      	ldr	r4, [r2, #96]	; 0x60
10002250:	6e55      	ldr	r5, [r2, #100]	; 0x64
10002252:	6f57      	ldr	r7, [r2, #116]	; 0x74
10002254:	6f16      	ldr	r6, [r2, #112]	; 0x70
10002256:	f7ff ffe5 	bl	10002224 <divmod_u32u32_unsafe>
1000225a:	6614      	str	r4, [r2, #96]	; 0x60
1000225c:	6655      	str	r5, [r2, #100]	; 0x64
1000225e:	6757      	str	r7, [r2, #116]	; 0x74
10002260:	6716      	str	r6, [r2, #112]	; 0x70
10002262:	bdf0      	pop	{r4, r5, r6, r7, pc}
10002264:	d0000000 	.word	0xd0000000

10002268 <__wrap___aeabi_ldivmod>:
10002268:	4694      	mov	ip, r2
1000226a:	4a4a      	ldr	r2, [pc, #296]	; (10002394 <udiv0+0x1a>)
1000226c:	6f92      	ldr	r2, [r2, #120]	; 0x78
1000226e:	0892      	lsrs	r2, r2, #2
10002270:	4662      	mov	r2, ip
10002272:	d201      	bcs.n	10002278 <divmod_s64s64_savestate>
10002274:	e028      	b.n	100022c8 <divmod_s64s64_unsafe>
10002276:	46c0      	nop			; (mov r8, r8)

10002278 <divmod_s64s64_savestate>:
10002278:	b5f0      	push	{r4, r5, r6, r7, lr}
1000227a:	4e46      	ldr	r6, [pc, #280]	; (10002394 <udiv0+0x1a>)
1000227c:	6e34      	ldr	r4, [r6, #96]	; 0x60
1000227e:	6e75      	ldr	r5, [r6, #100]	; 0x64
10002280:	6f77      	ldr	r7, [r6, #116]	; 0x74
10002282:	6f36      	ldr	r6, [r6, #112]	; 0x70
10002284:	f000 f820 	bl	100022c8 <divmod_s64s64_unsafe>
10002288:	4694      	mov	ip, r2
1000228a:	4a42      	ldr	r2, [pc, #264]	; (10002394 <udiv0+0x1a>)
1000228c:	6614      	str	r4, [r2, #96]	; 0x60
1000228e:	6655      	str	r5, [r2, #100]	; 0x64
10002290:	6757      	str	r7, [r2, #116]	; 0x74
10002292:	6716      	str	r6, [r2, #112]	; 0x70
10002294:	4662      	mov	r2, ip
10002296:	bdf0      	pop	{r4, r5, r6, r7, pc}

10002298 <__wrap___aeabi_uldivmod>:
10002298:	4694      	mov	ip, r2
1000229a:	4a3e      	ldr	r2, [pc, #248]	; (10002394 <udiv0+0x1a>)
1000229c:	6f92      	ldr	r2, [r2, #120]	; 0x78
1000229e:	0892      	lsrs	r2, r2, #2
100022a0:	4662      	mov	r2, ip
100022a2:	d201      	bcs.n	100022a8 <divmod_u64u64_savestate>
100022a4:	e054      	b.n	10002350 <divmod_u64u64_unsafe>
100022a6:	46c0      	nop			; (mov r8, r8)

100022a8 <divmod_u64u64_savestate>:
100022a8:	b5f0      	push	{r4, r5, r6, r7, lr}
100022aa:	4e3a      	ldr	r6, [pc, #232]	; (10002394 <udiv0+0x1a>)
100022ac:	6e34      	ldr	r4, [r6, #96]	; 0x60
100022ae:	6e75      	ldr	r5, [r6, #100]	; 0x64
100022b0:	6f77      	ldr	r7, [r6, #116]	; 0x74
100022b2:	6f36      	ldr	r6, [r6, #112]	; 0x70
100022b4:	f000 f84c 	bl	10002350 <divmod_u64u64_unsafe>
100022b8:	4694      	mov	ip, r2
100022ba:	4a36      	ldr	r2, [pc, #216]	; (10002394 <udiv0+0x1a>)
100022bc:	6614      	str	r4, [r2, #96]	; 0x60
100022be:	6655      	str	r5, [r2, #100]	; 0x64
100022c0:	6757      	str	r7, [r2, #116]	; 0x74
100022c2:	6716      	str	r6, [r2, #112]	; 0x70
100022c4:	4662      	mov	r2, ip
100022c6:	bdf0      	pop	{r4, r5, r6, r7, pc}

100022c8 <divmod_s64s64_unsafe>:
100022c8:	2b00      	cmp	r3, #0
100022ca:	db24      	blt.n	10002316 <l42_1+0x26>
100022cc:	d011      	beq.n	100022f2 <l42_1+0x2>
100022ce:	2900      	cmp	r1, #0
100022d0:	da3e      	bge.n	10002350 <divmod_u64u64_unsafe>
100022d2:	b500      	push	{lr}
100022d4:	43c9      	mvns	r1, r1
100022d6:	4240      	negs	r0, r0
100022d8:	d100      	bne.n	100022dc <l40_1>
100022da:	3101      	adds	r1, #1

100022dc <l40_1>:
100022dc:	f000 f838 	bl	10002350 <divmod_u64u64_unsafe>
100022e0:	43c9      	mvns	r1, r1
100022e2:	4240      	negs	r0, r0
100022e4:	d100      	bne.n	100022e8 <l41_1>
100022e6:	3101      	adds	r1, #1

100022e8 <l41_1>:
100022e8:	43db      	mvns	r3, r3
100022ea:	4252      	negs	r2, r2
100022ec:	d100      	bne.n	100022f0 <l42_1>
100022ee:	3301      	adds	r3, #1

100022f0 <l42_1>:
100022f0:	bd00      	pop	{pc}
100022f2:	2a00      	cmp	r2, #0
100022f4:	d1eb      	bne.n	100022ce <divmod_s64s64_unsafe+0x6>
100022f6:	2800      	cmp	r0, #0
100022f8:	d101      	bne.n	100022fe <l42_1+0xe>
100022fa:	2900      	cmp	r1, #0
100022fc:	d005      	beq.n	1000230a <l42_1+0x1a>
100022fe:	2000      	movs	r0, #0
10002300:	0fc9      	lsrs	r1, r1, #31
10002302:	07c9      	lsls	r1, r1, #31
10002304:	d101      	bne.n	1000230a <l42_1+0x1a>
10002306:	43c0      	mvns	r0, r0
10002308:	0841      	lsrs	r1, r0, #1
1000230a:	b500      	push	{lr}
1000230c:	f003 ff40 	bl	10006190 <____aeabi_ldiv0_veneer>
10002310:	2200      	movs	r2, #0
10002312:	2300      	movs	r3, #0
10002314:	bd00      	pop	{pc}
10002316:	b500      	push	{lr}
10002318:	2900      	cmp	r1, #0
1000231a:	db0a      	blt.n	10002332 <l44_1+0x2>
1000231c:	43db      	mvns	r3, r3
1000231e:	4252      	negs	r2, r2
10002320:	d100      	bne.n	10002324 <l43_1>
10002322:	3301      	adds	r3, #1

10002324 <l43_1>:
10002324:	f000 f814 	bl	10002350 <divmod_u64u64_unsafe>
10002328:	43c9      	mvns	r1, r1
1000232a:	4240      	negs	r0, r0
1000232c:	d100      	bne.n	10002330 <l44_1>
1000232e:	3101      	adds	r1, #1

10002330 <l44_1>:
10002330:	bd00      	pop	{pc}
10002332:	43c9      	mvns	r1, r1
10002334:	4240      	negs	r0, r0
10002336:	d100      	bne.n	1000233a <l45_1>
10002338:	3101      	adds	r1, #1

1000233a <l45_1>:
1000233a:	43db      	mvns	r3, r3
1000233c:	4252      	negs	r2, r2
1000233e:	d100      	bne.n	10002342 <l46_1>
10002340:	3301      	adds	r3, #1

10002342 <l46_1>:
10002342:	f000 f805 	bl	10002350 <divmod_u64u64_unsafe>
10002346:	43db      	mvns	r3, r3
10002348:	4252      	negs	r2, r2
1000234a:	d100      	bne.n	1000234e <l47_1>
1000234c:	3301      	adds	r3, #1

1000234e <l47_1>:
1000234e:	bd00      	pop	{pc}

10002350 <divmod_u64u64_unsafe>:
10002350:	2900      	cmp	r1, #0
10002352:	d123      	bne.n	1000239c <y64>
10002354:	2b00      	cmp	r3, #0
10002356:	d118      	bne.n	1000238a <udiv0+0x10>
10002358:	2a00      	cmp	r2, #0
1000235a:	d00c      	beq.n	10002376 <divmod_u64u64_unsafe+0x26>
1000235c:	46bc      	mov	ip, r7
1000235e:	4f0d      	ldr	r7, [pc, #52]	; (10002394 <udiv0+0x1a>)
10002360:	6638      	str	r0, [r7, #96]	; 0x60
10002362:	667a      	str	r2, [r7, #100]	; 0x64
10002364:	2100      	movs	r1, #0
10002366:	2300      	movs	r3, #0
10002368:	e7ff      	b.n	1000236a <divmod_u64u64_unsafe+0x1a>
1000236a:	e7ff      	b.n	1000236c <divmod_u64u64_unsafe+0x1c>
1000236c:	e7ff      	b.n	1000236e <divmod_u64u64_unsafe+0x1e>
1000236e:	6f7a      	ldr	r2, [r7, #116]	; 0x74
10002370:	6f38      	ldr	r0, [r7, #112]	; 0x70
10002372:	4667      	mov	r7, ip
10002374:	4770      	bx	lr
10002376:	2800      	cmp	r0, #0
10002378:	d001      	beq.n	1000237e <udiv0+0x4>

1000237a <udiv0>:
1000237a:	4807      	ldr	r0, [pc, #28]	; (10002398 <udiv0+0x1e>)
1000237c:	0001      	movs	r1, r0
1000237e:	b500      	push	{lr}
10002380:	f003 ff06 	bl	10006190 <____aeabi_ldiv0_veneer>
10002384:	2200      	movs	r2, #0
10002386:	2300      	movs	r3, #0
10002388:	bd00      	pop	{pc}
1000238a:	0002      	movs	r2, r0
1000238c:	000b      	movs	r3, r1
1000238e:	2000      	movs	r0, #0
10002390:	2100      	movs	r1, #0
10002392:	4770      	bx	lr
10002394:	d0000000 	.word	0xd0000000
10002398:	ffffffff 	.word	0xffffffff

1000239c <y64>:
1000239c:	2b00      	cmp	r3, #0
1000239e:	d000      	beq.n	100023a2 <y64+0x6>
100023a0:	e0bf      	b.n	10002522 <y64_x48>
100023a2:	0c13      	lsrs	r3, r2, #16
100023a4:	d128      	bne.n	100023f8 <y64_x32>
100023a6:	2a00      	cmp	r2, #0
100023a8:	d0e7      	beq.n	1000237a <udiv0>
100023aa:	b480      	push	{r7}
100023ac:	4f11      	ldr	r7, [pc, #68]	; (100023f4 <y64+0x58>)
100023ae:	6639      	str	r1, [r7, #96]	; 0x60
100023b0:	667a      	str	r2, [r7, #100]	; 0x64
100023b2:	e7ff      	b.n	100023b4 <y64+0x18>
100023b4:	e7ff      	b.n	100023b6 <y64+0x1a>
100023b6:	b430      	push	{r4, r5}
100023b8:	0c04      	lsrs	r4, r0, #16
100023ba:	6f7b      	ldr	r3, [r7, #116]	; 0x74
100023bc:	6f39      	ldr	r1, [r7, #112]	; 0x70
100023be:	041b      	lsls	r3, r3, #16
100023c0:	4323      	orrs	r3, r4
100023c2:	663b      	str	r3, [r7, #96]	; 0x60
100023c4:	667a      	str	r2, [r7, #100]	; 0x64
100023c6:	e7ff      	b.n	100023c8 <y64+0x2c>
100023c8:	e7ff      	b.n	100023ca <y64+0x2e>
100023ca:	e7ff      	b.n	100023cc <y64+0x30>
100023cc:	46c0      	nop			; (mov r8, r8)
100023ce:	b284      	uxth	r4, r0
100023d0:	6f7b      	ldr	r3, [r7, #116]	; 0x74
100023d2:	6f3d      	ldr	r5, [r7, #112]	; 0x70
100023d4:	041b      	lsls	r3, r3, #16
100023d6:	4323      	orrs	r3, r4
100023d8:	663b      	str	r3, [r7, #96]	; 0x60
100023da:	667a      	str	r2, [r7, #100]	; 0x64
100023dc:	e7ff      	b.n	100023de <y64+0x42>
100023de:	e7ff      	b.n	100023e0 <y64+0x44>
100023e0:	46c0      	nop			; (mov r8, r8)
100023e2:	2300      	movs	r3, #0
100023e4:	042c      	lsls	r4, r5, #16
100023e6:	0c2d      	lsrs	r5, r5, #16
100023e8:	6f7a      	ldr	r2, [r7, #116]	; 0x74
100023ea:	6f38      	ldr	r0, [r7, #112]	; 0x70
100023ec:	1900      	adds	r0, r0, r4
100023ee:	4169      	adcs	r1, r5
100023f0:	bcb0      	pop	{r4, r5, r7}
100023f2:	4770      	bx	lr
100023f4:	d0000000 	.word	0xd0000000

100023f8 <y64_x32>:
100023f8:	b5f0      	push	{r4, r5, r6, r7, lr}
100023fa:	4694      	mov	ip, r2
100023fc:	2500      	movs	r5, #0
100023fe:	0e14      	lsrs	r4, r2, #24
10002400:	d101      	bne.n	10002406 <y64_x32+0xe>
10002402:	0212      	lsls	r2, r2, #8
10002404:	3508      	adds	r5, #8
10002406:	0f14      	lsrs	r4, r2, #28
10002408:	d101      	bne.n	1000240e <y64_x32+0x16>
1000240a:	0112      	lsls	r2, r2, #4
1000240c:	3504      	adds	r5, #4
1000240e:	0f94      	lsrs	r4, r2, #30
10002410:	d101      	bne.n	10002416 <y64_x32+0x1e>
10002412:	0092      	lsls	r2, r2, #2
10002414:	3502      	adds	r5, #2
10002416:	0fd4      	lsrs	r4, r2, #31
10002418:	d101      	bne.n	1000241e <y64_x32+0x26>
1000241a:	0052      	lsls	r2, r2, #1
1000241c:	3501      	adds	r5, #1
1000241e:	0bd4      	lsrs	r4, r2, #15
10002420:	3401      	adds	r4, #1
10002422:	4f25      	ldr	r7, [pc, #148]	; (100024b8 <y64_x32+0xc0>)
10002424:	667c      	str	r4, [r7, #100]	; 0x64
10002426:	4c25      	ldr	r4, [pc, #148]	; (100024bc <y64_x32+0xc4>)
10002428:	663c      	str	r4, [r7, #96]	; 0x60
1000242a:	0c0e      	lsrs	r6, r1, #16
1000242c:	b293      	uxth	r3, r2
1000242e:	e7ff      	b.n	10002430 <y64_x32+0x38>
10002430:	e7ff      	b.n	10002432 <y64_x32+0x3a>
10002432:	e7ff      	b.n	10002434 <y64_x32+0x3c>
10002434:	6f3c      	ldr	r4, [r7, #112]	; 0x70
10002436:	4366      	muls	r6, r4
10002438:	0c36      	lsrs	r6, r6, #16
1000243a:	0377      	lsls	r7, r6, #13
1000243c:	46be      	mov	lr, r7
1000243e:	4373      	muls	r3, r6
10002440:	0bdf      	lsrs	r7, r3, #15
10002442:	045b      	lsls	r3, r3, #17
10002444:	1ac0      	subs	r0, r0, r3
10002446:	41b9      	sbcs	r1, r7
10002448:	0c13      	lsrs	r3, r2, #16
1000244a:	4373      	muls	r3, r6
1000244c:	18db      	adds	r3, r3, r3
1000244e:	1ac9      	subs	r1, r1, r3
10002450:	08ce      	lsrs	r6, r1, #3
10002452:	4366      	muls	r6, r4
10002454:	0c36      	lsrs	r6, r6, #16
10002456:	44b6      	add	lr, r6
10002458:	b293      	uxth	r3, r2
1000245a:	4373      	muls	r3, r6
1000245c:	0f1f      	lsrs	r7, r3, #28
1000245e:	011b      	lsls	r3, r3, #4
10002460:	1ac0      	subs	r0, r0, r3
10002462:	41b9      	sbcs	r1, r7
10002464:	0c13      	lsrs	r3, r2, #16
10002466:	4373      	muls	r3, r6
10002468:	0b1f      	lsrs	r7, r3, #12
1000246a:	051b      	lsls	r3, r3, #20
1000246c:	1ac0      	subs	r0, r0, r3
1000246e:	41b9      	sbcs	r1, r7
10002470:	0d86      	lsrs	r6, r0, #22
10002472:	028f      	lsls	r7, r1, #10
10002474:	433e      	orrs	r6, r7
10002476:	4366      	muls	r6, r4
10002478:	0c36      	lsrs	r6, r6, #16
1000247a:	2d09      	cmp	r5, #9
1000247c:	db24      	blt.n	100024c8 <last0>
1000247e:	0a52      	lsrs	r2, r2, #9
10002480:	4372      	muls	r2, r6
10002482:	1a80      	subs	r0, r0, r2
10002484:	0377      	lsls	r7, r6, #13
10002486:	0a46      	lsrs	r6, r0, #9
10002488:	4366      	muls	r6, r4
1000248a:	0c36      	lsrs	r6, r6, #16
1000248c:	2316      	movs	r3, #22
1000248e:	1b5b      	subs	r3, r3, r5
10002490:	40de      	lsrs	r6, r3
10002492:	40df      	lsrs	r7, r3
10002494:	19bf      	adds	r7, r7, r6
10002496:	4664      	mov	r4, ip
10002498:	4366      	muls	r6, r4
1000249a:	1b82      	subs	r2, r0, r6
1000249c:	4670      	mov	r0, lr
1000249e:	3504      	adds	r5, #4
100024a0:	3306      	adds	r3, #6
100024a2:	0001      	movs	r1, r0
100024a4:	40d9      	lsrs	r1, r3
100024a6:	40a8      	lsls	r0, r5
100024a8:	19c0      	adds	r0, r0, r7
100024aa:	d300      	bcc.n	100024ae <y64_x32+0xb6>
100024ac:	3101      	adds	r1, #1
100024ae:	42a2      	cmp	r2, r4
100024b0:	d206      	bcs.n	100024c0 <y64_x32+0xc8>
100024b2:	2300      	movs	r3, #0
100024b4:	bdf0      	pop	{r4, r5, r6, r7, pc}
100024b6:	0000      	.short	0x0000
100024b8:	d0000000 	.word	0xd0000000
100024bc:	ffffffff 	.word	0xffffffff
100024c0:	1b12      	subs	r2, r2, r4
100024c2:	3001      	adds	r0, #1
100024c4:	d3f3      	bcc.n	100024ae <y64_x32+0xb6>
100024c6:	e7f1      	b.n	100024ac <y64_x32+0xb4>

100024c8 <last0>:
100024c8:	2709      	movs	r7, #9
100024ca:	1b7f      	subs	r7, r7, r5
100024cc:	40fe      	lsrs	r6, r7
100024ce:	4664      	mov	r4, ip
100024d0:	b2a2      	uxth	r2, r4
100024d2:	4372      	muls	r2, r6
100024d4:	1a80      	subs	r0, r0, r2
100024d6:	d200      	bcs.n	100024da <last0+0x12>
100024d8:	3901      	subs	r1, #1
100024da:	0c22      	lsrs	r2, r4, #16
100024dc:	4372      	muls	r2, r6
100024de:	0c13      	lsrs	r3, r2, #16
100024e0:	0412      	lsls	r2, r2, #16
100024e2:	1a82      	subs	r2, r0, r2
100024e4:	4199      	sbcs	r1, r3
100024e6:	000b      	movs	r3, r1
100024e8:	4670      	mov	r0, lr
100024ea:	3504      	adds	r5, #4
100024ec:	3713      	adds	r7, #19
100024ee:	0001      	movs	r1, r0
100024f0:	40f9      	lsrs	r1, r7
100024f2:	40a8      	lsls	r0, r5
100024f4:	1980      	adds	r0, r0, r6
100024f6:	d300      	bcc.n	100024fa <last0+0x32>
100024f8:	3101      	adds	r1, #1
100024fa:	2b00      	cmp	r3, #0
100024fc:	d102      	bne.n	10002504 <last0+0x3c>
100024fe:	42a2      	cmp	r2, r4
10002500:	d20a      	bcs.n	10002518 <last0+0x50>
10002502:	bdf0      	pop	{r4, r5, r6, r7, pc}
10002504:	3001      	adds	r0, #1
10002506:	d300      	bcc.n	1000250a <last0+0x42>
10002508:	3101      	adds	r1, #1
1000250a:	1b12      	subs	r2, r2, r4
1000250c:	d2fa      	bcs.n	10002504 <last0+0x3c>
1000250e:	3b01      	subs	r3, #1
10002510:	d1f8      	bne.n	10002504 <last0+0x3c>
10002512:	42a2      	cmp	r2, r4
10002514:	d200      	bcs.n	10002518 <last0+0x50>
10002516:	bdf0      	pop	{r4, r5, r6, r7, pc}
10002518:	3001      	adds	r0, #1
1000251a:	d300      	bcc.n	1000251e <last0+0x56>
1000251c:	3101      	adds	r1, #1
1000251e:	1b12      	subs	r2, r2, r4
10002520:	e7f7      	b.n	10002512 <last0+0x4a>

10002522 <y64_x48>:
10002522:	b5f0      	push	{r4, r5, r6, r7, lr}
10002524:	0c1c      	lsrs	r4, r3, #16
10002526:	d000      	beq.n	1000252a <y64_x48+0x8>
10002528:	e080      	b.n	1000262c <y64_x64>
1000252a:	b40c      	push	{r2, r3}
1000252c:	2500      	movs	r5, #0
1000252e:	0a1c      	lsrs	r4, r3, #8
10002530:	d104      	bne.n	1000253c <y64_x48+0x1a>
10002532:	021b      	lsls	r3, r3, #8
10002534:	0e16      	lsrs	r6, r2, #24
10002536:	4333      	orrs	r3, r6
10002538:	0212      	lsls	r2, r2, #8
1000253a:	3508      	adds	r5, #8
1000253c:	0b1c      	lsrs	r4, r3, #12
1000253e:	d104      	bne.n	1000254a <y64_x48+0x28>
10002540:	011b      	lsls	r3, r3, #4
10002542:	0f16      	lsrs	r6, r2, #28
10002544:	4333      	orrs	r3, r6
10002546:	0112      	lsls	r2, r2, #4
10002548:	3504      	adds	r5, #4
1000254a:	0b9c      	lsrs	r4, r3, #14
1000254c:	d104      	bne.n	10002558 <y64_x48+0x36>
1000254e:	009b      	lsls	r3, r3, #2
10002550:	0f96      	lsrs	r6, r2, #30
10002552:	4333      	orrs	r3, r6
10002554:	0092      	lsls	r2, r2, #2
10002556:	3502      	adds	r5, #2
10002558:	0bdc      	lsrs	r4, r3, #15
1000255a:	d102      	bne.n	10002562 <y64_x48+0x40>
1000255c:	1892      	adds	r2, r2, r2
1000255e:	415b      	adcs	r3, r3
10002560:	3501      	adds	r5, #1
10002562:	001c      	movs	r4, r3
10002564:	1897      	adds	r7, r2, r2
10002566:	4164      	adcs	r4, r4
10002568:	3401      	adds	r4, #1
1000256a:	4f46      	ldr	r7, [pc, #280]	; (10002684 <y64_x64+0x58>)
1000256c:	667c      	str	r4, [r7, #100]	; 0x64
1000256e:	4c46      	ldr	r4, [pc, #280]	; (10002688 <y64_x64+0x5c>)
10002570:	663c      	str	r4, [r7, #96]	; 0x60
10002572:	0c0e      	lsrs	r6, r1, #16
10002574:	e7ff      	b.n	10002576 <y64_x48+0x54>
10002576:	e7ff      	b.n	10002578 <y64_x48+0x56>
10002578:	e7ff      	b.n	1000257a <y64_x48+0x58>
1000257a:	46c0      	nop			; (mov r8, r8)
1000257c:	6f3c      	ldr	r4, [r7, #112]	; 0x70
1000257e:	4366      	muls	r6, r4
10002580:	0c36      	lsrs	r6, r6, #16
10002582:	0377      	lsls	r7, r6, #13
10002584:	46be      	mov	lr, r7
10002586:	b297      	uxth	r7, r2
10002588:	4377      	muls	r7, r6
1000258a:	1bc0      	subs	r0, r0, r7
1000258c:	d200      	bcs.n	10002590 <y64_x48+0x6e>
1000258e:	3901      	subs	r1, #1
10002590:	1bc0      	subs	r0, r0, r7
10002592:	d200      	bcs.n	10002596 <y64_x48+0x74>
10002594:	3901      	subs	r1, #1
10002596:	b29f      	uxth	r7, r3
10002598:	4377      	muls	r7, r6
1000259a:	1bc9      	subs	r1, r1, r7
1000259c:	1bc9      	subs	r1, r1, r7
1000259e:	0c17      	lsrs	r7, r2, #16
100025a0:	4377      	muls	r7, r6
100025a2:	047e      	lsls	r6, r7, #17
100025a4:	0bff      	lsrs	r7, r7, #15
100025a6:	1b80      	subs	r0, r0, r6
100025a8:	41b9      	sbcs	r1, r7
100025aa:	08ce      	lsrs	r6, r1, #3
100025ac:	4366      	muls	r6, r4
100025ae:	0c36      	lsrs	r6, r6, #16
100025b0:	2d0c      	cmp	r5, #12
100025b2:	db33      	blt.n	1000261c <last1>
100025b4:	44b6      	add	lr, r6
100025b6:	0b12      	lsrs	r2, r2, #12
100025b8:	051f      	lsls	r7, r3, #20
100025ba:	433a      	orrs	r2, r7
100025bc:	0b1b      	lsrs	r3, r3, #12
100025be:	b297      	uxth	r7, r2
100025c0:	4377      	muls	r7, r6
100025c2:	1bc0      	subs	r0, r0, r7
100025c4:	d200      	bcs.n	100025c8 <y64_x48+0xa6>
100025c6:	3901      	subs	r1, #1
100025c8:	b29f      	uxth	r7, r3
100025ca:	4377      	muls	r7, r6
100025cc:	1bc9      	subs	r1, r1, r7
100025ce:	0c17      	lsrs	r7, r2, #16
100025d0:	4377      	muls	r7, r6
100025d2:	043e      	lsls	r6, r7, #16
100025d4:	0c3f      	lsrs	r7, r7, #16
100025d6:	1b80      	subs	r0, r0, r6
100025d8:	41b9      	sbcs	r1, r7
100025da:	0d86      	lsrs	r6, r0, #22
100025dc:	028f      	lsls	r7, r1, #10
100025de:	433e      	orrs	r6, r7
100025e0:	4366      	muls	r6, r4
100025e2:	2729      	movs	r7, #41	; 0x29
100025e4:	1b7f      	subs	r7, r7, r5
100025e6:	40fe      	lsrs	r6, r7
100025e8:	3d0c      	subs	r5, #12
100025ea:	4677      	mov	r7, lr
100025ec:	40af      	lsls	r7, r5
100025ee:	19bf      	adds	r7, r7, r6
100025f0:	bc30      	pop	{r4, r5}
100025f2:	b2a2      	uxth	r2, r4
100025f4:	b2ab      	uxth	r3, r5
100025f6:	4372      	muls	r2, r6
100025f8:	4373      	muls	r3, r6
100025fa:	1a80      	subs	r0, r0, r2
100025fc:	4199      	sbcs	r1, r3
100025fe:	0c22      	lsrs	r2, r4, #16
10002600:	4372      	muls	r2, r6
10002602:	0c13      	lsrs	r3, r2, #16
10002604:	0412      	lsls	r2, r2, #16
10002606:	1a80      	subs	r0, r0, r2
10002608:	4199      	sbcs	r1, r3
1000260a:	0002      	movs	r2, r0
1000260c:	000b      	movs	r3, r1
1000260e:	3701      	adds	r7, #1
10002610:	1b00      	subs	r0, r0, r4
10002612:	41a9      	sbcs	r1, r5
10002614:	d2f9      	bcs.n	1000260a <y64_x48+0xe8>
10002616:	1e78      	subs	r0, r7, #1
10002618:	2100      	movs	r1, #0
1000261a:	bdf0      	pop	{r4, r5, r6, r7, pc}

1000261c <last1>:
1000261c:	270c      	movs	r7, #12
1000261e:	1b7f      	subs	r7, r7, r5
10002620:	40fe      	lsrs	r6, r7
10002622:	4677      	mov	r7, lr
10002624:	0b7f      	lsrs	r7, r7, #13
10002626:	40af      	lsls	r7, r5
10002628:	19ff      	adds	r7, r7, r7
1000262a:	e7e0      	b.n	100025ee <y64_x48+0xcc>

1000262c <y64_x64>:
1000262c:	2400      	movs	r4, #0
1000262e:	1c5d      	adds	r5, r3, #1
10002630:	d007      	beq.n	10002642 <y64_x64+0x16>
10002632:	4f14      	ldr	r7, [pc, #80]	; (10002684 <y64_x64+0x58>)
10002634:	667d      	str	r5, [r7, #100]	; 0x64
10002636:	6639      	str	r1, [r7, #96]	; 0x60
10002638:	e7ff      	b.n	1000263a <y64_x64+0xe>
1000263a:	e7ff      	b.n	1000263c <y64_x64+0x10>
1000263c:	e7ff      	b.n	1000263e <y64_x64+0x12>
1000263e:	e7ff      	b.n	10002640 <y64_x64+0x14>
10002640:	6f3c      	ldr	r4, [r7, #112]	; 0x70
10002642:	b295      	uxth	r5, r2
10002644:	b29e      	uxth	r6, r3
10002646:	4365      	muls	r5, r4
10002648:	4366      	muls	r6, r4
1000264a:	1b40      	subs	r0, r0, r5
1000264c:	41b1      	sbcs	r1, r6
1000264e:	0c15      	lsrs	r5, r2, #16
10002650:	0c1e      	lsrs	r6, r3, #16
10002652:	4365      	muls	r5, r4
10002654:	4366      	muls	r6, r4
10002656:	0436      	lsls	r6, r6, #16
10002658:	0c2f      	lsrs	r7, r5, #16
1000265a:	433e      	orrs	r6, r7
1000265c:	042d      	lsls	r5, r5, #16
1000265e:	1b40      	subs	r0, r0, r5
10002660:	41b1      	sbcs	r1, r6
10002662:	4299      	cmp	r1, r3
10002664:	d204      	bcs.n	10002670 <y64_x64+0x44>
10002666:	0002      	movs	r2, r0
10002668:	000b      	movs	r3, r1
1000266a:	0020      	movs	r0, r4
1000266c:	2100      	movs	r1, #0
1000266e:	bdf0      	pop	{r4, r5, r6, r7, pc}
10002670:	d101      	bne.n	10002676 <y64_x64+0x4a>
10002672:	4290      	cmp	r0, r2
10002674:	d3f7      	bcc.n	10002666 <y64_x64+0x3a>
10002676:	1a80      	subs	r0, r0, r2
10002678:	4199      	sbcs	r1, r3
1000267a:	3401      	adds	r4, #1
1000267c:	4299      	cmp	r1, r3
1000267e:	d3f2      	bcc.n	10002666 <y64_x64+0x3a>
10002680:	e7f6      	b.n	10002670 <y64_x64+0x44>
10002682:	0000      	.short	0x0000
10002684:	d0000000 	.word	0xd0000000
10002688:	ffffffff 	.word	0xffffffff

1000268c <__wrap___aeabi_drsub>:
1000268c:	4048      	eors	r0, r1
1000268e:	4041      	eors	r1, r0
10002690:	4048      	eors	r0, r1

10002692 <__wrap___aeabi_dsub>:
10002692:	b418      	push	{r3, r4}
10002694:	4b1b      	ldr	r3, [pc, #108]	; (10002704 <__wrap___aeabi_dmul+0x12>)
10002696:	685b      	ldr	r3, [r3, #4]
10002698:	46fc      	mov	ip, pc
1000269a:	9301      	str	r3, [sp, #4]
1000269c:	bd08      	pop	{r3, pc}
1000269e:	df04      	.short	0xdf04
100026a0:	10002933 	.word	0x10002933

100026a4 <__wrap___aeabi_dadd>:
100026a4:	b418      	push	{r3, r4}
100026a6:	4b17      	ldr	r3, [pc, #92]	; (10002704 <__wrap___aeabi_dmul+0x12>)
100026a8:	681b      	ldr	r3, [r3, #0]
100026aa:	46fc      	mov	ip, pc
100026ac:	9301      	str	r3, [sp, #4]
100026ae:	bd08      	pop	{r3, pc}
100026b0:	293ddf00 	.word	0x293ddf00
100026b4:	1000      	.short	0x1000

100026b6 <__wrap___aeabi_ddiv>:
100026b6:	4694      	mov	ip, r2
100026b8:	4a13      	ldr	r2, [pc, #76]	; (10002708 <__wrap___aeabi_dmul+0x16>)
100026ba:	6f92      	ldr	r2, [r2, #120]	; 0x78
100026bc:	0892      	lsrs	r2, r2, #2
100026be:	d209      	bcs.n	100026d4 <ddiv_save_state>
100026c0:	4662      	mov	r2, ip

100026c2 <ddiv_shim_call>:
100026c2:	b418      	push	{r3, r4}
100026c4:	4b0f      	ldr	r3, [pc, #60]	; (10002704 <__wrap___aeabi_dmul+0x12>)
100026c6:	68db      	ldr	r3, [r3, #12]
100026c8:	46fc      	mov	ip, pc
100026ca:	9301      	str	r3, [sp, #4]
100026cc:	bd08      	pop	{r3, pc}
100026ce:	df0c      	.short	0xdf0c
100026d0:	10002bf5 	.word	0x10002bf5

100026d4 <ddiv_save_state>:
100026d4:	4a0c      	ldr	r2, [pc, #48]	; (10002708 <__wrap___aeabi_dmul+0x16>)
100026d6:	b5f0      	push	{r4, r5, r6, r7, lr}
100026d8:	6e14      	ldr	r4, [r2, #96]	; 0x60
100026da:	6e55      	ldr	r5, [r2, #100]	; 0x64
100026dc:	6f57      	ldr	r7, [r2, #116]	; 0x74
100026de:	6f16      	ldr	r6, [r2, #112]	; 0x70
100026e0:	4662      	mov	r2, ip
100026e2:	f7ff ffee 	bl	100026c2 <ddiv_shim_call>
100026e6:	4a08      	ldr	r2, [pc, #32]	; (10002708 <__wrap___aeabi_dmul+0x16>)
100026e8:	6614      	str	r4, [r2, #96]	; 0x60
100026ea:	6655      	str	r5, [r2, #100]	; 0x64
100026ec:	6757      	str	r7, [r2, #116]	; 0x74
100026ee:	6716      	str	r6, [r2, #112]	; 0x70
100026f0:	bdf0      	pop	{r4, r5, r6, r7, pc}

100026f2 <__wrap___aeabi_dmul>:
100026f2:	b418      	push	{r3, r4}
100026f4:	4b03      	ldr	r3, [pc, #12]	; (10002704 <__wrap___aeabi_dmul+0x12>)
100026f6:	689b      	ldr	r3, [r3, #8]
100026f8:	46fc      	mov	ip, pc
100026fa:	9301      	str	r3, [sp, #4]
100026fc:	bd08      	pop	{r3, pc}
100026fe:	df08      	.short	0xdf08
10002700:	10002a99 	.word	0x10002a99
10002704:	20000e98 	.word	0x20000e98
10002708:	d0000000 	.word	0xd0000000

1000270c <__wrap___aeabi_cdrcmple>:
1000270c:	b5ff      	push	{r0, r1, r2, r3, r4, r5, r6, r7, lr}
1000270e:	4050      	eors	r0, r2
10002710:	4042      	eors	r2, r0
10002712:	4050      	eors	r0, r2
10002714:	4059      	eors	r1, r3
10002716:	404b      	eors	r3, r1
10002718:	4059      	eors	r1, r3
1000271a:	e000      	b.n	1000271e <__aeabi_dfcmple_guts>

1000271c <__wrap___aeabi_cdcmpeq>:
1000271c:	b5ff      	push	{r0, r1, r2, r3, r4, r5, r6, r7, lr}

1000271e <__aeabi_dfcmple_guts>:
1000271e:	4f15      	ldr	r7, [pc, #84]	; (10002774 <__aeabi_dfcmple_guts+0x56>)
10002720:	004c      	lsls	r4, r1, #1
10002722:	0d64      	lsrs	r4, r4, #21
10002724:	d003      	beq.n	1000272e <__aeabi_dfcmple_guts+0x10>
10002726:	42bc      	cmp	r4, r7
10002728:	d104      	bne.n	10002734 <__aeabi_dfcmple_guts+0x16>
1000272a:	030c      	lsls	r4, r1, #12
1000272c:	d814      	bhi.n	10002758 <__aeabi_dfcmple_guts+0x3a>
1000272e:	2000      	movs	r0, #0
10002730:	0d09      	lsrs	r1, r1, #20
10002732:	0509      	lsls	r1, r1, #20
10002734:	005c      	lsls	r4, r3, #1
10002736:	0d64      	lsrs	r4, r4, #21
10002738:	d003      	beq.n	10002742 <__aeabi_dfcmple_guts+0x24>
1000273a:	42bc      	cmp	r4, r7
1000273c:	d104      	bne.n	10002748 <__aeabi_dfcmple_guts+0x2a>
1000273e:	031c      	lsls	r4, r3, #12
10002740:	d80a      	bhi.n	10002758 <__aeabi_dfcmple_guts+0x3a>
10002742:	2200      	movs	r2, #0
10002744:	0d1b      	lsrs	r3, r3, #20
10002746:	051b      	lsls	r3, r3, #20
10002748:	2601      	movs	r6, #1
1000274a:	404b      	eors	r3, r1
1000274c:	d409      	bmi.n	10002762 <__aeabi_dfcmple_guts+0x44>
1000274e:	404b      	eors	r3, r1
10002750:	d503      	bpl.n	1000275a <__aeabi_dfcmple_guts+0x3c>
10002752:	428b      	cmp	r3, r1
10002754:	d100      	bne.n	10002758 <__aeabi_dfcmple_guts+0x3a>
10002756:	4282      	cmp	r2, r0
10002758:	bdff      	pop	{r0, r1, r2, r3, r4, r5, r6, r7, pc}
1000275a:	4299      	cmp	r1, r3
1000275c:	d1fc      	bne.n	10002758 <__aeabi_dfcmple_guts+0x3a>
1000275e:	4290      	cmp	r0, r2
10002760:	bdff      	pop	{r0, r1, r2, r3, r4, r5, r6, r7, pc}
10002762:	430b      	orrs	r3, r1
10002764:	18db      	adds	r3, r3, r3
10002766:	4303      	orrs	r3, r0
10002768:	4313      	orrs	r3, r2
1000276a:	d0f5      	beq.n	10002758 <__aeabi_dfcmple_guts+0x3a>
1000276c:	43c9      	mvns	r1, r1
1000276e:	1849      	adds	r1, r1, r1
10002770:	bdff      	pop	{r0, r1, r2, r3, r4, r5, r6, r7, pc}
10002772:	0000      	.short	0x0000
10002774:	000007ff 	.word	0x000007ff

10002778 <__wrap___aeabi_dcmplt>:
10002778:	b500      	push	{lr}
1000277a:	f7ff ffcf 	bl	1000271c <__wrap___aeabi_cdcmpeq>
1000277e:	4180      	sbcs	r0, r0
10002780:	bd00      	pop	{pc}
10002782:	46c0      	nop			; (mov r8, r8)

10002784 <__wrap___aeabi_dcmple>:
10002784:	b500      	push	{lr}
10002786:	f7ff ffc9 	bl	1000271c <__wrap___aeabi_cdcmpeq>
1000278a:	d901      	bls.n	10002790 <__wrap___aeabi_dcmple+0xc>
1000278c:	2000      	movs	r0, #0
1000278e:	bd00      	pop	{pc}
10002790:	2001      	movs	r0, #1
10002792:	bd00      	pop	{pc}

10002794 <__wrap___aeabi_dcmpge>:
10002794:	b500      	push	{lr}
10002796:	f7ff ffb9 	bl	1000270c <__wrap___aeabi_cdrcmple>
1000279a:	d901      	bls.n	100027a0 <__wrap___aeabi_dcmpge+0xc>
1000279c:	2000      	movs	r0, #0
1000279e:	bd00      	pop	{pc}
100027a0:	2001      	movs	r0, #1
100027a2:	bd00      	pop	{pc}

100027a4 <__wrap___aeabi_dcmpgt>:
100027a4:	b500      	push	{lr}
100027a6:	f7ff ffb1 	bl	1000270c <__wrap___aeabi_cdrcmple>
100027aa:	4180      	sbcs	r0, r0
100027ac:	bd00      	pop	{pc}

100027ae <__wrap___aeabi_dcmpun>:
100027ae:	2001      	movs	r0, #1
100027b0:	0540      	lsls	r0, r0, #21
100027b2:	004a      	lsls	r2, r1, #1
100027b4:	1812      	adds	r2, r2, r0
100027b6:	d804      	bhi.n	100027c2 <__wrap___aeabi_dcmpun+0x14>
100027b8:	005a      	lsls	r2, r3, #1
100027ba:	1812      	adds	r2, r2, r0
100027bc:	d801      	bhi.n	100027c2 <__wrap___aeabi_dcmpun+0x14>
100027be:	2000      	movs	r0, #0
100027c0:	4770      	bx	lr
100027c2:	2001      	movs	r0, #1
100027c4:	4770      	bx	lr
	...

100027c8 <__wrap___aeabi_ui2d>:
100027c8:	2100      	movs	r1, #0
100027ca:	2800      	cmp	r0, #0
100027cc:	d105      	bne.n	100027da <__wrap___aeabi_i2d+0xa>
100027ce:	4770      	bx	lr

100027d0 <__wrap___aeabi_i2d>:
100027d0:	17c1      	asrs	r1, r0, #31
100027d2:	4048      	eors	r0, r1
100027d4:	1a40      	subs	r0, r0, r1
100027d6:	d0fa      	beq.n	100027ce <__wrap___aeabi_ui2d+0x6>
100027d8:	07c9      	lsls	r1, r1, #31
100027da:	b513      	push	{r0, r1, r4, lr}
100027dc:	4b06      	ldr	r3, [pc, #24]	; (100027f8 <__wrap___aeabi_i2d+0x28>)
100027de:	681b      	ldr	r3, [r3, #0]
100027e0:	4798      	blx	r3
100027e2:	bc0c      	pop	{r2, r3}
100027e4:	1c44      	adds	r4, r0, #1
100027e6:	40a2      	lsls	r2, r4
100027e8:	0510      	lsls	r0, r2, #20
100027ea:	0b12      	lsrs	r2, r2, #12
100027ec:	4903      	ldr	r1, [pc, #12]	; (100027fc <__wrap___aeabi_i2d+0x2c>)
100027ee:	1b09      	subs	r1, r1, r4
100027f0:	0509      	lsls	r1, r1, #20
100027f2:	4319      	orrs	r1, r3
100027f4:	4311      	orrs	r1, r2
100027f6:	bd10      	pop	{r4, pc}
100027f8:	20001180 	.word	0x20001180
100027fc:	0000041f 	.word	0x0000041f

10002800 <__wrap___aeabi_d2iz>:
10002800:	b510      	push	{r4, lr}
10002802:	004c      	lsls	r4, r1, #1
10002804:	0d62      	lsrs	r2, r4, #21
10002806:	2380      	movs	r3, #128	; 0x80
10002808:	18d2      	adds	r2, r2, r3
1000280a:	00db      	lsls	r3, r3, #3
1000280c:	1ad2      	subs	r2, r2, r3
1000280e:	055b      	lsls	r3, r3, #21
10002810:	2a7e      	cmp	r2, #126	; 0x7e
10002812:	dd10      	ble.n	10002836 <__wrap___aeabi_d2iz+0x36>
10002814:	3a9e      	subs	r2, #158	; 0x9e
10002816:	da13      	bge.n	10002840 <__wrap___aeabi_d2iz+0x40>
10002818:	17cc      	asrs	r4, r1, #31
1000281a:	0309      	lsls	r1, r1, #12
1000281c:	0849      	lsrs	r1, r1, #1
1000281e:	4319      	orrs	r1, r3
10002820:	4252      	negs	r2, r2
10002822:	40d1      	lsrs	r1, r2
10002824:	0064      	lsls	r4, r4, #1
10002826:	3401      	adds	r4, #1
10002828:	3215      	adds	r2, #21
1000282a:	2a20      	cmp	r2, #32
1000282c:	da05      	bge.n	1000283a <__wrap___aeabi_d2iz+0x3a>
1000282e:	40d0      	lsrs	r0, r2
10002830:	4308      	orrs	r0, r1
10002832:	4360      	muls	r0, r4
10002834:	bd10      	pop	{r4, pc}
10002836:	2000      	movs	r0, #0
10002838:	bd10      	pop	{r4, pc}
1000283a:	4608      	mov	r0, r1
1000283c:	4360      	muls	r0, r4
1000283e:	bd10      	pop	{r4, pc}
10002840:	0fc8      	lsrs	r0, r1, #31
10002842:	18c0      	adds	r0, r0, r3
10002844:	3801      	subs	r0, #1
10002846:	bd10      	pop	{r4, pc}

10002848 <__wrap___aeabi_d2uiz>:
10002848:	b418      	push	{r3, r4}
1000284a:	4b04      	ldr	r3, [pc, #16]	; (1000285c <__wrap___aeabi_d2uiz+0x14>)
1000284c:	6a5b      	ldr	r3, [r3, #36]	; 0x24
1000284e:	46fc      	mov	ip, pc
10002850:	9301      	str	r3, [sp, #4]
10002852:	bd08      	pop	{r3, pc}
10002854:	2da5df24 	.word	0x2da5df24
10002858:	00001000 	.word	0x00001000
1000285c:	20000e98 	.word	0x20000e98

10002860 <__aeabi_double_init>:
10002860:	2313      	movs	r3, #19
10002862:	b570      	push	{r4, r5, r6, lr}
10002864:	781d      	ldrb	r5, [r3, #0]
10002866:	2d01      	cmp	r5, #1
10002868:	d019      	beq.n	1000289e <__aeabi_double_init+0x3e>
1000286a:	dd14      	ble.n	10002896 <__aeabi_double_init+0x36>
1000286c:	481e      	ldr	r0, [pc, #120]	; (100028e8 <__aeabi_double_init+0x88>)
1000286e:	f7ff fb7b 	bl	10001f68 <rom_data_lookup>
10002872:	0006      	movs	r6, r0
10002874:	481d      	ldr	r0, [pc, #116]	; (100028ec <__aeabi_double_init+0x8c>)
10002876:	f7ff fb77 	bl	10001f68 <rom_data_lookup>
1000287a:	4c1d      	ldr	r4, [pc, #116]	; (100028f0 <__aeabi_double_init+0x90>)
1000287c:	2280      	movs	r2, #128	; 0x80
1000287e:	0031      	movs	r1, r6
10002880:	0020      	movs	r0, r4
10002882:	f000 fbff 	bl	10003084 <__wrap___aeabi_memcpy>
10002886:	2d02      	cmp	r5, #2
10002888:	d006      	beq.n	10002898 <__aeabi_double_init+0x38>
1000288a:	481a      	ldr	r0, [pc, #104]	; (100028f4 <__aeabi_double_init+0x94>)
1000288c:	f7ff fb64 	bl	10001f58 <rom_func_lookup>
10002890:	4b19      	ldr	r3, [pc, #100]	; (100028f8 <__aeabi_double_init+0x98>)
10002892:	6018      	str	r0, [r3, #0]
10002894:	bd70      	pop	{r4, r5, r6, pc}
10002896:	4c16      	ldr	r4, [pc, #88]	; (100028f0 <__aeabi_double_init+0x90>)
10002898:	4b18      	ldr	r3, [pc, #96]	; (100028fc <__aeabi_double_init+0x9c>)
1000289a:	64a3      	str	r3, [r4, #72]	; 0x48
1000289c:	e7f5      	b.n	1000288a <__aeabi_double_init+0x2a>
1000289e:	4b17      	ldr	r3, [pc, #92]	; (100028fc <__aeabi_double_init+0x9c>)
100028a0:	4c13      	ldr	r4, [pc, #76]	; (100028f0 <__aeabi_double_init+0x90>)
100028a2:	6023      	str	r3, [r4, #0]
100028a4:	6063      	str	r3, [r4, #4]
100028a6:	60a3      	str	r3, [r4, #8]
100028a8:	60e3      	str	r3, [r4, #12]
100028aa:	6123      	str	r3, [r4, #16]
100028ac:	6163      	str	r3, [r4, #20]
100028ae:	61a3      	str	r3, [r4, #24]
100028b0:	61e3      	str	r3, [r4, #28]
100028b2:	6223      	str	r3, [r4, #32]
100028b4:	6263      	str	r3, [r4, #36]	; 0x24
100028b6:	62a3      	str	r3, [r4, #40]	; 0x28
100028b8:	62e3      	str	r3, [r4, #44]	; 0x2c
100028ba:	6323      	str	r3, [r4, #48]	; 0x30
100028bc:	6363      	str	r3, [r4, #52]	; 0x34
100028be:	63a3      	str	r3, [r4, #56]	; 0x38
100028c0:	63e3      	str	r3, [r4, #60]	; 0x3c
100028c2:	6423      	str	r3, [r4, #64]	; 0x40
100028c4:	6463      	str	r3, [r4, #68]	; 0x44
100028c6:	64a3      	str	r3, [r4, #72]	; 0x48
100028c8:	64e3      	str	r3, [r4, #76]	; 0x4c
100028ca:	6523      	str	r3, [r4, #80]	; 0x50
100028cc:	6563      	str	r3, [r4, #84]	; 0x54
100028ce:	65a3      	str	r3, [r4, #88]	; 0x58
100028d0:	65e3      	str	r3, [r4, #92]	; 0x5c
100028d2:	6623      	str	r3, [r4, #96]	; 0x60
100028d4:	6663      	str	r3, [r4, #100]	; 0x64
100028d6:	66a3      	str	r3, [r4, #104]	; 0x68
100028d8:	66e3      	str	r3, [r4, #108]	; 0x6c
100028da:	6723      	str	r3, [r4, #112]	; 0x70
100028dc:	6763      	str	r3, [r4, #116]	; 0x74
100028de:	67a3      	str	r3, [r4, #120]	; 0x78
100028e0:	67e3      	str	r3, [r4, #124]	; 0x7c
100028e2:	64a3      	str	r3, [r4, #72]	; 0x48
100028e4:	e7d1      	b.n	1000288a <__aeabi_double_init+0x2a>
100028e6:	46c0      	nop			; (mov r8, r8)
100028e8:	00004453 	.word	0x00004453
100028ec:	00004653 	.word	0x00004653
100028f0:	20000e98 	.word	0x20000e98
100028f4:	0000334c 	.word	0x0000334c
100028f8:	20001180 	.word	0x20001180
100028fc:	10002901 	.word	0x10002901

10002900 <double_table_shim_on_use_helper>:
10002900:	b507      	push	{r0, r1, r2, lr}
10002902:	4660      	mov	r0, ip
10002904:	8801      	ldrh	r1, [r0, #0]
10002906:	0a0a      	lsrs	r2, r1, #8
10002908:	3002      	adds	r0, #2
1000290a:	2adf      	cmp	r2, #223	; 0xdf
1000290c:	d1fa      	bne.n	10002904 <double_table_shim_on_use_helper+0x4>
1000290e:	b2c9      	uxtb	r1, r1
10002910:	0882      	lsrs	r2, r0, #2
10002912:	d304      	bcc.n	1000291e <double_table_shim_on_use_helper+0x1e>
10002914:	8802      	ldrh	r2, [r0, #0]
10002916:	8840      	ldrh	r0, [r0, #2]
10002918:	0400      	lsls	r0, r0, #16
1000291a:	4310      	orrs	r0, r2
1000291c:	e000      	b.n	10002920 <double_table_shim_on_use_helper+0x20>
1000291e:	6800      	ldr	r0, [r0, #0]
10002920:	4a01      	ldr	r2, [pc, #4]	; (10002928 <double_table_shim_on_use_helper+0x28>)
10002922:	5050      	str	r0, [r2, r1]
10002924:	9003      	str	r0, [sp, #12]
10002926:	bd07      	pop	{r0, r1, r2, pc}
10002928:	20000e98 	.word	0x20000e98

1000292c <drsub_shim>:
1000292c:	b40f      	push	{r0, r1, r2, r3}
1000292e:	bc03      	pop	{r0, r1}
10002930:	bc0c      	pop	{r2, r3}

10002932 <dsub_shim>:
10002932:	b5f0      	push	{r4, r5, r6, r7, lr}
10002934:	2401      	movs	r4, #1
10002936:	07e4      	lsls	r4, r4, #31
10002938:	4063      	eors	r3, r4
1000293a:	e000      	b.n	1000293e <da_entry>

1000293c <dadd_shim>:
1000293c:	b5f0      	push	{r4, r5, r6, r7, lr}

1000293e <da_entry>:
1000293e:	0d0c      	lsrs	r4, r1, #20
10002940:	0fcf      	lsrs	r7, r1, #31
10002942:	1e66      	subs	r6, r4, #1
10002944:	0536      	lsls	r6, r6, #20
10002946:	1b89      	subs	r1, r1, r6
10002948:	0564      	lsls	r4, r4, #21
1000294a:	d303      	bcc.n	10002954 <l8_1>
1000294c:	43c9      	mvns	r1, r1
1000294e:	4240      	negs	r0, r0
10002950:	d300      	bcc.n	10002954 <l8_1>
10002952:	3101      	adds	r1, #1

10002954 <l8_1>:
10002954:	0d64      	lsrs	r4, r4, #21
10002956:	d003      	beq.n	10002960 <l8_2>
10002958:	1c66      	adds	r6, r4, #1
1000295a:	0af6      	lsrs	r6, r6, #11
1000295c:	d007      	beq.n	1000296e <l8_3>
1000295e:	1be4      	subs	r4, r4, r7

10002960 <l8_2>:
10002960:	2000      	movs	r0, #0
10002962:	007f      	lsls	r7, r7, #1
10002964:	1c79      	adds	r1, r7, #1
10002966:	0789      	lsls	r1, r1, #30
10002968:	1289      	asrs	r1, r1, #10
1000296a:	3c80      	subs	r4, #128	; 0x80
1000296c:	0324      	lsls	r4, r4, #12

1000296e <l8_3>:
1000296e:	0d1d      	lsrs	r5, r3, #20
10002970:	0fdf      	lsrs	r7, r3, #31
10002972:	1e6e      	subs	r6, r5, #1
10002974:	0536      	lsls	r6, r6, #20
10002976:	1b9b      	subs	r3, r3, r6
10002978:	056d      	lsls	r5, r5, #21
1000297a:	d303      	bcc.n	10002984 <l9_1>
1000297c:	43db      	mvns	r3, r3
1000297e:	4252      	negs	r2, r2
10002980:	d300      	bcc.n	10002984 <l9_1>
10002982:	3301      	adds	r3, #1

10002984 <l9_1>:
10002984:	0d6d      	lsrs	r5, r5, #21
10002986:	d003      	beq.n	10002990 <l9_2>
10002988:	1c6e      	adds	r6, r5, #1
1000298a:	0af6      	lsrs	r6, r6, #11
1000298c:	d007      	beq.n	1000299e <l9_3>
1000298e:	1bed      	subs	r5, r5, r7

10002990 <l9_2>:
10002990:	2200      	movs	r2, #0
10002992:	007f      	lsls	r7, r7, #1
10002994:	1c7b      	adds	r3, r7, #1
10002996:	079b      	lsls	r3, r3, #30
10002998:	129b      	asrs	r3, r3, #10
1000299a:	3d80      	subs	r5, #128	; 0x80
1000299c:	032d      	lsls	r5, r5, #12

1000299e <l9_3>:
1000299e:	1b2f      	subs	r7, r5, r4
100029a0:	1b66      	subs	r6, r4, r5
100029a2:	d458      	bmi.n	10002a56 <da_ygtx>
100029a4:	46a4      	mov	ip, r4
100029a6:	2e20      	cmp	r6, #32
100029a8:	da46      	bge.n	10002a38 <da_xrgty>
100029aa:	3720      	adds	r7, #32
100029ac:	0014      	movs	r4, r2
100029ae:	40bc      	lsls	r4, r7

100029b0 <da_xgty0>:
100029b0:	001d      	movs	r5, r3
100029b2:	40bd      	lsls	r5, r7
100029b4:	40f2      	lsrs	r2, r6
100029b6:	4133      	asrs	r3, r6
100029b8:	432a      	orrs	r2, r5

100029ba <da_add>:
100029ba:	1880      	adds	r0, r0, r2
100029bc:	4159      	adcs	r1, r3

100029be <da_pack>:
100029be:	0fcb      	lsrs	r3, r1, #31
100029c0:	d005      	beq.n	100029ce <da_pack+0x10>
100029c2:	43c9      	mvns	r1, r1
100029c4:	43c0      	mvns	r0, r0
100029c6:	2200      	movs	r2, #0
100029c8:	4264      	negs	r4, r4
100029ca:	4150      	adcs	r0, r2
100029cc:	4151      	adcs	r1, r2
100029ce:	4662      	mov	r2, ip
100029d0:	0d4d      	lsrs	r5, r1, #21
100029d2:	d128      	bne.n	10002a26 <da_0>
100029d4:	0d0d      	lsrs	r5, r1, #20
100029d6:	d107      	bne.n	100029e8 <da_1>
100029d8:	2800      	cmp	r0, #0
100029da:	d01f      	beq.n	10002a1c <da_5>

100029dc <da_2>:
100029dc:	1924      	adds	r4, r4, r4
100029de:	4140      	adcs	r0, r0
100029e0:	4149      	adcs	r1, r1
100029e2:	3a01      	subs	r2, #1
100029e4:	0d0d      	lsrs	r5, r1, #20
100029e6:	d0f9      	beq.n	100029dc <da_2>

100029e8 <da_1>:
100029e8:	0064      	lsls	r4, r4, #1
100029ea:	d306      	bcc.n	100029fa <da_3>

100029ec <da_4>:
100029ec:	3001      	adds	r0, #1
100029ee:	d300      	bcc.n	100029f2 <da_4+0x6>
100029f0:	3101      	adds	r1, #1
100029f2:	2c00      	cmp	r4, #0
100029f4:	d101      	bne.n	100029fa <da_3>
100029f6:	0840      	lsrs	r0, r0, #1
100029f8:	0040      	lsls	r0, r0, #1

100029fa <da_3>:
100029fa:	3a01      	subs	r2, #1
100029fc:	d40b      	bmi.n	10002a16 <da_6>
100029fe:	1c94      	adds	r4, r2, #2
10002a00:	0ae4      	lsrs	r4, r4, #11
10002a02:	d104      	bne.n	10002a0e <da_7>
10002a04:	0512      	lsls	r2, r2, #20
10002a06:	4411      	add	r1, r2
10002a08:	07db      	lsls	r3, r3, #31
10002a0a:	4419      	add	r1, r3
10002a0c:	bdf0      	pop	{r4, r5, r6, r7, pc}

10002a0e <da_7>:
10002a0e:	07d9      	lsls	r1, r3, #31
10002a10:	4b20      	ldr	r3, [pc, #128]	; (10002a94 <da_xmgty+0x4>)
10002a12:	4319      	orrs	r1, r3
10002a14:	e000      	b.n	10002a18 <da_6+0x2>

10002a16 <da_6>:
10002a16:	07d9      	lsls	r1, r3, #31
10002a18:	2000      	movs	r0, #0
10002a1a:	bdf0      	pop	{r4, r5, r6, r7, pc}

10002a1c <da_5>:
10002a1c:	2900      	cmp	r1, #0
10002a1e:	d1dd      	bne.n	100029dc <da_2>
10002a20:	2c00      	cmp	r4, #0
10002a22:	d1db      	bne.n	100029dc <da_2>
10002a24:	bdf0      	pop	{r4, r5, r6, r7, pc}

10002a26 <da_0>:
10002a26:	3201      	adds	r2, #1
10002a28:	07c6      	lsls	r6, r0, #31
10002a2a:	0840      	lsrs	r0, r0, #1
10002a2c:	07cd      	lsls	r5, r1, #31
10002a2e:	4328      	orrs	r0, r5
10002a30:	0849      	lsrs	r1, r1, #1
10002a32:	2e00      	cmp	r6, #0
10002a34:	d0e1      	beq.n	100029fa <da_3>
10002a36:	e7d9      	b.n	100029ec <da_4>

10002a38 <da_xrgty>:
10002a38:	2e3c      	cmp	r6, #60	; 0x3c
10002a3a:	da29      	bge.n	10002a90 <da_xmgty>
10002a3c:	3e20      	subs	r6, #32
10002a3e:	3740      	adds	r7, #64	; 0x40
10002a40:	0014      	movs	r4, r2
10002a42:	40bc      	lsls	r4, r7
10002a44:	d000      	beq.n	10002a48 <da_xrgty+0x10>
10002a46:	2401      	movs	r4, #1
10002a48:	40f2      	lsrs	r2, r6
10002a4a:	4314      	orrs	r4, r2
10002a4c:	001a      	movs	r2, r3
10002a4e:	40bb      	lsls	r3, r7
10002a50:	431c      	orrs	r4, r3
10002a52:	17d3      	asrs	r3, r2, #31
10002a54:	e7ac      	b.n	100029b0 <da_xgty0>

10002a56 <da_ygtx>:
10002a56:	46ac      	mov	ip, r5
10002a58:	2f20      	cmp	r7, #32
10002a5a:	da08      	bge.n	10002a6e <da_yrgtx>
10002a5c:	3620      	adds	r6, #32
10002a5e:	0004      	movs	r4, r0
10002a60:	40b4      	lsls	r4, r6

10002a62 <da_ygtx0>:
10002a62:	000d      	movs	r5, r1
10002a64:	40b5      	lsls	r5, r6
10002a66:	40f8      	lsrs	r0, r7
10002a68:	4139      	asrs	r1, r7
10002a6a:	4328      	orrs	r0, r5
10002a6c:	e7a5      	b.n	100029ba <da_add>

10002a6e <da_yrgtx>:
10002a6e:	2f3c      	cmp	r7, #60	; 0x3c
10002a70:	da0c      	bge.n	10002a8c <da_ymgtx>
10002a72:	3f20      	subs	r7, #32
10002a74:	3640      	adds	r6, #64	; 0x40
10002a76:	0004      	movs	r4, r0
10002a78:	40b4      	lsls	r4, r6
10002a7a:	d000      	beq.n	10002a7e <da_yrgtx+0x10>
10002a7c:	2401      	movs	r4, #1
10002a7e:	40f8      	lsrs	r0, r7
10002a80:	4304      	orrs	r4, r0
10002a82:	0008      	movs	r0, r1
10002a84:	40b1      	lsls	r1, r6
10002a86:	430c      	orrs	r4, r1
10002a88:	17c1      	asrs	r1, r0, #31
10002a8a:	e7ea      	b.n	10002a62 <da_ygtx0>

10002a8c <da_ymgtx>:
10002a8c:	0010      	movs	r0, r2
10002a8e:	0019      	movs	r1, r3

10002a90 <da_xmgty>:
10002a90:	2400      	movs	r4, #0
10002a92:	e794      	b.n	100029be <da_pack>
10002a94:	7ff00000 	.word	0x7ff00000

10002a98 <dmul_shim>:
10002a98:	b5f0      	push	{r4, r5, r6, r7, lr}
10002a9a:	0d0c      	lsrs	r4, r1, #20
10002a9c:	1e66      	subs	r6, r4, #1
10002a9e:	0536      	lsls	r6, r6, #20
10002aa0:	1b89      	subs	r1, r1, r6
10002aa2:	0ae6      	lsrs	r6, r4, #11
10002aa4:	0564      	lsls	r4, r4, #21
10002aa6:	0d64      	lsrs	r4, r4, #21
10002aa8:	d002      	beq.n	10002ab0 <l12_1>
10002aaa:	1c65      	adds	r5, r4, #1
10002aac:	0aed      	lsrs	r5, r5, #11
10002aae:	d004      	beq.n	10002aba <l12_2>

10002ab0 <l12_1>:
10002ab0:	2000      	movs	r0, #0
10002ab2:	2101      	movs	r1, #1
10002ab4:	0509      	lsls	r1, r1, #20
10002ab6:	3c80      	subs	r4, #128	; 0x80
10002ab8:	0324      	lsls	r4, r4, #12

10002aba <l12_2>:
10002aba:	46a4      	mov	ip, r4
10002abc:	0d1c      	lsrs	r4, r3, #20
10002abe:	1e67      	subs	r7, r4, #1
10002ac0:	053f      	lsls	r7, r7, #20
10002ac2:	1bdb      	subs	r3, r3, r7
10002ac4:	0ae7      	lsrs	r7, r4, #11
10002ac6:	0564      	lsls	r4, r4, #21
10002ac8:	0d64      	lsrs	r4, r4, #21
10002aca:	d002      	beq.n	10002ad2 <l13_1>
10002acc:	1c65      	adds	r5, r4, #1
10002ace:	0aed      	lsrs	r5, r5, #11
10002ad0:	d004      	beq.n	10002adc <l13_2>

10002ad2 <l13_1>:
10002ad2:	2200      	movs	r2, #0
10002ad4:	2301      	movs	r3, #1
10002ad6:	051b      	lsls	r3, r3, #20
10002ad8:	3c80      	subs	r4, #128	; 0x80
10002ada:	0324      	lsls	r4, r4, #12

10002adc <l13_2>:
10002adc:	4077      	eors	r7, r6
10002ade:	4464      	add	r4, ip
10002ae0:	b497      	push	{r0, r1, r2, r4, r7}
10002ae2:	b284      	uxth	r4, r0
10002ae4:	b296      	uxth	r6, r2
10002ae6:	4374      	muls	r4, r6
10002ae8:	0c07      	lsrs	r7, r0, #16
10002aea:	437e      	muls	r6, r7
10002aec:	0c15      	lsrs	r5, r2, #16
10002aee:	436f      	muls	r7, r5
10002af0:	b280      	uxth	r0, r0
10002af2:	4368      	muls	r0, r5
10002af4:	1836      	adds	r6, r6, r0
10002af6:	d302      	bcc.n	10002afe <l14_1>
10002af8:	2001      	movs	r0, #1
10002afa:	0400      	lsls	r0, r0, #16
10002afc:	183f      	adds	r7, r7, r0

10002afe <l14_1>:
10002afe:	0430      	lsls	r0, r6, #16
10002b00:	0c35      	lsrs	r5, r6, #16
10002b02:	1900      	adds	r0, r0, r4
10002b04:	417d      	adcs	r5, r7
10002b06:	4684      	mov	ip, r0
10002b08:	b288      	uxth	r0, r1
10002b0a:	b29a      	uxth	r2, r3
10002b0c:	4350      	muls	r0, r2
10002b0e:	0c0c      	lsrs	r4, r1, #16
10002b10:	4362      	muls	r2, r4
10002b12:	0c1f      	lsrs	r7, r3, #16
10002b14:	437c      	muls	r4, r7
10002b16:	b28e      	uxth	r6, r1
10002b18:	437e      	muls	r6, r7
10002b1a:	1992      	adds	r2, r2, r6
10002b1c:	d302      	bcc.n	10002b24 <l15_1>
10002b1e:	2601      	movs	r6, #1
10002b20:	0436      	lsls	r6, r6, #16
10002b22:	19a4      	adds	r4, r4, r6

10002b24 <l15_1>:
10002b24:	0416      	lsls	r6, r2, #16
10002b26:	0c17      	lsrs	r7, r2, #16
10002b28:	1836      	adds	r6, r6, r0
10002b2a:	4167      	adcs	r7, r4
10002b2c:	bc01      	pop	{r0}
10002b2e:	b281      	uxth	r1, r0
10002b30:	b29a      	uxth	r2, r3
10002b32:	4351      	muls	r1, r2
10002b34:	0c04      	lsrs	r4, r0, #16
10002b36:	4362      	muls	r2, r4
10002b38:	0c1b      	lsrs	r3, r3, #16
10002b3a:	435c      	muls	r4, r3
10002b3c:	b280      	uxth	r0, r0
10002b3e:	4358      	muls	r0, r3
10002b40:	1812      	adds	r2, r2, r0
10002b42:	d302      	bcc.n	10002b4a <l16_1>
10002b44:	2001      	movs	r0, #1
10002b46:	0400      	lsls	r0, r0, #16
10002b48:	1824      	adds	r4, r4, r0

10002b4a <l16_1>:
10002b4a:	0410      	lsls	r0, r2, #16
10002b4c:	0c13      	lsrs	r3, r2, #16
10002b4e:	1840      	adds	r0, r0, r1
10002b50:	4163      	adcs	r3, r4
10002b52:	182d      	adds	r5, r5, r0
10002b54:	415e      	adcs	r6, r3
10002b56:	2000      	movs	r0, #0
10002b58:	4147      	adcs	r7, r0
10002b5a:	bc06      	pop	{r1, r2}
10002b5c:	b288      	uxth	r0, r1
10002b5e:	b293      	uxth	r3, r2
10002b60:	4358      	muls	r0, r3
10002b62:	0c0c      	lsrs	r4, r1, #16
10002b64:	4363      	muls	r3, r4
10002b66:	0c12      	lsrs	r2, r2, #16
10002b68:	4354      	muls	r4, r2
10002b6a:	b289      	uxth	r1, r1
10002b6c:	4351      	muls	r1, r2
10002b6e:	185b      	adds	r3, r3, r1
10002b70:	d302      	bcc.n	10002b78 <l17_1>
10002b72:	2101      	movs	r1, #1
10002b74:	0409      	lsls	r1, r1, #16
10002b76:	1864      	adds	r4, r4, r1

10002b78 <l17_1>:
10002b78:	0419      	lsls	r1, r3, #16
10002b7a:	0c1a      	lsrs	r2, r3, #16
10002b7c:	1809      	adds	r1, r1, r0
10002b7e:	4162      	adcs	r2, r4
10002b80:	186d      	adds	r5, r5, r1
10002b82:	4156      	adcs	r6, r2
10002b84:	2000      	movs	r0, #0
10002b86:	4147      	adcs	r7, r0
10002b88:	bc18      	pop	{r3, r4}
10002b8a:	02f9      	lsls	r1, r7, #11
10002b8c:	0d72      	lsrs	r2, r6, #21
10002b8e:	4311      	orrs	r1, r2
10002b90:	02f0      	lsls	r0, r6, #11
10002b92:	0d6a      	lsrs	r2, r5, #21
10002b94:	4310      	orrs	r0, r2
10002b96:	02ed      	lsls	r5, r5, #11
10002b98:	0d0a      	lsrs	r2, r1, #20
10002b9a:	d103      	bne.n	10002ba4 <l17_1+0x2c>
10002b9c:	196d      	adds	r5, r5, r5
10002b9e:	4140      	adcs	r0, r0
10002ba0:	4149      	adcs	r1, r1
10002ba2:	3b01      	subs	r3, #1
10002ba4:	4e12      	ldr	r6, [pc, #72]	; (10002bf0 <dm_1+0xa>)
10002ba6:	1b9b      	subs	r3, r3, r6
10002ba8:	0076      	lsls	r6, r6, #1
10002baa:	42b3      	cmp	r3, r6
10002bac:	d20e      	bcs.n	10002bcc <dm_0>
10002bae:	006d      	lsls	r5, r5, #1
10002bb0:	d307      	bcc.n	10002bc2 <l17_1+0x4a>
10002bb2:	3001      	adds	r0, #1
10002bb4:	2600      	movs	r6, #0
10002bb6:	4171      	adcs	r1, r6
10002bb8:	4666      	mov	r6, ip
10002bba:	4335      	orrs	r5, r6
10002bbc:	d101      	bne.n	10002bc2 <l17_1+0x4a>
10002bbe:	0840      	lsrs	r0, r0, #1
10002bc0:	0040      	lsls	r0, r0, #1
10002bc2:	051b      	lsls	r3, r3, #20
10002bc4:	18c9      	adds	r1, r1, r3

10002bc6 <dm_2>:
10002bc6:	07e4      	lsls	r4, r4, #31
10002bc8:	4421      	add	r1, r4
10002bca:	bdf0      	pop	{r4, r5, r6, r7, pc}

10002bcc <dm_0>:
10002bcc:	da0b      	bge.n	10002be6 <dm_1>
10002bce:	3301      	adds	r3, #1
10002bd0:	d106      	bne.n	10002be0 <dm_0+0x14>
10002bd2:	3001      	adds	r0, #1
10002bd4:	d104      	bne.n	10002be0 <dm_0+0x14>
10002bd6:	3101      	adds	r1, #1
10002bd8:	0d4f      	lsrs	r7, r1, #21
10002bda:	d001      	beq.n	10002be0 <dm_0+0x14>
10002bdc:	0849      	lsrs	r1, r1, #1
10002bde:	e7f2      	b.n	10002bc6 <dm_2>
10002be0:	07e1      	lsls	r1, r4, #31
10002be2:	2000      	movs	r0, #0
10002be4:	bdf0      	pop	{r4, r5, r6, r7, pc}

10002be6 <dm_1>:
10002be6:	3601      	adds	r6, #1
10002be8:	0531      	lsls	r1, r6, #20
10002bea:	2000      	movs	r0, #0
10002bec:	e7eb      	b.n	10002bc6 <dm_2>
10002bee:	0000      	.short	0x0000
10002bf0:	000003ff 	.word	0x000003ff

10002bf4 <ddiv_shim>:
10002bf4:	b5f0      	push	{r4, r5, r6, r7, lr}

10002bf6 <ddiv0>:
10002bf6:	0d1c      	lsrs	r4, r3, #20
10002bf8:	1e67      	subs	r7, r4, #1
10002bfa:	053f      	lsls	r7, r7, #20
10002bfc:	1bdb      	subs	r3, r3, r7
10002bfe:	0ae7      	lsrs	r7, r4, #11
10002c00:	0564      	lsls	r4, r4, #21
10002c02:	0d64      	lsrs	r4, r4, #21
10002c04:	d002      	beq.n	10002c0c <l20_1>
10002c06:	1c66      	adds	r6, r4, #1
10002c08:	0af6      	lsrs	r6, r6, #11
10002c0a:	d004      	beq.n	10002c16 <l20_2>

10002c0c <l20_1>:
10002c0c:	2200      	movs	r2, #0
10002c0e:	2301      	movs	r3, #1
10002c10:	051b      	lsls	r3, r3, #20
10002c12:	3c80      	subs	r4, #128	; 0x80
10002c14:	0324      	lsls	r4, r4, #12

10002c16 <l20_2>:
10002c16:	25d0      	movs	r5, #208	; 0xd0
10002c18:	062d      	lsls	r5, r5, #24
10002c1a:	2600      	movs	r6, #0
10002c1c:	43f6      	mvns	r6, r6
10002c1e:	662e      	str	r6, [r5, #96]	; 0x60
10002c20:	091e      	lsrs	r6, r3, #4
10002c22:	666e      	str	r6, [r5, #100]	; 0x64
10002c24:	0fce      	lsrs	r6, r1, #31
10002c26:	19f6      	adds	r6, r6, r7
10002c28:	46b4      	mov	ip, r6
10002c2a:	0049      	lsls	r1, r1, #1
10002c2c:	0d4f      	lsrs	r7, r1, #21
10002c2e:	d002      	beq.n	10002c36 <l20_2+0x20>
10002c30:	1c7e      	adds	r6, r7, #1
10002c32:	0af6      	lsrs	r6, r6, #11
10002c34:	d003      	beq.n	10002c3e <l20_2+0x28>
10002c36:	2000      	movs	r0, #0
10002c38:	2100      	movs	r1, #0
10002c3a:	3f40      	subs	r7, #64	; 0x40
10002c3c:	033f      	lsls	r7, r7, #12
10002c3e:	1b3e      	subs	r6, r7, r4
10002c40:	00b6      	lsls	r6, r6, #2
10002c42:	44b4      	add	ip, r6
10002c44:	3f01      	subs	r7, #1
10002c46:	057f      	lsls	r7, r7, #21
10002c48:	1bc9      	subs	r1, r1, r7
10002c4a:	0849      	lsrs	r1, r1, #1
10002c4c:	6f2e      	ldr	r6, [r5, #112]	; 0x70
10002c4e:	3601      	adds	r6, #1
10002c50:	0876      	lsrs	r6, r6, #1
10002c52:	029c      	lsls	r4, r3, #10
10002c54:	0d95      	lsrs	r5, r2, #22
10002c56:	4325      	orrs	r5, r4
10002c58:	4375      	muls	r5, r6
10002c5a:	13ed      	asrs	r5, r5, #15
10002c5c:	4375      	muls	r5, r6
10002c5e:	13ad      	asrs	r5, r5, #14
10002c60:	3501      	adds	r5, #1
10002c62:	106d      	asrs	r5, r5, #1
10002c64:	03f6      	lsls	r6, r6, #15
10002c66:	1b76      	subs	r6, r6, r5
10002c68:	b40c      	push	{r2, r3}
10002c6a:	02cc      	lsls	r4, r1, #11
10002c6c:	0d45      	lsrs	r5, r0, #21
10002c6e:	432c      	orrs	r4, r5
10002c70:	b2a2      	uxth	r2, r4
10002c72:	b2b3      	uxth	r3, r6
10002c74:	435a      	muls	r2, r3
10002c76:	0c27      	lsrs	r7, r4, #16
10002c78:	437b      	muls	r3, r7
10002c7a:	0c35      	lsrs	r5, r6, #16
10002c7c:	436f      	muls	r7, r5
10002c7e:	b2a4      	uxth	r4, r4
10002c80:	436c      	muls	r4, r5
10002c82:	191b      	adds	r3, r3, r4
10002c84:	d302      	bcc.n	10002c8c <l21_1>
10002c86:	2401      	movs	r4, #1
10002c88:	0424      	lsls	r4, r4, #16
10002c8a:	193f      	adds	r7, r7, r4

10002c8c <l21_1>:
10002c8c:	041c      	lsls	r4, r3, #16
10002c8e:	0c1d      	lsrs	r5, r3, #16
10002c90:	18a4      	adds	r4, r4, r2
10002c92:	417d      	adcs	r5, r7
10002c94:	1924      	adds	r4, r4, r4
10002c96:	416d      	adcs	r5, r5
10002c98:	9a00      	ldr	r2, [sp, #0]
10002c9a:	b291      	uxth	r1, r2
10002c9c:	b2ac      	uxth	r4, r5
10002c9e:	4361      	muls	r1, r4
10002ca0:	0c17      	lsrs	r7, r2, #16
10002ca2:	437c      	muls	r4, r7
10002ca4:	0c2b      	lsrs	r3, r5, #16
10002ca6:	435f      	muls	r7, r3
10002ca8:	b292      	uxth	r2, r2
10002caa:	435a      	muls	r2, r3
10002cac:	18a4      	adds	r4, r4, r2
10002cae:	d302      	bcc.n	10002cb6 <l22_1>
10002cb0:	2201      	movs	r2, #1
10002cb2:	0412      	lsls	r2, r2, #16
10002cb4:	18bf      	adds	r7, r7, r2

10002cb6 <l22_1>:
10002cb6:	0422      	lsls	r2, r4, #16
10002cb8:	0c23      	lsrs	r3, r4, #16
10002cba:	1852      	adds	r2, r2, r1
10002cbc:	417b      	adcs	r3, r7
10002cbe:	9c01      	ldr	r4, [sp, #4]
10002cc0:	436c      	muls	r4, r5
10002cc2:	191b      	adds	r3, r3, r4
10002cc4:	0e52      	lsrs	r2, r2, #25
10002cc6:	01d9      	lsls	r1, r3, #7
10002cc8:	430a      	orrs	r2, r1
10002cca:	0144      	lsls	r4, r0, #5
10002ccc:	1aa0      	subs	r0, r4, r2
10002cce:	b281      	uxth	r1, r0
10002cd0:	b2b2      	uxth	r2, r6
10002cd2:	4351      	muls	r1, r2
10002cd4:	1403      	asrs	r3, r0, #16
10002cd6:	435a      	muls	r2, r3
10002cd8:	0c36      	lsrs	r6, r6, #16
10002cda:	4373      	muls	r3, r6
10002cdc:	b287      	uxth	r7, r0
10002cde:	4377      	muls	r7, r6
10002ce0:	17d6      	asrs	r6, r2, #31
10002ce2:	19d2      	adds	r2, r2, r7
10002ce4:	2700      	movs	r7, #0
10002ce6:	417e      	adcs	r6, r7
10002ce8:	0436      	lsls	r6, r6, #16
10002cea:	199b      	adds	r3, r3, r6
10002cec:	0417      	lsls	r7, r2, #16
10002cee:	0c16      	lsrs	r6, r2, #16
10002cf0:	187f      	adds	r7, r7, r1
10002cf2:	415e      	adcs	r6, r3
10002cf4:	1673      	asrs	r3, r6, #25
10002cf6:	18ed      	adds	r5, r5, r3
10002cf8:	01f3      	lsls	r3, r6, #7
10002cfa:	2600      	movs	r6, #0
10002cfc:	3380      	adds	r3, #128	; 0x80
10002cfe:	4175      	adcs	r5, r6
10002d00:	0fa9      	lsrs	r1, r5, #30
10002d02:	d106      	bne.n	10002d12 <dd_0>
10002d04:	0064      	lsls	r4, r4, #1
10002d06:	0a69      	lsrs	r1, r5, #9
10002d08:	05e8      	lsls	r0, r5, #23
10002d0a:	0a5b      	lsrs	r3, r3, #9
10002d0c:	4318      	orrs	r0, r3
10002d0e:	d209      	bcs.n	10002d24 <dd_1>
10002d10:	e02f      	b.n	10002d72 <dd_2>

10002d12 <dd_0>:
10002d12:	2204      	movs	r2, #4
10002d14:	4494      	add	ip, r2
10002d16:	3380      	adds	r3, #128	; 0x80
10002d18:	4175      	adcs	r5, r6
10002d1a:	0aa9      	lsrs	r1, r5, #10
10002d1c:	05a8      	lsls	r0, r5, #22
10002d1e:	0a9b      	lsrs	r3, r3, #10
10002d20:	4318      	orrs	r0, r3
10002d22:	d326      	bcc.n	10002d72 <dd_2>

10002d24 <dd_1>:
10002d24:	4140      	adcs	r0, r0
10002d26:	4149      	adcs	r1, r1
10002d28:	0424      	lsls	r4, r4, #16
10002d2a:	9a00      	ldr	r2, [sp, #0]
10002d2c:	9b01      	ldr	r3, [sp, #4]
10002d2e:	000d      	movs	r5, r1
10002d30:	4355      	muls	r5, r2
10002d32:	1b64      	subs	r4, r4, r5
10002d34:	4343      	muls	r3, r0
10002d36:	1ae4      	subs	r4, r4, r3
10002d38:	b295      	uxth	r5, r2
10002d3a:	b286      	uxth	r6, r0
10002d3c:	4375      	muls	r5, r6
10002d3e:	0c17      	lsrs	r7, r2, #16
10002d40:	437e      	muls	r6, r7
10002d42:	0c03      	lsrs	r3, r0, #16
10002d44:	435f      	muls	r7, r3
10002d46:	b292      	uxth	r2, r2
10002d48:	435a      	muls	r2, r3
10002d4a:	18b6      	adds	r6, r6, r2
10002d4c:	d302      	bcc.n	10002d54 <l24_1>
10002d4e:	2201      	movs	r2, #1
10002d50:	0412      	lsls	r2, r2, #16
10002d52:	18bf      	adds	r7, r7, r2

10002d54 <l24_1>:
10002d54:	0432      	lsls	r2, r6, #16
10002d56:	0c33      	lsrs	r3, r6, #16
10002d58:	1952      	adds	r2, r2, r5
10002d5a:	417b      	adcs	r3, r7
10002d5c:	4252      	negs	r2, r2
10002d5e:	419c      	sbcs	r4, r3
10002d60:	2c00      	cmp	r4, #0
10002d62:	d402      	bmi.n	10002d6a <l24_1+0x16>
10002d64:	2200      	movs	r2, #0
10002d66:	3001      	adds	r0, #1
10002d68:	4151      	adcs	r1, r2
10002d6a:	0840      	lsrs	r0, r0, #1
10002d6c:	07ca      	lsls	r2, r1, #31
10002d6e:	4310      	orrs	r0, r2
10002d70:	0849      	lsrs	r1, r1, #1

10002d72 <dd_2>:
10002d72:	b002      	add	sp, #8
10002d74:	4662      	mov	r2, ip
10002d76:	07d7      	lsls	r7, r2, #31
10002d78:	1092      	asrs	r2, r2, #2
10002d7a:	4b08      	ldr	r3, [pc, #32]	; (10002d9c <dd_4+0x6>)
10002d7c:	18d2      	adds	r2, r2, r3
10002d7e:	4b08      	ldr	r3, [pc, #32]	; (10002da0 <dd_4+0xa>)
10002d80:	429a      	cmp	r2, r3
10002d82:	d203      	bcs.n	10002d8c <dd_3>
10002d84:	0512      	lsls	r2, r2, #20
10002d86:	1889      	adds	r1, r1, r2

10002d88 <dd_5>:
10002d88:	19c9      	adds	r1, r1, r7
10002d8a:	bdf0      	pop	{r4, r5, r6, r7, pc}

10002d8c <dd_3>:
10002d8c:	2000      	movs	r0, #0
10002d8e:	2a00      	cmp	r2, #0
10002d90:	dc01      	bgt.n	10002d96 <dd_4>
10002d92:	0039      	movs	r1, r7
10002d94:	bdf0      	pop	{r4, r5, r6, r7, pc}

10002d96 <dd_4>:
10002d96:	3301      	adds	r3, #1
10002d98:	0519      	lsls	r1, r3, #20
10002d9a:	e7f5      	b.n	10002d88 <dd_5>
10002d9c:	000003fd 	.word	0x000003fd
10002da0:	000007fe 	.word	0x000007fe

10002da4 <double2uint_shim>:
10002da4:	2200      	movs	r2, #0

10002da6 <double2ufix_shim>:
10002da6:	b500      	push	{lr}
10002da8:	3220      	adds	r2, #32
10002daa:	f000 f804 	bl	10002db6 <double2ufix64_shim>
10002dae:	0008      	movs	r0, r1
10002db0:	bd00      	pop	{pc}
	...

10002db4 <double2uint64_shim>:
10002db4:	2200      	movs	r2, #0

10002db6 <double2ufix64_shim>:
10002db6:	150b      	asrs	r3, r1, #20
10002db8:	d40a      	bmi.n	10002dd0 <ret_dzero>

10002dba <d2fix>:
10002dba:	b510      	push	{r4, lr}
10002dbc:	4694      	mov	ip, r2
10002dbe:	f000 f831 	bl	10002e24 <dunpacks>
10002dc2:	1414      	asrs	r4, r2, #16
10002dc4:	3401      	adds	r4, #1
10002dc6:	da00      	bge.n	10002dca <d2fix+0x10>
10002dc8:	2100      	movs	r1, #0
10002dca:	17cb      	asrs	r3, r1, #31
10002dcc:	4c14      	ldr	r4, [pc, #80]	; (10002e20 <d2fix_a+0x4a>)
10002dce:	4720      	bx	r4

10002dd0 <ret_dzero>:
10002dd0:	2000      	movs	r0, #0
10002dd2:	2100      	movs	r1, #0
10002dd4:	4770      	bx	lr

10002dd6 <d2fix_a>:
10002dd6:	4462      	add	r2, ip
10002dd8:	3a34      	subs	r2, #52	; 0x34
10002dda:	d40c      	bmi.n	10002df6 <d2fix_a+0x20>
10002ddc:	2a0c      	cmp	r2, #12
10002dde:	da07      	bge.n	10002df0 <d2fix_a+0x1a>
10002de0:	0004      	movs	r4, r0
10002de2:	4091      	lsls	r1, r2
10002de4:	4090      	lsls	r0, r2
10002de6:	4252      	negs	r2, r2
10002de8:	3220      	adds	r2, #32
10002dea:	40d4      	lsrs	r4, r2
10002dec:	4321      	orrs	r1, r4
10002dee:	bd10      	pop	{r4, pc}
10002df0:	43d8      	mvns	r0, r3
10002df2:	43d9      	mvns	r1, r3
10002df4:	bd10      	pop	{r4, pc}
10002df6:	3220      	adds	r2, #32
10002df8:	d407      	bmi.n	10002e0a <d2fix_a+0x34>
10002dfa:	460c      	mov	r4, r1
10002dfc:	4094      	lsls	r4, r2
10002dfe:	4252      	negs	r2, r2
10002e00:	3220      	adds	r2, #32
10002e02:	4111      	asrs	r1, r2
10002e04:	40d0      	lsrs	r0, r2
10002e06:	4320      	orrs	r0, r4
10002e08:	bd10      	pop	{r4, pc}
10002e0a:	0008      	movs	r0, r1
10002e0c:	17c9      	asrs	r1, r1, #31
10002e0e:	3220      	adds	r2, #32
10002e10:	d403      	bmi.n	10002e1a <d2fix_a+0x44>
10002e12:	4252      	negs	r2, r2
10002e14:	3220      	adds	r2, #32
10002e16:	4110      	asrs	r0, r2
10002e18:	bd10      	pop	{r4, pc}
10002e1a:	0018      	movs	r0, r3
10002e1c:	0019      	movs	r1, r3
10002e1e:	bd10      	pop	{r4, pc}
10002e20:	10002dd7 	.word	0x10002dd7

10002e24 <dunpacks>:
10002e24:	0d0a      	lsrs	r2, r1, #20
10002e26:	0fcc      	lsrs	r4, r1, #31
10002e28:	1e53      	subs	r3, r2, #1
10002e2a:	051b      	lsls	r3, r3, #20
10002e2c:	1ac9      	subs	r1, r1, r3
10002e2e:	0552      	lsls	r2, r2, #21
10002e30:	d303      	bcc.n	10002e3a <l60_1>
10002e32:	43c9      	mvns	r1, r1
10002e34:	4240      	negs	r0, r0
10002e36:	d300      	bcc.n	10002e3a <l60_1>
10002e38:	3101      	adds	r1, #1

10002e3a <l60_1>:
10002e3a:	0d52      	lsrs	r2, r2, #21
10002e3c:	d003      	beq.n	10002e46 <l60_2>
10002e3e:	1c53      	adds	r3, r2, #1
10002e40:	0adb      	lsrs	r3, r3, #11
10002e42:	d007      	beq.n	10002e54 <l60_3>
10002e44:	1b12      	subs	r2, r2, r4

10002e46 <l60_2>:
10002e46:	2000      	movs	r0, #0
10002e48:	0064      	lsls	r4, r4, #1
10002e4a:	1c61      	adds	r1, r4, #1
10002e4c:	0789      	lsls	r1, r1, #30
10002e4e:	1289      	asrs	r1, r1, #10
10002e50:	3a80      	subs	r2, #128	; 0x80
10002e52:	0312      	lsls	r2, r2, #12

10002e54 <l60_3>:
10002e54:	4b01      	ldr	r3, [pc, #4]	; (10002e5c <l60_3+0x8>)
10002e56:	1ad2      	subs	r2, r2, r3
10002e58:	4770      	bx	lr
10002e5a:	0000      	.short	0x0000
10002e5c:	000003ff 	.word	0x000003ff

10002e60 <__wrap___aeabi_lmul>:
10002e60:	4351      	muls	r1, r2
10002e62:	4343      	muls	r3, r0
10002e64:	18c9      	adds	r1, r1, r3
10002e66:	468c      	mov	ip, r1
10002e68:	0c11      	lsrs	r1, r2, #16
10002e6a:	b283      	uxth	r3, r0
10002e6c:	434b      	muls	r3, r1
10002e6e:	b410      	push	{r4}
10002e70:	0c04      	lsrs	r4, r0, #16
10002e72:	4361      	muls	r1, r4
10002e74:	b292      	uxth	r2, r2
10002e76:	b280      	uxth	r0, r0
10002e78:	4350      	muls	r0, r2
10002e7a:	4362      	muls	r2, r4
10002e7c:	041c      	lsls	r4, r3, #16
10002e7e:	0c1b      	lsrs	r3, r3, #16
10002e80:	1900      	adds	r0, r0, r4
10002e82:	bc10      	pop	{r4}
10002e84:	4159      	adcs	r1, r3
10002e86:	0413      	lsls	r3, r2, #16
10002e88:	0c12      	lsrs	r2, r2, #16
10002e8a:	18c0      	adds	r0, r0, r3
10002e8c:	4151      	adcs	r1, r2
10002e8e:	4461      	add	r1, ip
10002e90:	4770      	bx	lr
	...

10002e94 <__wrap___aeabi_frsub>:
10002e94:	4048      	eors	r0, r1
10002e96:	4041      	eors	r1, r0
10002e98:	4048      	eors	r0, r1

10002e9a <__wrap___aeabi_fsub>:
10002e9a:	4b0e      	ldr	r3, [pc, #56]	; (10002ed4 <__wrap___aeabi_fmul+0x6>)
10002e9c:	685b      	ldr	r3, [r3, #4]
10002e9e:	4718      	bx	r3

10002ea0 <__wrap___aeabi_fadd>:
10002ea0:	4b0c      	ldr	r3, [pc, #48]	; (10002ed4 <__wrap___aeabi_fmul+0x6>)
10002ea2:	681b      	ldr	r3, [r3, #0]
10002ea4:	4718      	bx	r3

10002ea6 <__wrap___aeabi_fdiv>:
10002ea6:	4a0c      	ldr	r2, [pc, #48]	; (10002ed8 <__wrap___aeabi_fmul+0xa>)
10002ea8:	6f93      	ldr	r3, [r2, #120]	; 0x78
10002eaa:	089b      	lsrs	r3, r3, #2
10002eac:	d202      	bcs.n	10002eb4 <fdiv_save_state>

10002eae <fdiv_shim_call>:
10002eae:	4b09      	ldr	r3, [pc, #36]	; (10002ed4 <__wrap___aeabi_fmul+0x6>)
10002eb0:	68db      	ldr	r3, [r3, #12]
10002eb2:	4718      	bx	r3

10002eb4 <fdiv_save_state>:
10002eb4:	b5f0      	push	{r4, r5, r6, r7, lr}
10002eb6:	6e14      	ldr	r4, [r2, #96]	; 0x60
10002eb8:	6e55      	ldr	r5, [r2, #100]	; 0x64
10002eba:	6f57      	ldr	r7, [r2, #116]	; 0x74
10002ebc:	6f16      	ldr	r6, [r2, #112]	; 0x70
10002ebe:	f7ff fff6 	bl	10002eae <fdiv_shim_call>
10002ec2:	4a05      	ldr	r2, [pc, #20]	; (10002ed8 <__wrap___aeabi_fmul+0xa>)
10002ec4:	6614      	str	r4, [r2, #96]	; 0x60
10002ec6:	6655      	str	r5, [r2, #100]	; 0x64
10002ec8:	6757      	str	r7, [r2, #116]	; 0x74
10002eca:	6716      	str	r6, [r2, #112]	; 0x70
10002ecc:	bdf0      	pop	{r4, r5, r6, r7, pc}

10002ece <__wrap___aeabi_fmul>:
10002ece:	4b01      	ldr	r3, [pc, #4]	; (10002ed4 <__wrap___aeabi_fmul+0x6>)
10002ed0:	689b      	ldr	r3, [r3, #8]
10002ed2:	4718      	bx	r3
10002ed4:	20000f98 	.word	0x20000f98
10002ed8:	d0000000 	.word	0xd0000000

10002edc <__wrap___aeabi_ui2f>:
10002edc:	1a49      	subs	r1, r1, r1
10002ede:	2800      	cmp	r0, #0
10002ee0:	d108      	bne.n	10002ef4 <__aeabi_i2f_main>
10002ee2:	4608      	mov	r0, r1
10002ee4:	4770      	bx	lr
	...

10002ee8 <__wrap___aeabi_i2f>:
10002ee8:	0fc1      	lsrs	r1, r0, #31
10002eea:	07c9      	lsls	r1, r1, #31
10002eec:	d500      	bpl.n	10002ef0 <__wrap___aeabi_i2f+0x8>
10002eee:	4240      	negs	r0, r0
10002ef0:	2800      	cmp	r0, #0
10002ef2:	d017      	beq.n	10002f24 <__aeabi_i2f_main+0x30>

10002ef4 <__aeabi_i2f_main>:
10002ef4:	46f4      	mov	ip, lr
10002ef6:	b403      	push	{r0, r1}
10002ef8:	4b0b      	ldr	r3, [pc, #44]	; (10002f28 <__aeabi_i2f_main+0x34>)
10002efa:	681b      	ldr	r3, [r3, #0]
10002efc:	4798      	blx	r3
10002efe:	bc06      	pop	{r1, r2}
10002f00:	4081      	lsls	r1, r0
10002f02:	389e      	subs	r0, #158	; 0x9e
10002f04:	4240      	negs	r0, r0
10002f06:	3180      	adds	r1, #128	; 0x80
10002f08:	d207      	bcs.n	10002f1a <__aeabi_i2f_main+0x26>
10002f0a:	060b      	lsls	r3, r1, #24
10002f0c:	d007      	beq.n	10002f1e <__aeabi_i2f_main+0x2a>
10002f0e:	0049      	lsls	r1, r1, #1
10002f10:	0a49      	lsrs	r1, r1, #9
10002f12:	05c0      	lsls	r0, r0, #23
10002f14:	4310      	orrs	r0, r2
10002f16:	4308      	orrs	r0, r1
10002f18:	4760      	bx	ip
10002f1a:	3001      	adds	r0, #1
10002f1c:	e7f8      	b.n	10002f10 <__aeabi_i2f_main+0x1c>
10002f1e:	0a49      	lsrs	r1, r1, #9
10002f20:	0289      	lsls	r1, r1, #10
10002f22:	e7f5      	b.n	10002f10 <__aeabi_i2f_main+0x1c>
10002f24:	4770      	bx	lr
10002f26:	0000      	.short	0x0000
10002f28:	20001180 	.word	0x20001180

10002f2c <__wrap___aeabi_f2uiz>:
10002f2c:	4b01      	ldr	r3, [pc, #4]	; (10002f34 <__wrap___aeabi_f2uiz+0x8>)
10002f2e:	6a5b      	ldr	r3, [r3, #36]	; 0x24
10002f30:	4718      	bx	r3
10002f32:	0000      	.short	0x0000
10002f34:	20000f98 	.word	0x20000f98

10002f38 <__aeabi_float_init>:
10002f38:	2313      	movs	r3, #19
10002f3a:	b510      	push	{r4, lr}
10002f3c:	4812      	ldr	r0, [pc, #72]	; (10002f88 <__aeabi_float_init+0x50>)
10002f3e:	781c      	ldrb	r4, [r3, #0]
10002f40:	f7ff f812 	bl	10001f68 <rom_data_lookup>
10002f44:	0001      	movs	r1, r0
10002f46:	2c01      	cmp	r4, #1
10002f48:	d00a      	beq.n	10002f60 <__aeabi_float_init+0x28>
10002f4a:	dd03      	ble.n	10002f54 <__aeabi_float_init+0x1c>
10002f4c:	2280      	movs	r2, #128	; 0x80
10002f4e:	480f      	ldr	r0, [pc, #60]	; (10002f8c <__aeabi_float_init+0x54>)
10002f50:	f000 f898 	bl	10003084 <__wrap___aeabi_memcpy>
10002f54:	480e      	ldr	r0, [pc, #56]	; (10002f90 <__aeabi_float_init+0x58>)
10002f56:	f7fe ffff 	bl	10001f58 <rom_func_lookup>
10002f5a:	4b0e      	ldr	r3, [pc, #56]	; (10002f94 <__aeabi_float_init+0x5c>)
10002f5c:	6018      	str	r0, [r3, #0]
10002f5e:	bd10      	pop	{r4, pc}
10002f60:	4c0a      	ldr	r4, [pc, #40]	; (10002f8c <__aeabi_float_init+0x54>)
10002f62:	2254      	movs	r2, #84	; 0x54
10002f64:	0020      	movs	r0, r4
10002f66:	f000 f88d 	bl	10003084 <__wrap___aeabi_memcpy>
10002f6a:	4b0b      	ldr	r3, [pc, #44]	; (10002f98 <__aeabi_float_init+0x60>)
10002f6c:	6563      	str	r3, [r4, #84]	; 0x54
10002f6e:	65a3      	str	r3, [r4, #88]	; 0x58
10002f70:	65e3      	str	r3, [r4, #92]	; 0x5c
10002f72:	6623      	str	r3, [r4, #96]	; 0x60
10002f74:	6663      	str	r3, [r4, #100]	; 0x64
10002f76:	66a3      	str	r3, [r4, #104]	; 0x68
10002f78:	66e3      	str	r3, [r4, #108]	; 0x6c
10002f7a:	6723      	str	r3, [r4, #112]	; 0x70
10002f7c:	6763      	str	r3, [r4, #116]	; 0x74
10002f7e:	67a3      	str	r3, [r4, #120]	; 0x78
10002f80:	67e3      	str	r3, [r4, #124]	; 0x7c
10002f82:	6223      	str	r3, [r4, #32]
10002f84:	61e3      	str	r3, [r4, #28]
10002f86:	e7e5      	b.n	10002f54 <__aeabi_float_init+0x1c>
10002f88:	00004653 	.word	0x00004653
10002f8c:	20000f98 	.word	0x20000f98
10002f90:	0000334c 	.word	0x0000334c
10002f94:	20001180 	.word	0x20001180
10002f98:	10002f9d 	.word	0x10002f9d

10002f9c <float_table_shim_on_use_helper>:
10002f9c:	b507      	push	{r0, r1, r2, lr}
10002f9e:	4660      	mov	r0, ip
10002fa0:	8801      	ldrh	r1, [r0, #0]
10002fa2:	0a0a      	lsrs	r2, r1, #8
10002fa4:	3002      	adds	r0, #2
10002fa6:	2adf      	cmp	r2, #223	; 0xdf
10002fa8:	d1fa      	bne.n	10002fa0 <float_table_shim_on_use_helper+0x4>
10002faa:	b2c9      	uxtb	r1, r1
10002fac:	0882      	lsrs	r2, r0, #2
10002fae:	d304      	bcc.n	10002fba <float_table_shim_on_use_helper+0x1e>
10002fb0:	8802      	ldrh	r2, [r0, #0]
10002fb2:	8840      	ldrh	r0, [r0, #2]
10002fb4:	0400      	lsls	r0, r0, #16
10002fb6:	4310      	orrs	r0, r2
10002fb8:	e000      	b.n	10002fbc <float_table_shim_on_use_helper+0x20>
10002fba:	6800      	ldr	r0, [r0, #0]
10002fbc:	4a01      	ldr	r2, [pc, #4]	; (10002fc4 <float_table_shim_on_use_helper+0x28>)
10002fbe:	5050      	str	r0, [r2, r1]
10002fc0:	9003      	str	r0, [sp, #12]
10002fc2:	bd07      	pop	{r0, r1, r2, pc}
10002fc4:	20000f98 	.word	0x20000f98

10002fc8 <__wrap_malloc>:
10002fc8:	b570      	push	{r4, r5, r6, lr}
10002fca:	0004      	movs	r4, r0
10002fcc:	4e0a      	ldr	r6, [pc, #40]	; (10002ff8 <__wrap_malloc+0x30>)
10002fce:	0030      	movs	r0, r6
10002fd0:	f003 f916 	bl	10006200 <__mutex_enter_blocking_veneer>
10002fd4:	0020      	movs	r0, r4
10002fd6:	f002 fc61 	bl	1000589c <malloc>
10002fda:	0005      	movs	r5, r0
10002fdc:	0030      	movs	r0, r6
10002fde:	f003 f8cf 	bl	10006180 <__mutex_exit_veneer>
10002fe2:	2d00      	cmp	r5, #0
10002fe4:	d005      	beq.n	10002ff2 <__wrap_malloc+0x2a>
10002fe6:	4b05      	ldr	r3, [pc, #20]	; (10002ffc <__wrap_malloc+0x34>)
10002fe8:	192c      	adds	r4, r5, r4
10002fea:	429c      	cmp	r4, r3
10002fec:	d801      	bhi.n	10002ff2 <__wrap_malloc+0x2a>
10002fee:	0028      	movs	r0, r5
10002ff0:	bd70      	pop	{r4, r5, r6, pc}
10002ff2:	4803      	ldr	r0, [pc, #12]	; (10003000 <__wrap_malloc+0x38>)
10002ff4:	f7fd fc3a 	bl	1000086c <panic>
10002ff8:	20000cb8 	.word	0x20000cb8
10002ffc:	20040000 	.word	0x20040000
10003000:	100063a4 	.word	0x100063a4

10003004 <__wrap_calloc>:
10003004:	b5f8      	push	{r3, r4, r5, r6, r7, lr}
10003006:	0006      	movs	r6, r0
10003008:	000c      	movs	r4, r1
1000300a:	4f0c      	ldr	r7, [pc, #48]	; (1000303c <__wrap_calloc+0x38>)
1000300c:	0038      	movs	r0, r7
1000300e:	f003 f8f7 	bl	10006200 <__mutex_enter_blocking_veneer>
10003012:	0021      	movs	r1, r4
10003014:	0030      	movs	r0, r6
10003016:	f002 fc07 	bl	10005828 <calloc>
1000301a:	0005      	movs	r5, r0
1000301c:	0038      	movs	r0, r7
1000301e:	f003 f8af 	bl	10006180 <__mutex_exit_veneer>
10003022:	4374      	muls	r4, r6
10003024:	2d00      	cmp	r5, #0
10003026:	d005      	beq.n	10003034 <__wrap_calloc+0x30>
10003028:	4b05      	ldr	r3, [pc, #20]	; (10003040 <__wrap_calloc+0x3c>)
1000302a:	192c      	adds	r4, r5, r4
1000302c:	429c      	cmp	r4, r3
1000302e:	d801      	bhi.n	10003034 <__wrap_calloc+0x30>
10003030:	0028      	movs	r0, r5
10003032:	bdf8      	pop	{r3, r4, r5, r6, r7, pc}
10003034:	4803      	ldr	r0, [pc, #12]	; (10003044 <__wrap_calloc+0x40>)
10003036:	f7fd fc19 	bl	1000086c <panic>
1000303a:	46c0      	nop			; (mov r8, r8)
1000303c:	20000cb8 	.word	0x20000cb8
10003040:	20040000 	.word	0x20040000
10003044:	100063a4 	.word	0x100063a4

10003048 <__wrap_free>:
10003048:	b570      	push	{r4, r5, r6, lr}
1000304a:	0004      	movs	r4, r0
1000304c:	4d05      	ldr	r5, [pc, #20]	; (10003064 <__wrap_free+0x1c>)
1000304e:	0028      	movs	r0, r5
10003050:	f003 f8d6 	bl	10006200 <__mutex_enter_blocking_veneer>
10003054:	0020      	movs	r0, r4
10003056:	f002 fc2b 	bl	100058b0 <free>
1000305a:	0028      	movs	r0, r5
1000305c:	f003 f890 	bl	10006180 <__mutex_exit_veneer>
10003060:	bd70      	pop	{r4, r5, r6, pc}
10003062:	46c0      	nop			; (mov r8, r8)
10003064:	20000cb8 	.word	0x20000cb8

10003068 <__aeabi_mem_init>:
10003068:	4801      	ldr	r0, [pc, #4]	; (10003070 <__aeabi_mem_init+0x8>)
1000306a:	2104      	movs	r1, #4
1000306c:	4b01      	ldr	r3, [pc, #4]	; (10003074 <__aeabi_mem_init+0xc>)
1000306e:	4718      	bx	r3
10003070:	20000450 	.word	0x20000450
10003074:	10001f79 	.word	0x10001f79

10003078 <__wrap_memset>:
10003078:	4b01      	ldr	r3, [pc, #4]	; (10003080 <__wrap_memset+0x8>)
1000307a:	681b      	ldr	r3, [r3, #0]
1000307c:	4718      	bx	r3
1000307e:	0000      	.short	0x0000
10003080:	20000450 	.word	0x20000450

10003084 <__wrap___aeabi_memcpy>:
10003084:	4b01      	ldr	r3, [pc, #4]	; (1000308c <__wrap___aeabi_memcpy+0x8>)
10003086:	685b      	ldr	r3, [r3, #4]
10003088:	4718      	bx	r3
1000308a:	0000      	.short	0x0000
1000308c:	20000450 	.word	0x20000450

10003090 <_out_buffer>:
10003090:	429a      	cmp	r2, r3
10003092:	d200      	bcs.n	10003096 <_out_buffer+0x6>
10003094:	5488      	strb	r0, [r1, r2]
10003096:	4770      	bx	lr

10003098 <_out_null>:
10003098:	4770      	bx	lr
1000309a:	46c0      	nop			; (mov r8, r8)

1000309c <_out_rev>:
1000309c:	b5f8      	push	{r3, r4, r5, r6, r7, lr}
1000309e:	4657      	mov	r7, sl
100030a0:	464e      	mov	r6, r9
100030a2:	4645      	mov	r5, r8
100030a4:	46de      	mov	lr, fp
100030a6:	b5e0      	push	{r5, r6, r7, lr}
100030a8:	4699      	mov	r9, r3
100030aa:	9b0a      	ldr	r3, [sp, #40]	; 0x28
100030ac:	0007      	movs	r7, r0
100030ae:	469a      	mov	sl, r3
100030b0:	9b0d      	ldr	r3, [sp, #52]	; 0x34
100030b2:	4688      	mov	r8, r1
100030b4:	4693      	mov	fp, r2
100030b6:	0015      	movs	r5, r2
100030b8:	9e0b      	ldr	r6, [sp, #44]	; 0x2c
100030ba:	079b      	lsls	r3, r3, #30
100030bc:	d110      	bne.n	100030e0 <_out_rev+0x44>
100030be:	9b0c      	ldr	r3, [sp, #48]	; 0x30
100030c0:	429e      	cmp	r6, r3
100030c2:	d20d      	bcs.n	100030e0 <_out_rev+0x44>
100030c4:	1b9d      	subs	r5, r3, r6
100030c6:	0014      	movs	r4, r2
100030c8:	000e      	movs	r6, r1
100030ca:	445d      	add	r5, fp
100030cc:	0022      	movs	r2, r4
100030ce:	464b      	mov	r3, r9
100030d0:	3401      	adds	r4, #1
100030d2:	0031      	movs	r1, r6
100030d4:	2020      	movs	r0, #32
100030d6:	47b8      	blx	r7
100030d8:	42a5      	cmp	r5, r4
100030da:	d1f7      	bne.n	100030cc <_out_rev+0x30>
100030dc:	46b0      	mov	r8, r6
100030de:	9e0b      	ldr	r6, [sp, #44]	; 0x2c
100030e0:	2e00      	cmp	r6, #0
100030e2:	d027      	beq.n	10003134 <_out_rev+0x98>
100030e4:	4644      	mov	r4, r8
100030e6:	1975      	adds	r5, r6, r5
100030e8:	4653      	mov	r3, sl
100030ea:	1baa      	subs	r2, r5, r6
100030ec:	3e01      	subs	r6, #1
100030ee:	5d98      	ldrb	r0, [r3, r6]
100030f0:	0021      	movs	r1, r4
100030f2:	464b      	mov	r3, r9
100030f4:	47b8      	blx	r7
100030f6:	2e00      	cmp	r6, #0
100030f8:	d1f6      	bne.n	100030e8 <_out_rev+0x4c>
100030fa:	0023      	movs	r3, r4
100030fc:	002c      	movs	r4, r5
100030fe:	4698      	mov	r8, r3
10003100:	9b0d      	ldr	r3, [sp, #52]	; 0x34
10003102:	079b      	lsls	r3, r3, #30
10003104:	d50f      	bpl.n	10003126 <_out_rev+0x8a>
10003106:	465b      	mov	r3, fp
10003108:	1ae5      	subs	r5, r4, r3
1000310a:	9b0c      	ldr	r3, [sp, #48]	; 0x30
1000310c:	42ab      	cmp	r3, r5
1000310e:	d90a      	bls.n	10003126 <_out_rev+0x8a>
10003110:	4646      	mov	r6, r8
10003112:	4698      	mov	r8, r3
10003114:	0022      	movs	r2, r4
10003116:	464b      	mov	r3, r9
10003118:	0031      	movs	r1, r6
1000311a:	2020      	movs	r0, #32
1000311c:	3501      	adds	r5, #1
1000311e:	47b8      	blx	r7
10003120:	3401      	adds	r4, #1
10003122:	45a8      	cmp	r8, r5
10003124:	d8f6      	bhi.n	10003114 <_out_rev+0x78>
10003126:	0020      	movs	r0, r4
10003128:	bcf0      	pop	{r4, r5, r6, r7}
1000312a:	46bb      	mov	fp, r7
1000312c:	46b2      	mov	sl, r6
1000312e:	46a9      	mov	r9, r5
10003130:	46a0      	mov	r8, r4
10003132:	bdf8      	pop	{r3, r4, r5, r6, r7, pc}
10003134:	002c      	movs	r4, r5
10003136:	e7e3      	b.n	10003100 <_out_rev+0x64>

10003138 <_ntoa_format>:
10003138:	b5f0      	push	{r4, r5, r6, r7, lr}
1000313a:	464f      	mov	r7, r9
1000313c:	4646      	mov	r6, r8
1000313e:	46d6      	mov	lr, sl
10003140:	b5c0      	push	{r6, r7, lr}
10003142:	b084      	sub	sp, #16
10003144:	4698      	mov	r8, r3
10003146:	ab0e      	add	r3, sp, #56	; 0x38
10003148:	781b      	ldrb	r3, [r3, #0]
1000314a:	9f12      	ldr	r7, [sp, #72]	; 0x48
1000314c:	4699      	mov	r9, r3
1000314e:	4694      	mov	ip, r2
10003150:	9c0d      	ldr	r4, [sp, #52]	; 0x34
10003152:	9b10      	ldr	r3, [sp, #64]	; 0x40
10003154:	9e11      	ldr	r6, [sp, #68]	; 0x44
10003156:	07ba      	lsls	r2, r7, #30
10003158:	d425      	bmi.n	100031a6 <_ntoa_format+0x6e>
1000315a:	2e00      	cmp	r6, #0
1000315c:	d14b      	bne.n	100031f6 <_ntoa_format+0xbe>
1000315e:	429c      	cmp	r4, r3
10003160:	d300      	bcc.n	10003164 <_ntoa_format+0x2c>
10003162:	e0bf      	b.n	100032e4 <_ntoa_format+0x1ac>
10003164:	2201      	movs	r2, #1
10003166:	403a      	ands	r2, r7
10003168:	4692      	mov	sl, r2
1000316a:	2c1f      	cmp	r4, #31
1000316c:	d900      	bls.n	10003170 <_ntoa_format+0x38>
1000316e:	e0b8      	b.n	100032e2 <_ntoa_format+0x1aa>
10003170:	9a0c      	ldr	r2, [sp, #48]	; 0x30
10003172:	1e55      	subs	r5, r2, #1
10003174:	2230      	movs	r2, #48	; 0x30
10003176:	e001      	b.n	1000317c <_ntoa_format+0x44>
10003178:	2c20      	cmp	r4, #32
1000317a:	d003      	beq.n	10003184 <_ntoa_format+0x4c>
1000317c:	3401      	adds	r4, #1
1000317e:	552a      	strb	r2, [r5, r4]
10003180:	42a3      	cmp	r3, r4
10003182:	d8f9      	bhi.n	10003178 <_ntoa_format+0x40>
10003184:	4652      	mov	r2, sl
10003186:	2a00      	cmp	r2, #0
10003188:	d00d      	beq.n	100031a6 <_ntoa_format+0x6e>
1000318a:	42a6      	cmp	r6, r4
1000318c:	d90b      	bls.n	100031a6 <_ntoa_format+0x6e>
1000318e:	2c20      	cmp	r4, #32
10003190:	d044      	beq.n	1000321c <_ntoa_format+0xe4>
10003192:	9a0c      	ldr	r2, [sp, #48]	; 0x30
10003194:	1e55      	subs	r5, r2, #1
10003196:	2230      	movs	r2, #48	; 0x30
10003198:	e001      	b.n	1000319e <_ntoa_format+0x66>
1000319a:	2c20      	cmp	r4, #32
1000319c:	d03e      	beq.n	1000321c <_ntoa_format+0xe4>
1000319e:	3401      	adds	r4, #1
100031a0:	552a      	strb	r2, [r5, r4]
100031a2:	42b4      	cmp	r4, r6
100031a4:	d1f9      	bne.n	1000319a <_ntoa_format+0x62>
100031a6:	06fa      	lsls	r2, r7, #27
100031a8:	d54d      	bpl.n	10003246 <_ntoa_format+0x10e>
100031aa:	057a      	lsls	r2, r7, #21
100031ac:	d43f      	bmi.n	1000322e <_ntoa_format+0xf6>
100031ae:	2c00      	cmp	r4, #0
100031b0:	d139      	bne.n	10003226 <_ntoa_format+0xee>
100031b2:	9b0f      	ldr	r3, [sp, #60]	; 0x3c
100031b4:	2b10      	cmp	r3, #16
100031b6:	d100      	bne.n	100031ba <_ntoa_format+0x82>
100031b8:	e079      	b.n	100032ae <_ntoa_format+0x176>
100031ba:	9b0f      	ldr	r3, [sp, #60]	; 0x3c
100031bc:	2b02      	cmp	r3, #2
100031be:	d100      	bne.n	100031c2 <_ntoa_format+0x8a>
100031c0:	e08a      	b.n	100032d8 <_ntoa_format+0x1a0>
100031c2:	2330      	movs	r3, #48	; 0x30
100031c4:	9a0c      	ldr	r2, [sp, #48]	; 0x30
100031c6:	2401      	movs	r4, #1
100031c8:	7013      	strb	r3, [r2, #0]
100031ca:	464b      	mov	r3, r9
100031cc:	2b00      	cmp	r3, #0
100031ce:	d03f      	beq.n	10003250 <_ntoa_format+0x118>
100031d0:	232d      	movs	r3, #45	; 0x2d
100031d2:	9a0c      	ldr	r2, [sp, #48]	; 0x30
100031d4:	5513      	strb	r3, [r2, r4]
100031d6:	3401      	adds	r4, #1
100031d8:	9b0c      	ldr	r3, [sp, #48]	; 0x30
100031da:	4662      	mov	r2, ip
100031dc:	9300      	str	r3, [sp, #0]
100031de:	9703      	str	r7, [sp, #12]
100031e0:	4643      	mov	r3, r8
100031e2:	9602      	str	r6, [sp, #8]
100031e4:	9401      	str	r4, [sp, #4]
100031e6:	f7ff ff59 	bl	1000309c <_out_rev>
100031ea:	b004      	add	sp, #16
100031ec:	bce0      	pop	{r5, r6, r7}
100031ee:	46ba      	mov	sl, r7
100031f0:	46b1      	mov	r9, r6
100031f2:	46a8      	mov	r8, r5
100031f4:	bdf0      	pop	{r4, r5, r6, r7, pc}
100031f6:	2201      	movs	r2, #1
100031f8:	0015      	movs	r5, r2
100031fa:	403d      	ands	r5, r7
100031fc:	46aa      	mov	sl, r5
100031fe:	423a      	tst	r2, r7
10003200:	d02f      	beq.n	10003262 <_ntoa_format+0x12a>
10003202:	464a      	mov	r2, r9
10003204:	2a00      	cmp	r2, #0
10003206:	d102      	bne.n	1000320e <_ntoa_format+0xd6>
10003208:	320c      	adds	r2, #12
1000320a:	423a      	tst	r2, r7
1000320c:	d000      	beq.n	10003210 <_ntoa_format+0xd8>
1000320e:	3e01      	subs	r6, #1
10003210:	429c      	cmp	r4, r3
10003212:	d2ba      	bcs.n	1000318a <_ntoa_format+0x52>
10003214:	2c1f      	cmp	r4, #31
10003216:	d9ab      	bls.n	10003170 <_ntoa_format+0x38>
10003218:	2e20      	cmp	r6, #32
1000321a:	d927      	bls.n	1000326c <_ntoa_format+0x134>
1000321c:	2420      	movs	r4, #32
1000321e:	06fa      	lsls	r2, r7, #27
10003220:	d5da      	bpl.n	100031d8 <_ntoa_format+0xa0>
10003222:	057a      	lsls	r2, r7, #21
10003224:	d403      	bmi.n	1000322e <_ntoa_format+0xf6>
10003226:	42a3      	cmp	r3, r4
10003228:	d02d      	beq.n	10003286 <_ntoa_format+0x14e>
1000322a:	42a6      	cmp	r6, r4
1000322c:	d02b      	beq.n	10003286 <_ntoa_format+0x14e>
1000322e:	9b0f      	ldr	r3, [sp, #60]	; 0x3c
10003230:	2b10      	cmp	r3, #16
10003232:	d032      	beq.n	1000329a <_ntoa_format+0x162>
10003234:	2b02      	cmp	r3, #2
10003236:	d020      	beq.n	1000327a <_ntoa_format+0x142>
10003238:	2c20      	cmp	r4, #32
1000323a:	d0cd      	beq.n	100031d8 <_ntoa_format+0xa0>
1000323c:	2230      	movs	r2, #48	; 0x30
1000323e:	9b0c      	ldr	r3, [sp, #48]	; 0x30
10003240:	191b      	adds	r3, r3, r4
10003242:	701a      	strb	r2, [r3, #0]
10003244:	3401      	adds	r4, #1
10003246:	2c20      	cmp	r4, #32
10003248:	d0c6      	beq.n	100031d8 <_ntoa_format+0xa0>
1000324a:	464b      	mov	r3, r9
1000324c:	2b00      	cmp	r3, #0
1000324e:	d1bf      	bne.n	100031d0 <_ntoa_format+0x98>
10003250:	077b      	lsls	r3, r7, #29
10003252:	d40d      	bmi.n	10003270 <_ntoa_format+0x138>
10003254:	073b      	lsls	r3, r7, #28
10003256:	d5bf      	bpl.n	100031d8 <_ntoa_format+0xa0>
10003258:	2320      	movs	r3, #32
1000325a:	9a0c      	ldr	r2, [sp, #48]	; 0x30
1000325c:	5513      	strb	r3, [r2, r4]
1000325e:	3401      	adds	r4, #1
10003260:	e7ba      	b.n	100031d8 <_ntoa_format+0xa0>
10003262:	429c      	cmp	r4, r3
10003264:	d29f      	bcs.n	100031a6 <_ntoa_format+0x6e>
10003266:	2c1f      	cmp	r4, #31
10003268:	d800      	bhi.n	1000326c <_ntoa_format+0x134>
1000326a:	e781      	b.n	10003170 <_ntoa_format+0x38>
1000326c:	2420      	movs	r4, #32
1000326e:	e79a      	b.n	100031a6 <_ntoa_format+0x6e>
10003270:	232b      	movs	r3, #43	; 0x2b
10003272:	9a0c      	ldr	r2, [sp, #48]	; 0x30
10003274:	5513      	strb	r3, [r2, r4]
10003276:	3401      	adds	r4, #1
10003278:	e7ae      	b.n	100031d8 <_ntoa_format+0xa0>
1000327a:	2c20      	cmp	r4, #32
1000327c:	d0ac      	beq.n	100031d8 <_ntoa_format+0xa0>
1000327e:	9b0c      	ldr	r3, [sp, #48]	; 0x30
10003280:	191b      	adds	r3, r3, r4
10003282:	3401      	adds	r4, #1
10003284:	e03a      	b.n	100032fc <_ntoa_format+0x1c4>
10003286:	1e63      	subs	r3, r4, #1
10003288:	2c01      	cmp	r4, #1
1000328a:	d092      	beq.n	100031b2 <_ntoa_format+0x7a>
1000328c:	9a0f      	ldr	r2, [sp, #60]	; 0x3c
1000328e:	2a10      	cmp	r2, #16
10003290:	d02a      	beq.n	100032e8 <_ntoa_format+0x1b0>
10003292:	2a02      	cmp	r2, #2
10003294:	d02f      	beq.n	100032f6 <_ntoa_format+0x1be>
10003296:	001c      	movs	r4, r3
10003298:	e7d0      	b.n	1000323c <_ntoa_format+0x104>
1000329a:	06bb      	lsls	r3, r7, #26
1000329c:	d40e      	bmi.n	100032bc <_ntoa_format+0x184>
1000329e:	2c20      	cmp	r4, #32
100032a0:	d09a      	beq.n	100031d8 <_ntoa_format+0xa0>
100032a2:	9b0c      	ldr	r3, [sp, #48]	; 0x30
100032a4:	191a      	adds	r2, r3, r4
100032a6:	3401      	adds	r4, #1
100032a8:	2378      	movs	r3, #120	; 0x78
100032aa:	7013      	strb	r3, [r2, #0]
100032ac:	e7c4      	b.n	10003238 <_ntoa_format+0x100>
100032ae:	06bb      	lsls	r3, r7, #26
100032b0:	d40d      	bmi.n	100032ce <_ntoa_format+0x196>
100032b2:	2378      	movs	r3, #120	; 0x78
100032b4:	9a0c      	ldr	r2, [sp, #48]	; 0x30
100032b6:	2401      	movs	r4, #1
100032b8:	7013      	strb	r3, [r2, #0]
100032ba:	e7bf      	b.n	1000323c <_ntoa_format+0x104>
100032bc:	2c20      	cmp	r4, #32
100032be:	d100      	bne.n	100032c2 <_ntoa_format+0x18a>
100032c0:	e78a      	b.n	100031d8 <_ntoa_format+0xa0>
100032c2:	2258      	movs	r2, #88	; 0x58
100032c4:	9b0c      	ldr	r3, [sp, #48]	; 0x30
100032c6:	191b      	adds	r3, r3, r4
100032c8:	701a      	strb	r2, [r3, #0]
100032ca:	3401      	adds	r4, #1
100032cc:	e7b4      	b.n	10003238 <_ntoa_format+0x100>
100032ce:	2358      	movs	r3, #88	; 0x58
100032d0:	9a0c      	ldr	r2, [sp, #48]	; 0x30
100032d2:	2401      	movs	r4, #1
100032d4:	7013      	strb	r3, [r2, #0]
100032d6:	e7b1      	b.n	1000323c <_ntoa_format+0x104>
100032d8:	9a0c      	ldr	r2, [sp, #48]	; 0x30
100032da:	3360      	adds	r3, #96	; 0x60
100032dc:	2401      	movs	r4, #1
100032de:	7013      	strb	r3, [r2, #0]
100032e0:	e7ac      	b.n	1000323c <_ntoa_format+0x104>
100032e2:	2420      	movs	r4, #32
100032e4:	2600      	movs	r6, #0
100032e6:	e75e      	b.n	100031a6 <_ntoa_format+0x6e>
100032e8:	3c02      	subs	r4, #2
100032ea:	06ba      	lsls	r2, r7, #26
100032ec:	d4e9      	bmi.n	100032c2 <_ntoa_format+0x18a>
100032ee:	9a0c      	ldr	r2, [sp, #48]	; 0x30
100032f0:	1912      	adds	r2, r2, r4
100032f2:	001c      	movs	r4, r3
100032f4:	e7d8      	b.n	100032a8 <_ntoa_format+0x170>
100032f6:	9a0c      	ldr	r2, [sp, #48]	; 0x30
100032f8:	4692      	mov	sl, r2
100032fa:	4453      	add	r3, sl
100032fc:	2262      	movs	r2, #98	; 0x62
100032fe:	701a      	strb	r2, [r3, #0]
10003300:	e79a      	b.n	10003238 <_ntoa_format+0x100>
10003302:	46c0      	nop			; (mov r8, r8)

10003304 <_out_char>:
10003304:	b510      	push	{r4, lr}
10003306:	2800      	cmp	r0, #0
10003308:	d100      	bne.n	1000330c <_out_char+0x8>
1000330a:	bd10      	pop	{r4, pc}
1000330c:	f001 fad2 	bl	100048b4 <__wrap_putchar>
10003310:	e7fb      	b.n	1000330a <_out_char+0x6>
10003312:	46c0      	nop			; (mov r8, r8)

10003314 <_etoa>:
10003314:	b5f0      	push	{r4, r5, r6, r7, lr}
10003316:	46de      	mov	lr, fp
10003318:	4657      	mov	r7, sl
1000331a:	464e      	mov	r6, r9
1000331c:	4645      	mov	r5, r8
1000331e:	b5e0      	push	{r5, r6, r7, lr}
10003320:	b09b      	sub	sp, #108	; 0x6c
10003322:	469b      	mov	fp, r3
10003324:	9b24      	ldr	r3, [sp, #144]	; 0x90
10003326:	4689      	mov	r9, r1
10003328:	4698      	mov	r8, r3
1000332a:	9b25      	ldr	r3, [sp, #148]	; 0x94
1000332c:	900b      	str	r0, [sp, #44]	; 0x2c
1000332e:	920c      	str	r2, [sp, #48]	; 0x30
10003330:	4640      	mov	r0, r8
10003332:	4642      	mov	r2, r8
10003334:	0019      	movs	r1, r3
10003336:	469a      	mov	sl, r3
10003338:	f7ff fa39 	bl	100027ae <__wrap___aeabi_dcmpun>
1000333c:	2800      	cmp	r0, #0
1000333e:	d000      	beq.n	10003342 <_etoa+0x2e>
10003340:	e0d8      	b.n	100034f4 <_etoa+0x1e0>
10003342:	2201      	movs	r2, #1
10003344:	4640      	mov	r0, r8
10003346:	4651      	mov	r1, sl
10003348:	4b77      	ldr	r3, [pc, #476]	; (10003528 <_etoa+0x214>)
1000334a:	4252      	negs	r2, r2
1000334c:	f7ff fa2a 	bl	100027a4 <__wrap___aeabi_dcmpgt>
10003350:	2800      	cmp	r0, #0
10003352:	d000      	beq.n	10003356 <_etoa+0x42>
10003354:	e0ce      	b.n	100034f4 <_etoa+0x1e0>
10003356:	2201      	movs	r2, #1
10003358:	4640      	mov	r0, r8
1000335a:	4651      	mov	r1, sl
1000335c:	4b73      	ldr	r3, [pc, #460]	; (1000352c <_etoa+0x218>)
1000335e:	4252      	negs	r2, r2
10003360:	f7ff fa0a 	bl	10002778 <__wrap___aeabi_dcmplt>
10003364:	2800      	cmp	r0, #0
10003366:	d000      	beq.n	1000336a <_etoa+0x56>
10003368:	e0c4      	b.n	100034f4 <_etoa+0x1e0>
1000336a:	2200      	movs	r2, #0
1000336c:	2300      	movs	r3, #0
1000336e:	4640      	mov	r0, r8
10003370:	4651      	mov	r1, sl
10003372:	f7ff fa01 	bl	10002778 <__wrap___aeabi_dcmplt>
10003376:	2800      	cmp	r0, #0
10003378:	d000      	beq.n	1000337c <_etoa+0x68>
1000337a:	e1b9      	b.n	100036f0 <_etoa+0x3dc>
1000337c:	4642      	mov	r2, r8
1000337e:	4653      	mov	r3, sl
10003380:	920a      	str	r2, [sp, #40]	; 0x28
10003382:	9309      	str	r3, [sp, #36]	; 0x24
10003384:	2380      	movs	r3, #128	; 0x80
10003386:	9a28      	ldr	r2, [sp, #160]	; 0xa0
10003388:	00db      	lsls	r3, r3, #3
1000338a:	401a      	ands	r2, r3
1000338c:	920e      	str	r2, [sp, #56]	; 0x38
1000338e:	9a28      	ldr	r2, [sp, #160]	; 0xa0
10003390:	421a      	tst	r2, r3
10003392:	d101      	bne.n	10003398 <_etoa+0x84>
10003394:	2306      	movs	r3, #6
10003396:	9326      	str	r3, [sp, #152]	; 0x98
10003398:	9a0a      	ldr	r2, [sp, #40]	; 0x28
1000339a:	9b09      	ldr	r3, [sp, #36]	; 0x24
1000339c:	0016      	movs	r6, r2
1000339e:	4313      	orrs	r3, r2
100033a0:	d000      	beq.n	100033a4 <_etoa+0x90>
100033a2:	e0c7      	b.n	10003534 <_etoa+0x220>
100033a4:	9b28      	ldr	r3, [sp, #160]	; 0xa0
100033a6:	2500      	movs	r5, #0
100033a8:	2600      	movs	r6, #0
100033aa:	051b      	lsls	r3, r3, #20
100033ac:	d400      	bmi.n	100033b0 <_etoa+0x9c>
100033ae:	e19b      	b.n	100036e8 <_etoa+0x3d4>
100033b0:	2300      	movs	r3, #0
100033b2:	930d      	str	r3, [sp, #52]	; 0x34
100033b4:	9a26      	ldr	r2, [sp, #152]	; 0x98
100033b6:	9b0d      	ldr	r3, [sp, #52]	; 0x34
100033b8:	429a      	cmp	r2, r3
100033ba:	dc00      	bgt.n	100033be <_etoa+0xaa>
100033bc:	e19f      	b.n	100036fe <_etoa+0x3ea>
100033be:	1ad0      	subs	r0, r2, r3
100033c0:	1e43      	subs	r3, r0, #1
100033c2:	9326      	str	r3, [sp, #152]	; 0x98
100033c4:	2380      	movs	r3, #128	; 0x80
100033c6:	9a28      	ldr	r2, [sp, #160]	; 0xa0
100033c8:	00db      	lsls	r3, r3, #3
100033ca:	431a      	orrs	r2, r3
100033cc:	2300      	movs	r3, #0
100033ce:	2700      	movs	r7, #0
100033d0:	9228      	str	r2, [sp, #160]	; 0xa0
100033d2:	930d      	str	r3, [sp, #52]	; 0x34
100033d4:	9b27      	ldr	r3, [sp, #156]	; 0x9c
100033d6:	2400      	movs	r4, #0
100033d8:	42bb      	cmp	r3, r7
100033da:	d900      	bls.n	100033de <_etoa+0xca>
100033dc:	1bdc      	subs	r4, r3, r7
100033de:	2302      	movs	r3, #2
100033e0:	9a28      	ldr	r2, [sp, #160]	; 0xa0
100033e2:	401a      	ands	r2, r3
100033e4:	920e      	str	r2, [sp, #56]	; 0x38
100033e6:	9a28      	ldr	r2, [sp, #160]	; 0xa0
100033e8:	4213      	tst	r3, r2
100033ea:	d003      	beq.n	100033f4 <_etoa+0xe0>
100033ec:	427b      	negs	r3, r7
100033ee:	417b      	adcs	r3, r7
100033f0:	425b      	negs	r3, r3
100033f2:	401c      	ands	r4, r3
100033f4:	9b0d      	ldr	r3, [sp, #52]	; 0x34
100033f6:	2b00      	cmp	r3, #0
100033f8:	d007      	beq.n	1000340a <_etoa+0xf6>
100033fa:	980a      	ldr	r0, [sp, #40]	; 0x28
100033fc:	9909      	ldr	r1, [sp, #36]	; 0x24
100033fe:	002a      	movs	r2, r5
10003400:	0033      	movs	r3, r6
10003402:	f7ff f958 	bl	100026b6 <__wrap___aeabi_ddiv>
10003406:	900a      	str	r0, [sp, #40]	; 0x28
10003408:	9109      	str	r1, [sp, #36]	; 0x24
1000340a:	2200      	movs	r2, #0
1000340c:	2300      	movs	r3, #0
1000340e:	4640      	mov	r0, r8
10003410:	4651      	mov	r1, sl
10003412:	f7ff f9b1 	bl	10002778 <__wrap___aeabi_dcmplt>
10003416:	2800      	cmp	r0, #0
10003418:	d005      	beq.n	10003426 <_etoa+0x112>
1000341a:	2080      	movs	r0, #128	; 0x80
1000341c:	0600      	lsls	r0, r0, #24
1000341e:	4684      	mov	ip, r0
10003420:	9909      	ldr	r1, [sp, #36]	; 0x24
10003422:	4461      	add	r1, ip
10003424:	9109      	str	r1, [sp, #36]	; 0x24
10003426:	9a28      	ldr	r2, [sp, #160]	; 0xa0
10003428:	4b41      	ldr	r3, [pc, #260]	; (10003530 <_etoa+0x21c>)
1000342a:	9d0b      	ldr	r5, [sp, #44]	; 0x2c
1000342c:	4013      	ands	r3, r2
1000342e:	9304      	str	r3, [sp, #16]
10003430:	9b26      	ldr	r3, [sp, #152]	; 0x98
10003432:	9a0a      	ldr	r2, [sp, #40]	; 0x28
10003434:	9302      	str	r3, [sp, #8]
10003436:	9b09      	ldr	r3, [sp, #36]	; 0x24
10003438:	9403      	str	r4, [sp, #12]
1000343a:	9200      	str	r2, [sp, #0]
1000343c:	9301      	str	r3, [sp, #4]
1000343e:	4649      	mov	r1, r9
10003440:	465b      	mov	r3, fp
10003442:	0028      	movs	r0, r5
10003444:	9a0c      	ldr	r2, [sp, #48]	; 0x30
10003446:	f000 f98b 	bl	10003760 <_ftoa>
1000344a:	0004      	movs	r4, r0
1000344c:	2f00      	cmp	r7, #0
1000344e:	d062      	beq.n	10003516 <_etoa+0x202>
10003450:	9b28      	ldr	r3, [sp, #160]	; 0xa0
10003452:	0022      	movs	r2, r4
10003454:	0698      	lsls	r0, r3, #26
10003456:	231f      	movs	r3, #31
10003458:	17c0      	asrs	r0, r0, #31
1000345a:	4398      	bics	r0, r3
1000345c:	1c63      	adds	r3, r4, #1
1000345e:	4698      	mov	r8, r3
10003460:	4649      	mov	r1, r9
10003462:	465b      	mov	r3, fp
10003464:	3065      	adds	r0, #101	; 0x65
10003466:	47a8      	blx	r5
10003468:	9b0d      	ldr	r3, [sp, #52]	; 0x34
1000346a:	2500      	movs	r5, #0
1000346c:	17da      	asrs	r2, r3, #31
1000346e:	189c      	adds	r4, r3, r2
10003470:	0fdb      	lsrs	r3, r3, #31
10003472:	469a      	mov	sl, r3
10003474:	4054      	eors	r4, r2
10003476:	3f01      	subs	r7, #1
10003478:	e001      	b.n	1000347e <_etoa+0x16a>
1000347a:	2d20      	cmp	r5, #32
1000347c:	d013      	beq.n	100034a6 <_etoa+0x192>
1000347e:	aa0a      	add	r2, sp, #40	; 0x28
10003480:	4694      	mov	ip, r2
10003482:	231f      	movs	r3, #31
10003484:	0020      	movs	r0, r4
10003486:	4463      	add	r3, ip
10003488:	210a      	movs	r1, #10
1000348a:	3501      	adds	r5, #1
1000348c:	195e      	adds	r6, r3, r5
1000348e:	f7fe fec5 	bl	1000221c <__wrap___aeabi_uidiv>
10003492:	3130      	adds	r1, #48	; 0x30
10003494:	7031      	strb	r1, [r6, #0]
10003496:	0020      	movs	r0, r4
10003498:	210a      	movs	r1, #10
1000349a:	f7fe febf 	bl	1000221c <__wrap___aeabi_uidiv>
1000349e:	0026      	movs	r6, r4
100034a0:	0004      	movs	r4, r0
100034a2:	2e09      	cmp	r6, #9
100034a4:	d8e9      	bhi.n	1000347a <_etoa+0x166>
100034a6:	2305      	movs	r3, #5
100034a8:	9306      	str	r3, [sp, #24]
100034aa:	2300      	movs	r3, #0
100034ac:	9304      	str	r3, [sp, #16]
100034ae:	330a      	adds	r3, #10
100034b0:	9303      	str	r3, [sp, #12]
100034b2:	4653      	mov	r3, sl
100034b4:	9705      	str	r7, [sp, #20]
100034b6:	9f0b      	ldr	r7, [sp, #44]	; 0x2c
100034b8:	9302      	str	r3, [sp, #8]
100034ba:	ab12      	add	r3, sp, #72	; 0x48
100034bc:	9300      	str	r3, [sp, #0]
100034be:	4642      	mov	r2, r8
100034c0:	465b      	mov	r3, fp
100034c2:	4649      	mov	r1, r9
100034c4:	0038      	movs	r0, r7
100034c6:	9501      	str	r5, [sp, #4]
100034c8:	f7ff fe36 	bl	10003138 <_ntoa_format>
100034cc:	9b0e      	ldr	r3, [sp, #56]	; 0x38
100034ce:	0004      	movs	r4, r0
100034d0:	2b00      	cmp	r3, #0
100034d2:	d020      	beq.n	10003516 <_etoa+0x202>
100034d4:	9b0c      	ldr	r3, [sp, #48]	; 0x30
100034d6:	1ac5      	subs	r5, r0, r3
100034d8:	9b27      	ldr	r3, [sp, #156]	; 0x9c
100034da:	42ab      	cmp	r3, r5
100034dc:	d91b      	bls.n	10003516 <_etoa+0x202>
100034de:	001e      	movs	r6, r3
100034e0:	0022      	movs	r2, r4
100034e2:	465b      	mov	r3, fp
100034e4:	4649      	mov	r1, r9
100034e6:	2020      	movs	r0, #32
100034e8:	3501      	adds	r5, #1
100034ea:	47b8      	blx	r7
100034ec:	3401      	adds	r4, #1
100034ee:	42ae      	cmp	r6, r5
100034f0:	d8f6      	bhi.n	100034e0 <_etoa+0x1cc>
100034f2:	e010      	b.n	10003516 <_etoa+0x202>
100034f4:	9b28      	ldr	r3, [sp, #160]	; 0xa0
100034f6:	4642      	mov	r2, r8
100034f8:	9304      	str	r3, [sp, #16]
100034fa:	9b27      	ldr	r3, [sp, #156]	; 0x9c
100034fc:	4649      	mov	r1, r9
100034fe:	9303      	str	r3, [sp, #12]
10003500:	9b26      	ldr	r3, [sp, #152]	; 0x98
10003502:	980b      	ldr	r0, [sp, #44]	; 0x2c
10003504:	9302      	str	r3, [sp, #8]
10003506:	4653      	mov	r3, sl
10003508:	9200      	str	r2, [sp, #0]
1000350a:	9301      	str	r3, [sp, #4]
1000350c:	465b      	mov	r3, fp
1000350e:	9a0c      	ldr	r2, [sp, #48]	; 0x30
10003510:	f000 f926 	bl	10003760 <_ftoa>
10003514:	0004      	movs	r4, r0
10003516:	0020      	movs	r0, r4
10003518:	b01b      	add	sp, #108	; 0x6c
1000351a:	bcf0      	pop	{r4, r5, r6, r7}
1000351c:	46bb      	mov	fp, r7
1000351e:	46b2      	mov	sl, r6
10003520:	46a9      	mov	r9, r5
10003522:	46a0      	mov	r8, r4
10003524:	bdf0      	pop	{r4, r5, r6, r7, pc}
10003526:	46c0      	nop			; (mov r8, r8)
10003528:	7fefffff 	.word	0x7fefffff
1000352c:	ffefffff 	.word	0xffefffff
10003530:	fffff7ff 	.word	0xfffff7ff
10003534:	4b73      	ldr	r3, [pc, #460]	; (10003704 <_etoa+0x3f0>)
10003536:	9f09      	ldr	r7, [sp, #36]	; 0x24
10003538:	469c      	mov	ip, r3
1000353a:	0078      	lsls	r0, r7, #1
1000353c:	0d40      	lsrs	r0, r0, #21
1000353e:	4460      	add	r0, ip
10003540:	f7ff f946 	bl	100027d0 <__wrap___aeabi_i2d>
10003544:	4a70      	ldr	r2, [pc, #448]	; (10003708 <_etoa+0x3f4>)
10003546:	4b71      	ldr	r3, [pc, #452]	; (1000370c <_etoa+0x3f8>)
10003548:	f7ff f8d3 	bl	100026f2 <__wrap___aeabi_dmul>
1000354c:	4a70      	ldr	r2, [pc, #448]	; (10003710 <_etoa+0x3fc>)
1000354e:	4b71      	ldr	r3, [pc, #452]	; (10003714 <_etoa+0x400>)
10003550:	f7ff f8a8 	bl	100026a4 <__wrap___aeabi_dadd>
10003554:	033b      	lsls	r3, r7, #12
10003556:	4a70      	ldr	r2, [pc, #448]	; (10003718 <_etoa+0x404>)
10003558:	0b1b      	lsrs	r3, r3, #12
1000355a:	431a      	orrs	r2, r3
1000355c:	0004      	movs	r4, r0
1000355e:	000d      	movs	r5, r1
10003560:	0030      	movs	r0, r6
10003562:	0011      	movs	r1, r2
10003564:	4b6d      	ldr	r3, [pc, #436]	; (1000371c <_etoa+0x408>)
10003566:	2200      	movs	r2, #0
10003568:	f7ff f893 	bl	10002692 <__wrap___aeabi_dsub>
1000356c:	4a6c      	ldr	r2, [pc, #432]	; (10003720 <_etoa+0x40c>)
1000356e:	4b6d      	ldr	r3, [pc, #436]	; (10003724 <_etoa+0x410>)
10003570:	f7ff f8bf 	bl	100026f2 <__wrap___aeabi_dmul>
10003574:	0002      	movs	r2, r0
10003576:	000b      	movs	r3, r1
10003578:	0020      	movs	r0, r4
1000357a:	0029      	movs	r1, r5
1000357c:	f7ff f892 	bl	100026a4 <__wrap___aeabi_dadd>
10003580:	f7ff f93e 	bl	10002800 <__wrap___aeabi_d2iz>
10003584:	900d      	str	r0, [sp, #52]	; 0x34
10003586:	f7ff f923 	bl	100027d0 <__wrap___aeabi_i2d>
1000358a:	4a67      	ldr	r2, [pc, #412]	; (10003728 <_etoa+0x414>)
1000358c:	4b67      	ldr	r3, [pc, #412]	; (1000372c <_etoa+0x418>)
1000358e:	0004      	movs	r4, r0
10003590:	000d      	movs	r5, r1
10003592:	f7ff f8ae 	bl	100026f2 <__wrap___aeabi_dmul>
10003596:	2200      	movs	r2, #0
10003598:	4b65      	ldr	r3, [pc, #404]	; (10003730 <_etoa+0x41c>)
1000359a:	f7ff f883 	bl	100026a4 <__wrap___aeabi_dadd>
1000359e:	f7ff f92f 	bl	10002800 <__wrap___aeabi_d2iz>
100035a2:	4a64      	ldr	r2, [pc, #400]	; (10003734 <_etoa+0x420>)
100035a4:	0006      	movs	r6, r0
100035a6:	4b64      	ldr	r3, [pc, #400]	; (10003738 <_etoa+0x424>)
100035a8:	0020      	movs	r0, r4
100035aa:	0029      	movs	r1, r5
100035ac:	f7ff f8a1 	bl	100026f2 <__wrap___aeabi_dmul>
100035b0:	0004      	movs	r4, r0
100035b2:	0030      	movs	r0, r6
100035b4:	000d      	movs	r5, r1
100035b6:	960f      	str	r6, [sp, #60]	; 0x3c
100035b8:	f7ff f90a 	bl	100027d0 <__wrap___aeabi_i2d>
100035bc:	4a5f      	ldr	r2, [pc, #380]	; (1000373c <_etoa+0x428>)
100035be:	4b60      	ldr	r3, [pc, #384]	; (10003740 <_etoa+0x42c>)
100035c0:	f7ff f897 	bl	100026f2 <__wrap___aeabi_dmul>
100035c4:	0002      	movs	r2, r0
100035c6:	000b      	movs	r3, r1
100035c8:	0020      	movs	r0, r4
100035ca:	0029      	movs	r1, r5
100035cc:	f7ff f861 	bl	10002692 <__wrap___aeabi_dsub>
100035d0:	0002      	movs	r2, r0
100035d2:	000b      	movs	r3, r1
100035d4:	0006      	movs	r6, r0
100035d6:	000f      	movs	r7, r1
100035d8:	f7ff f88b 	bl	100026f2 <__wrap___aeabi_dmul>
100035dc:	0032      	movs	r2, r6
100035de:	0004      	movs	r4, r0
100035e0:	000d      	movs	r5, r1
100035e2:	003b      	movs	r3, r7
100035e4:	0030      	movs	r0, r6
100035e6:	0039      	movs	r1, r7
100035e8:	f7ff f85c 	bl	100026a4 <__wrap___aeabi_dadd>
100035ec:	2200      	movs	r2, #0
100035ee:	9010      	str	r0, [sp, #64]	; 0x40
100035f0:	9111      	str	r1, [sp, #68]	; 0x44
100035f2:	4b54      	ldr	r3, [pc, #336]	; (10003744 <_etoa+0x430>)
100035f4:	0020      	movs	r0, r4
100035f6:	0029      	movs	r1, r5
100035f8:	f7ff f85d 	bl	100026b6 <__wrap___aeabi_ddiv>
100035fc:	2200      	movs	r2, #0
100035fe:	4b52      	ldr	r3, [pc, #328]	; (10003748 <_etoa+0x434>)
10003600:	f7ff f850 	bl	100026a4 <__wrap___aeabi_dadd>
10003604:	0002      	movs	r2, r0
10003606:	000b      	movs	r3, r1
10003608:	0020      	movs	r0, r4
1000360a:	0029      	movs	r1, r5
1000360c:	f7ff f853 	bl	100026b6 <__wrap___aeabi_ddiv>
10003610:	2200      	movs	r2, #0
10003612:	4b4e      	ldr	r3, [pc, #312]	; (1000374c <_etoa+0x438>)
10003614:	f7ff f846 	bl	100026a4 <__wrap___aeabi_dadd>
10003618:	0002      	movs	r2, r0
1000361a:	000b      	movs	r3, r1
1000361c:	0020      	movs	r0, r4
1000361e:	0029      	movs	r1, r5
10003620:	f7ff f849 	bl	100026b6 <__wrap___aeabi_ddiv>
10003624:	000d      	movs	r5, r1
10003626:	2180      	movs	r1, #128	; 0x80
10003628:	0004      	movs	r4, r0
1000362a:	0032      	movs	r2, r6
1000362c:	003b      	movs	r3, r7
1000362e:	2000      	movs	r0, #0
10003630:	05c9      	lsls	r1, r1, #23
10003632:	f7ff f82e 	bl	10002692 <__wrap___aeabi_dsub>
10003636:	0002      	movs	r2, r0
10003638:	000b      	movs	r3, r1
1000363a:	0020      	movs	r0, r4
1000363c:	0029      	movs	r1, r5
1000363e:	f7ff f831 	bl	100026a4 <__wrap___aeabi_dadd>
10003642:	0002      	movs	r2, r0
10003644:	000b      	movs	r3, r1
10003646:	9810      	ldr	r0, [sp, #64]	; 0x40
10003648:	9911      	ldr	r1, [sp, #68]	; 0x44
1000364a:	f7ff f834 	bl	100026b6 <__wrap___aeabi_ddiv>
1000364e:	2200      	movs	r2, #0
10003650:	4b31      	ldr	r3, [pc, #196]	; (10003718 <_etoa+0x404>)
10003652:	f7ff f827 	bl	100026a4 <__wrap___aeabi_dadd>
10003656:	4b3e      	ldr	r3, [pc, #248]	; (10003750 <_etoa+0x43c>)
10003658:	9c0f      	ldr	r4, [sp, #60]	; 0x3c
1000365a:	469c      	mov	ip, r3
1000365c:	4464      	add	r4, ip
1000365e:	2200      	movs	r2, #0
10003660:	0523      	lsls	r3, r4, #20
10003662:	f7ff f846 	bl	100026f2 <__wrap___aeabi_dmul>
10003666:	0005      	movs	r5, r0
10003668:	000e      	movs	r6, r1
1000366a:	0002      	movs	r2, r0
1000366c:	000b      	movs	r3, r1
1000366e:	980a      	ldr	r0, [sp, #40]	; 0x28
10003670:	9909      	ldr	r1, [sp, #36]	; 0x24
10003672:	f7ff f881 	bl	10002778 <__wrap___aeabi_dcmplt>
10003676:	2800      	cmp	r0, #0
10003678:	d00a      	beq.n	10003690 <_etoa+0x37c>
1000367a:	9b0d      	ldr	r3, [sp, #52]	; 0x34
1000367c:	0028      	movs	r0, r5
1000367e:	3b01      	subs	r3, #1
10003680:	0031      	movs	r1, r6
10003682:	930d      	str	r3, [sp, #52]	; 0x34
10003684:	2200      	movs	r2, #0
10003686:	4b30      	ldr	r3, [pc, #192]	; (10003748 <_etoa+0x434>)
10003688:	f7ff f815 	bl	100026b6 <__wrap___aeabi_ddiv>
1000368c:	0005      	movs	r5, r0
1000368e:	000e      	movs	r6, r1
10003690:	27c6      	movs	r7, #198	; 0xc6
10003692:	990d      	ldr	r1, [sp, #52]	; 0x34
10003694:	002b      	movs	r3, r5
10003696:	3163      	adds	r1, #99	; 0x63
10003698:	428f      	cmp	r7, r1
1000369a:	41bf      	sbcs	r7, r7
1000369c:	9928      	ldr	r1, [sp, #160]	; 0xa0
1000369e:	427f      	negs	r7, r7
100036a0:	3704      	adds	r7, #4
100036a2:	0509      	lsls	r1, r1, #20
100036a4:	d400      	bmi.n	100036a8 <_etoa+0x394>
100036a6:	e695      	b.n	100033d4 <_etoa+0xc0>
100036a8:	4333      	orrs	r3, r6
100036aa:	d100      	bne.n	100036ae <_etoa+0x39a>
100036ac:	e682      	b.n	100033b4 <_etoa+0xa0>
100036ae:	9c09      	ldr	r4, [sp, #36]	; 0x24
100036b0:	4a28      	ldr	r2, [pc, #160]	; (10003754 <_etoa+0x440>)
100036b2:	0021      	movs	r1, r4
100036b4:	4b28      	ldr	r3, [pc, #160]	; (10003758 <_etoa+0x444>)
100036b6:	980a      	ldr	r0, [sp, #40]	; 0x28
100036b8:	f7ff f86c 	bl	10002794 <__wrap___aeabi_dcmpge>
100036bc:	2800      	cmp	r0, #0
100036be:	d008      	beq.n	100036d2 <_etoa+0x3be>
100036c0:	2200      	movs	r2, #0
100036c2:	0021      	movs	r1, r4
100036c4:	4b25      	ldr	r3, [pc, #148]	; (1000375c <_etoa+0x448>)
100036c6:	980a      	ldr	r0, [sp, #40]	; 0x28
100036c8:	f7ff f856 	bl	10002778 <__wrap___aeabi_dcmplt>
100036cc:	2800      	cmp	r0, #0
100036ce:	d000      	beq.n	100036d2 <_etoa+0x3be>
100036d0:	e670      	b.n	100033b4 <_etoa+0xa0>
100036d2:	9b26      	ldr	r3, [sp, #152]	; 0x98
100036d4:	2b00      	cmp	r3, #0
100036d6:	d100      	bne.n	100036da <_etoa+0x3c6>
100036d8:	e67c      	b.n	100033d4 <_etoa+0xc0>
100036da:	9b0e      	ldr	r3, [sp, #56]	; 0x38
100036dc:	1e5a      	subs	r2, r3, #1
100036de:	4193      	sbcs	r3, r2
100036e0:	9a26      	ldr	r2, [sp, #152]	; 0x98
100036e2:	1ad3      	subs	r3, r2, r3
100036e4:	9326      	str	r3, [sp, #152]	; 0x98
100036e6:	e675      	b.n	100033d4 <_etoa+0xc0>
100036e8:	2300      	movs	r3, #0
100036ea:	2704      	movs	r7, #4
100036ec:	930d      	str	r3, [sp, #52]	; 0x34
100036ee:	e671      	b.n	100033d4 <_etoa+0xc0>
100036f0:	4643      	mov	r3, r8
100036f2:	930a      	str	r3, [sp, #40]	; 0x28
100036f4:	2380      	movs	r3, #128	; 0x80
100036f6:	061b      	lsls	r3, r3, #24
100036f8:	4453      	add	r3, sl
100036fa:	9309      	str	r3, [sp, #36]	; 0x24
100036fc:	e642      	b.n	10003384 <_etoa+0x70>
100036fe:	2300      	movs	r3, #0
10003700:	9326      	str	r3, [sp, #152]	; 0x98
10003702:	e65f      	b.n	100033c4 <_etoa+0xb0>
10003704:	fffffc01 	.word	0xfffffc01
10003708:	509f79fb 	.word	0x509f79fb
1000370c:	3fd34413 	.word	0x3fd34413
10003710:	8b60c8b3 	.word	0x8b60c8b3
10003714:	3fc68a28 	.word	0x3fc68a28
10003718:	3ff00000 	.word	0x3ff00000
1000371c:	3ff80000 	.word	0x3ff80000
10003720:	636f4361 	.word	0x636f4361
10003724:	3fd287a7 	.word	0x3fd287a7
10003728:	0979a371 	.word	0x0979a371
1000372c:	400a934f 	.word	0x400a934f
10003730:	3fe00000 	.word	0x3fe00000
10003734:	bbb55516 	.word	0xbbb55516
10003738:	40026bb1 	.word	0x40026bb1
1000373c:	fefa39ef 	.word	0xfefa39ef
10003740:	3fe62e42 	.word	0x3fe62e42
10003744:	402c0000 	.word	0x402c0000
10003748:	40240000 	.word	0x40240000
1000374c:	40180000 	.word	0x40180000
10003750:	000003ff 	.word	0x000003ff
10003754:	eb1c432d 	.word	0xeb1c432d
10003758:	3f1a36e2 	.word	0x3f1a36e2
1000375c:	412e8480 	.word	0x412e8480

10003760 <_ftoa>:
10003760:	b5f0      	push	{r4, r5, r6, r7, lr}
10003762:	464e      	mov	r6, r9
10003764:	46de      	mov	lr, fp
10003766:	4657      	mov	r7, sl
10003768:	4645      	mov	r5, r8
1000376a:	b5e0      	push	{r5, r6, r7, lr}
1000376c:	b097      	sub	sp, #92	; 0x5c
1000376e:	4699      	mov	r9, r3
10003770:	9e20      	ldr	r6, [sp, #128]	; 0x80
10003772:	9f21      	ldr	r7, [sp, #132]	; 0x84
10003774:	9b22      	ldr	r3, [sp, #136]	; 0x88
10003776:	4683      	mov	fp, r0
10003778:	4698      	mov	r8, r3
1000377a:	9107      	str	r1, [sp, #28]
1000377c:	920c      	str	r2, [sp, #48]	; 0x30
1000377e:	003b      	movs	r3, r7
10003780:	0032      	movs	r2, r6
10003782:	0030      	movs	r0, r6
10003784:	0039      	movs	r1, r7
10003786:	f7ff f812 	bl	100027ae <__wrap___aeabi_dcmpun>
1000378a:	2800      	cmp	r0, #0
1000378c:	d000      	beq.n	10003790 <_ftoa+0x30>
1000378e:	e1a9      	b.n	10003ae4 <_ftoa+0x384>
10003790:	2201      	movs	r2, #1
10003792:	0030      	movs	r0, r6
10003794:	0039      	movs	r1, r7
10003796:	4bca      	ldr	r3, [pc, #808]	; (10003ac0 <_ftoa+0x360>)
10003798:	4252      	negs	r2, r2
1000379a:	f7fe ffed 	bl	10002778 <__wrap___aeabi_dcmplt>
1000379e:	2800      	cmp	r0, #0
100037a0:	d000      	beq.n	100037a4 <_ftoa+0x44>
100037a2:	e0e1      	b.n	10003968 <_ftoa+0x208>
100037a4:	2201      	movs	r2, #1
100037a6:	0030      	movs	r0, r6
100037a8:	0039      	movs	r1, r7
100037aa:	4bc6      	ldr	r3, [pc, #792]	; (10003ac4 <_ftoa+0x364>)
100037ac:	4252      	negs	r2, r2
100037ae:	f7fe fff9 	bl	100027a4 <__wrap___aeabi_dcmpgt>
100037b2:	2800      	cmp	r0, #0
100037b4:	d000      	beq.n	100037b8 <_ftoa+0x58>
100037b6:	e0b7      	b.n	10003928 <_ftoa+0x1c8>
100037b8:	2200      	movs	r2, #0
100037ba:	0030      	movs	r0, r6
100037bc:	0039      	movs	r1, r7
100037be:	4bc2      	ldr	r3, [pc, #776]	; (10003ac8 <_ftoa+0x368>)
100037c0:	f7fe fff0 	bl	100027a4 <__wrap___aeabi_dcmpgt>
100037c4:	2800      	cmp	r0, #0
100037c6:	d000      	beq.n	100037ca <_ftoa+0x6a>
100037c8:	e099      	b.n	100038fe <_ftoa+0x19e>
100037ca:	2200      	movs	r2, #0
100037cc:	0030      	movs	r0, r6
100037ce:	0039      	movs	r1, r7
100037d0:	4bbe      	ldr	r3, [pc, #760]	; (10003acc <_ftoa+0x36c>)
100037d2:	f7fe ffd1 	bl	10002778 <__wrap___aeabi_dcmplt>
100037d6:	2800      	cmp	r0, #0
100037d8:	d000      	beq.n	100037dc <_ftoa+0x7c>
100037da:	e090      	b.n	100038fe <_ftoa+0x19e>
100037dc:	2200      	movs	r2, #0
100037de:	2300      	movs	r3, #0
100037e0:	0030      	movs	r0, r6
100037e2:	0039      	movs	r1, r7
100037e4:	f7fe ffc8 	bl	10002778 <__wrap___aeabi_dcmplt>
100037e8:	2800      	cmp	r0, #0
100037ea:	d000      	beq.n	100037ee <_ftoa+0x8e>
100037ec:	e0b1      	b.n	10003952 <_ftoa+0x1f2>
100037ee:	2300      	movs	r3, #0
100037f0:	930d      	str	r3, [sp, #52]	; 0x34
100037f2:	9b24      	ldr	r3, [sp, #144]	; 0x90
100037f4:	055b      	lsls	r3, r3, #21
100037f6:	d401      	bmi.n	100037fc <_ftoa+0x9c>
100037f8:	2306      	movs	r3, #6
100037fa:	4698      	mov	r8, r3
100037fc:	ab08      	add	r3, sp, #32
100037fe:	469c      	mov	ip, r3
10003800:	2217      	movs	r2, #23
10003802:	2400      	movs	r4, #0
10003804:	2330      	movs	r3, #48	; 0x30
10003806:	4641      	mov	r1, r8
10003808:	4462      	add	r2, ip
1000380a:	e004      	b.n	10003816 <_ftoa+0xb6>
1000380c:	3401      	adds	r4, #1
1000380e:	5513      	strb	r3, [r2, r4]
10003810:	3901      	subs	r1, #1
10003812:	2c20      	cmp	r4, #32
10003814:	d001      	beq.n	1000381a <_ftoa+0xba>
10003816:	2909      	cmp	r1, #9
10003818:	d8f8      	bhi.n	1000380c <_ftoa+0xac>
1000381a:	4688      	mov	r8, r1
1000381c:	0030      	movs	r0, r6
1000381e:	0039      	movs	r1, r7
10003820:	f7fe ffee 	bl	10002800 <__wrap___aeabi_d2iz>
10003824:	4643      	mov	r3, r8
10003826:	00da      	lsls	r2, r3, #3
10003828:	4ba9      	ldr	r3, [pc, #676]	; (10003ad0 <_ftoa+0x370>)
1000382a:	0005      	movs	r5, r0
1000382c:	189b      	adds	r3, r3, r2
1000382e:	681a      	ldr	r2, [r3, #0]
10003830:	685b      	ldr	r3, [r3, #4]
10003832:	9208      	str	r2, [sp, #32]
10003834:	9309      	str	r3, [sp, #36]	; 0x24
10003836:	f7fe ffcb 	bl	100027d0 <__wrap___aeabi_i2d>
1000383a:	0002      	movs	r2, r0
1000383c:	000b      	movs	r3, r1
1000383e:	0030      	movs	r0, r6
10003840:	0039      	movs	r1, r7
10003842:	f7fe ff26 	bl	10002692 <__wrap___aeabi_dsub>
10003846:	9a08      	ldr	r2, [sp, #32]
10003848:	9b09      	ldr	r3, [sp, #36]	; 0x24
1000384a:	f7fe ff52 	bl	100026f2 <__wrap___aeabi_dmul>
1000384e:	900a      	str	r0, [sp, #40]	; 0x28
10003850:	910b      	str	r1, [sp, #44]	; 0x2c
10003852:	f7fe fff9 	bl	10002848 <__wrap___aeabi_d2uiz>
10003856:	4682      	mov	sl, r0
10003858:	f7fe ffb6 	bl	100027c8 <__wrap___aeabi_ui2d>
1000385c:	0002      	movs	r2, r0
1000385e:	000b      	movs	r3, r1
10003860:	980a      	ldr	r0, [sp, #40]	; 0x28
10003862:	990b      	ldr	r1, [sp, #44]	; 0x2c
10003864:	f7fe ff15 	bl	10002692 <__wrap___aeabi_dsub>
10003868:	2200      	movs	r2, #0
1000386a:	4b9a      	ldr	r3, [pc, #616]	; (10003ad4 <_ftoa+0x374>)
1000386c:	900a      	str	r0, [sp, #40]	; 0x28
1000386e:	910b      	str	r1, [sp, #44]	; 0x2c
10003870:	f7fe ff98 	bl	100027a4 <__wrap___aeabi_dcmpgt>
10003874:	2800      	cmp	r0, #0
10003876:	d100      	bne.n	1000387a <_ftoa+0x11a>
10003878:	e0c0      	b.n	100039fc <_ftoa+0x29c>
1000387a:	2301      	movs	r3, #1
1000387c:	469c      	mov	ip, r3
1000387e:	44e2      	add	sl, ip
10003880:	4650      	mov	r0, sl
10003882:	f7fe ffa1 	bl	100027c8 <__wrap___aeabi_ui2d>
10003886:	0002      	movs	r2, r0
10003888:	000b      	movs	r3, r1
1000388a:	9808      	ldr	r0, [sp, #32]
1000388c:	9909      	ldr	r1, [sp, #36]	; 0x24
1000388e:	f7fe ff79 	bl	10002784 <__wrap___aeabi_dcmple>
10003892:	2800      	cmp	r0, #0
10003894:	d002      	beq.n	1000389c <_ftoa+0x13c>
10003896:	2300      	movs	r3, #0
10003898:	469a      	mov	sl, r3
1000389a:	3501      	adds	r5, #1
1000389c:	4643      	mov	r3, r8
1000389e:	2b00      	cmp	r3, #0
100038a0:	d06a      	beq.n	10003978 <_ftoa+0x218>
100038a2:	ab08      	add	r3, sp, #32
100038a4:	2617      	movs	r6, #23
100038a6:	469c      	mov	ip, r3
100038a8:	9508      	str	r5, [sp, #32]
100038aa:	4466      	add	r6, ip
100038ac:	4655      	mov	r5, sl
100038ae:	e014      	b.n	100038da <_ftoa+0x17a>
100038b0:	2301      	movs	r3, #1
100038b2:	425b      	negs	r3, r3
100038b4:	4443      	add	r3, r8
100038b6:	210a      	movs	r1, #10
100038b8:	0028      	movs	r0, r5
100038ba:	469a      	mov	sl, r3
100038bc:	f7fe fcae 	bl	1000221c <__wrap___aeabi_uidiv>
100038c0:	3401      	adds	r4, #1
100038c2:	3130      	adds	r1, #48	; 0x30
100038c4:	1937      	adds	r7, r6, r4
100038c6:	7039      	strb	r1, [r7, #0]
100038c8:	0028      	movs	r0, r5
100038ca:	210a      	movs	r1, #10
100038cc:	f7fe fca6 	bl	1000221c <__wrap___aeabi_uidiv>
100038d0:	2d09      	cmp	r5, #9
100038d2:	d800      	bhi.n	100038d6 <_ftoa+0x176>
100038d4:	e0d0      	b.n	10003a78 <_ftoa+0x318>
100038d6:	46d0      	mov	r8, sl
100038d8:	0005      	movs	r5, r0
100038da:	2c20      	cmp	r4, #32
100038dc:	d1e8      	bne.n	100038b0 <_ftoa+0x150>
100038de:	ab0e      	add	r3, sp, #56	; 0x38
100038e0:	4698      	mov	r8, r3
100038e2:	2303      	movs	r3, #3
100038e4:	9a24      	ldr	r2, [sp, #144]	; 0x90
100038e6:	4013      	ands	r3, r2
100038e8:	2b01      	cmp	r3, #1
100038ea:	d100      	bne.n	100038ee <_ftoa+0x18e>
100038ec:	e096      	b.n	10003a1c <_ftoa+0x2bc>
100038ee:	2320      	movs	r3, #32
100038f0:	9a24      	ldr	r2, [sp, #144]	; 0x90
100038f2:	9301      	str	r3, [sp, #4]
100038f4:	9203      	str	r2, [sp, #12]
100038f6:	9a23      	ldr	r2, [sp, #140]	; 0x8c
100038f8:	4643      	mov	r3, r8
100038fa:	9202      	str	r2, [sp, #8]
100038fc:	e01e      	b.n	1000393c <_ftoa+0x1dc>
100038fe:	9b24      	ldr	r3, [sp, #144]	; 0x90
10003900:	4658      	mov	r0, fp
10003902:	9304      	str	r3, [sp, #16]
10003904:	9b23      	ldr	r3, [sp, #140]	; 0x8c
10003906:	9600      	str	r6, [sp, #0]
10003908:	9701      	str	r7, [sp, #4]
1000390a:	9303      	str	r3, [sp, #12]
1000390c:	4643      	mov	r3, r8
1000390e:	9a0c      	ldr	r2, [sp, #48]	; 0x30
10003910:	9302      	str	r3, [sp, #8]
10003912:	9907      	ldr	r1, [sp, #28]
10003914:	464b      	mov	r3, r9
10003916:	f7ff fcfd 	bl	10003314 <_etoa>
1000391a:	b017      	add	sp, #92	; 0x5c
1000391c:	bcf0      	pop	{r4, r5, r6, r7}
1000391e:	46bb      	mov	fp, r7
10003920:	46b2      	mov	sl, r6
10003922:	46a9      	mov	r9, r5
10003924:	46a0      	mov	r8, r4
10003926:	bdf0      	pop	{r4, r5, r6, r7, pc}
10003928:	9b24      	ldr	r3, [sp, #144]	; 0x90
1000392a:	075b      	lsls	r3, r3, #29
1000392c:	d40e      	bmi.n	1000394c <_ftoa+0x1ec>
1000392e:	2203      	movs	r2, #3
10003930:	4b69      	ldr	r3, [pc, #420]	; (10003ad8 <_ftoa+0x378>)
10003932:	9924      	ldr	r1, [sp, #144]	; 0x90
10003934:	9201      	str	r2, [sp, #4]
10003936:	9103      	str	r1, [sp, #12]
10003938:	9923      	ldr	r1, [sp, #140]	; 0x8c
1000393a:	9102      	str	r1, [sp, #8]
1000393c:	9300      	str	r3, [sp, #0]
1000393e:	4658      	mov	r0, fp
10003940:	464b      	mov	r3, r9
10003942:	9a0c      	ldr	r2, [sp, #48]	; 0x30
10003944:	9907      	ldr	r1, [sp, #28]
10003946:	f7ff fba9 	bl	1000309c <_out_rev>
1000394a:	e7e6      	b.n	1000391a <_ftoa+0x1ba>
1000394c:	2204      	movs	r2, #4
1000394e:	4b63      	ldr	r3, [pc, #396]	; (10003adc <_ftoa+0x37c>)
10003950:	e7ef      	b.n	10003932 <_ftoa+0x1d2>
10003952:	003b      	movs	r3, r7
10003954:	0032      	movs	r2, r6
10003956:	2000      	movs	r0, #0
10003958:	2100      	movs	r1, #0
1000395a:	f7fe fe9a 	bl	10002692 <__wrap___aeabi_dsub>
1000395e:	2301      	movs	r3, #1
10003960:	0006      	movs	r6, r0
10003962:	000f      	movs	r7, r1
10003964:	930d      	str	r3, [sp, #52]	; 0x34
10003966:	e744      	b.n	100037f2 <_ftoa+0x92>
10003968:	9b24      	ldr	r3, [sp, #144]	; 0x90
1000396a:	9303      	str	r3, [sp, #12]
1000396c:	9b23      	ldr	r3, [sp, #140]	; 0x8c
1000396e:	9302      	str	r3, [sp, #8]
10003970:	2304      	movs	r3, #4
10003972:	9301      	str	r3, [sp, #4]
10003974:	4b5a      	ldr	r3, [pc, #360]	; (10003ae0 <_ftoa+0x380>)
10003976:	e7e1      	b.n	1000393c <_ftoa+0x1dc>
10003978:	0028      	movs	r0, r5
1000397a:	f7fe ff29 	bl	100027d0 <__wrap___aeabi_i2d>
1000397e:	0002      	movs	r2, r0
10003980:	000b      	movs	r3, r1
10003982:	0030      	movs	r0, r6
10003984:	0039      	movs	r1, r7
10003986:	f7fe fe84 	bl	10002692 <__wrap___aeabi_dsub>
1000398a:	4b52      	ldr	r3, [pc, #328]	; (10003ad4 <_ftoa+0x374>)
1000398c:	2200      	movs	r2, #0
1000398e:	0006      	movs	r6, r0
10003990:	000f      	movs	r7, r1
10003992:	f7fe fef1 	bl	10002778 <__wrap___aeabi_dcmplt>
10003996:	ab0e      	add	r3, sp, #56	; 0x38
10003998:	4698      	mov	r8, r3
1000399a:	2800      	cmp	r0, #0
1000399c:	d10a      	bne.n	100039b4 <_ftoa+0x254>
1000399e:	2200      	movs	r2, #0
100039a0:	0030      	movs	r0, r6
100039a2:	0039      	movs	r1, r7
100039a4:	4b4b      	ldr	r3, [pc, #300]	; (10003ad4 <_ftoa+0x374>)
100039a6:	f7fe fefd 	bl	100027a4 <__wrap___aeabi_dcmpgt>
100039aa:	2800      	cmp	r0, #0
100039ac:	d102      	bne.n	100039b4 <_ftoa+0x254>
100039ae:	07eb      	lsls	r3, r5, #31
100039b0:	d500      	bpl.n	100039b4 <_ftoa+0x254>
100039b2:	3501      	adds	r5, #1
100039b4:	2c20      	cmp	r4, #32
100039b6:	d094      	beq.n	100038e2 <_ftoa+0x182>
100039b8:	aa08      	add	r2, sp, #32
100039ba:	4694      	mov	ip, r2
100039bc:	2317      	movs	r3, #23
100039be:	0028      	movs	r0, r5
100039c0:	4463      	add	r3, ip
100039c2:	210a      	movs	r1, #10
100039c4:	3401      	adds	r4, #1
100039c6:	191e      	adds	r6, r3, r4
100039c8:	f7fe fc00 	bl	100021cc <__wrap___aeabi_idiv>
100039cc:	3130      	adds	r1, #48	; 0x30
100039ce:	0028      	movs	r0, r5
100039d0:	7031      	strb	r1, [r6, #0]
100039d2:	210a      	movs	r1, #10
100039d4:	f7fe fbfa 	bl	100021cc <__wrap___aeabi_idiv>
100039d8:	1e05      	subs	r5, r0, #0
100039da:	d1eb      	bne.n	100039b4 <_ftoa+0x254>
100039dc:	2303      	movs	r3, #3
100039de:	9a24      	ldr	r2, [sp, #144]	; 0x90
100039e0:	4013      	ands	r3, r2
100039e2:	2b01      	cmp	r3, #1
100039e4:	d01b      	beq.n	10003a1e <_ftoa+0x2be>
100039e6:	2c20      	cmp	r4, #32
100039e8:	d100      	bne.n	100039ec <_ftoa+0x28c>
100039ea:	e780      	b.n	100038ee <_ftoa+0x18e>
100039ec:	9b0d      	ldr	r3, [sp, #52]	; 0x34
100039ee:	2b00      	cmp	r3, #0
100039f0:	d035      	beq.n	10003a5e <_ftoa+0x2fe>
100039f2:	222d      	movs	r2, #45	; 0x2d
100039f4:	4641      	mov	r1, r8
100039f6:	1c63      	adds	r3, r4, #1
100039f8:	550a      	strb	r2, [r1, r4]
100039fa:	e779      	b.n	100038f0 <_ftoa+0x190>
100039fc:	2200      	movs	r2, #0
100039fe:	980a      	ldr	r0, [sp, #40]	; 0x28
10003a00:	990b      	ldr	r1, [sp, #44]	; 0x2c
10003a02:	4b34      	ldr	r3, [pc, #208]	; (10003ad4 <_ftoa+0x374>)
10003a04:	f7fe feb8 	bl	10002778 <__wrap___aeabi_dcmplt>
10003a08:	2800      	cmp	r0, #0
10003a0a:	d000      	beq.n	10003a0e <_ftoa+0x2ae>
10003a0c:	e746      	b.n	1000389c <_ftoa+0x13c>
10003a0e:	4653      	mov	r3, sl
10003a10:	2b00      	cmp	r3, #0
10003a12:	d151      	bne.n	10003ab8 <_ftoa+0x358>
10003a14:	2301      	movs	r3, #1
10003a16:	469c      	mov	ip, r3
10003a18:	44e2      	add	sl, ip
10003a1a:	e73f      	b.n	1000389c <_ftoa+0x13c>
10003a1c:	2420      	movs	r4, #32
10003a1e:	9b23      	ldr	r3, [sp, #140]	; 0x8c
10003a20:	2b00      	cmp	r3, #0
10003a22:	d0e0      	beq.n	100039e6 <_ftoa+0x286>
10003a24:	9b0d      	ldr	r3, [sp, #52]	; 0x34
10003a26:	2b00      	cmp	r3, #0
10003a28:	d103      	bne.n	10003a32 <_ftoa+0x2d2>
10003a2a:	9a24      	ldr	r2, [sp, #144]	; 0x90
10003a2c:	330c      	adds	r3, #12
10003a2e:	4213      	tst	r3, r2
10003a30:	d002      	beq.n	10003a38 <_ftoa+0x2d8>
10003a32:	9b23      	ldr	r3, [sp, #140]	; 0x8c
10003a34:	3b01      	subs	r3, #1
10003a36:	9323      	str	r3, [sp, #140]	; 0x8c
10003a38:	9b23      	ldr	r3, [sp, #140]	; 0x8c
10003a3a:	42a3      	cmp	r3, r4
10003a3c:	d9d3      	bls.n	100039e6 <_ftoa+0x286>
10003a3e:	ab08      	add	r3, sp, #32
10003a40:	469c      	mov	ip, r3
10003a42:	2217      	movs	r2, #23
10003a44:	2330      	movs	r3, #48	; 0x30
10003a46:	4462      	add	r2, ip
10003a48:	2c20      	cmp	r4, #32
10003a4a:	d100      	bne.n	10003a4e <_ftoa+0x2ee>
10003a4c:	e74f      	b.n	100038ee <_ftoa+0x18e>
10003a4e:	9923      	ldr	r1, [sp, #140]	; 0x8c
10003a50:	3401      	adds	r4, #1
10003a52:	5513      	strb	r3, [r2, r4]
10003a54:	428c      	cmp	r4, r1
10003a56:	d0c6      	beq.n	100039e6 <_ftoa+0x286>
10003a58:	2c20      	cmp	r4, #32
10003a5a:	d1f8      	bne.n	10003a4e <_ftoa+0x2ee>
10003a5c:	e747      	b.n	100038ee <_ftoa+0x18e>
10003a5e:	9b24      	ldr	r3, [sp, #144]	; 0x90
10003a60:	075b      	lsls	r3, r3, #29
10003a62:	d424      	bmi.n	10003aae <_ftoa+0x34e>
10003a64:	9a24      	ldr	r2, [sp, #144]	; 0x90
10003a66:	0023      	movs	r3, r4
10003a68:	0712      	lsls	r2, r2, #28
10003a6a:	d400      	bmi.n	10003a6e <_ftoa+0x30e>
10003a6c:	e740      	b.n	100038f0 <_ftoa+0x190>
10003a6e:	2220      	movs	r2, #32
10003a70:	4641      	mov	r1, r8
10003a72:	3301      	adds	r3, #1
10003a74:	550a      	strb	r2, [r1, r4]
10003a76:	e73b      	b.n	100038f0 <_ftoa+0x190>
10003a78:	4657      	mov	r7, sl
10003a7a:	9d08      	ldr	r5, [sp, #32]
10003a7c:	2c20      	cmp	r4, #32
10003a7e:	d100      	bne.n	10003a82 <_ftoa+0x322>
10003a80:	e72d      	b.n	100038de <_ftoa+0x17e>
10003a82:	0022      	movs	r2, r4
10003a84:	2130      	movs	r1, #48	; 0x30
10003a86:	4640      	mov	r0, r8
10003a88:	2f00      	cmp	r7, #0
10003a8a:	d009      	beq.n	10003aa0 <_ftoa+0x340>
10003a8c:	3201      	adds	r2, #1
10003a8e:	54b1      	strb	r1, [r6, r2]
10003a90:	2a20      	cmp	r2, #32
10003a92:	d100      	bne.n	10003a96 <_ftoa+0x336>
10003a94:	e723      	b.n	100038de <_ftoa+0x17e>
10003a96:	43d3      	mvns	r3, r2
10003a98:	191b      	adds	r3, r3, r4
10003a9a:	181b      	adds	r3, r3, r0
10003a9c:	2b00      	cmp	r3, #0
10003a9e:	d1f5      	bne.n	10003a8c <_ftoa+0x32c>
10003aa0:	ab0e      	add	r3, sp, #56	; 0x38
10003aa2:	4698      	mov	r8, r3
10003aa4:	232e      	movs	r3, #46	; 0x2e
10003aa6:	4641      	mov	r1, r8
10003aa8:	1c54      	adds	r4, r2, #1
10003aaa:	548b      	strb	r3, [r1, r2]
10003aac:	e782      	b.n	100039b4 <_ftoa+0x254>
10003aae:	222b      	movs	r2, #43	; 0x2b
10003ab0:	4641      	mov	r1, r8
10003ab2:	1c63      	adds	r3, r4, #1
10003ab4:	550a      	strb	r2, [r1, r4]
10003ab6:	e71b      	b.n	100038f0 <_ftoa+0x190>
10003ab8:	07db      	lsls	r3, r3, #31
10003aba:	d400      	bmi.n	10003abe <_ftoa+0x35e>
10003abc:	e6ee      	b.n	1000389c <_ftoa+0x13c>
10003abe:	e7a9      	b.n	10003a14 <_ftoa+0x2b4>
10003ac0:	ffefffff 	.word	0xffefffff
10003ac4:	7fefffff 	.word	0x7fefffff
10003ac8:	41cdcd65 	.word	0x41cdcd65
10003acc:	c1cdcd65 	.word	0xc1cdcd65
10003ad0:	10006698 	.word	0x10006698
10003ad4:	3fe00000 	.word	0x3fe00000
10003ad8:	100064a0 	.word	0x100064a0
10003adc:	100064a4 	.word	0x100064a4
10003ae0:	100064b0 	.word	0x100064b0
10003ae4:	9b24      	ldr	r3, [sp, #144]	; 0x90
10003ae6:	9303      	str	r3, [sp, #12]
10003ae8:	9b23      	ldr	r3, [sp, #140]	; 0x8c
10003aea:	9302      	str	r3, [sp, #8]
10003aec:	2303      	movs	r3, #3
10003aee:	9301      	str	r3, [sp, #4]
10003af0:	4b00      	ldr	r3, [pc, #0]	; (10003af4 <_ftoa+0x394>)
10003af2:	e723      	b.n	1000393c <_ftoa+0x1dc>
10003af4:	100064ac 	.word	0x100064ac

10003af8 <_vsnprintf>:
10003af8:	b5f0      	push	{r4, r5, r6, r7, lr}
10003afa:	46de      	mov	lr, fp
10003afc:	464e      	mov	r6, r9
10003afe:	4657      	mov	r7, sl
10003b00:	4645      	mov	r5, r8
10003b02:	b5e0      	push	{r5, r6, r7, lr}
10003b04:	b09f      	sub	sp, #124	; 0x7c
10003b06:	001c      	movs	r4, r3
10003b08:	9b28      	ldr	r3, [sp, #160]	; 0xa0
10003b0a:	4691      	mov	r9, r2
10003b0c:	9309      	str	r3, [sp, #36]	; 0x24
10003b0e:	4ac9      	ldr	r2, [pc, #804]	; (10003e34 <_vsnprintf+0x33c>)
10003b10:	4bc9      	ldr	r3, [pc, #804]	; (10003e38 <_vsnprintf+0x340>)
10003b12:	468b      	mov	fp, r1
10003b14:	9008      	str	r0, [sp, #32]
10003b16:	601a      	str	r2, [r3, #0]
10003b18:	2900      	cmp	r1, #0
10003b1a:	d100      	bne.n	10003b1e <_vsnprintf+0x26>
10003b1c:	e218      	b.n	10003f50 <_vsnprintf+0x458>
10003b1e:	2300      	movs	r3, #0
10003b20:	7820      	ldrb	r0, [r4, #0]
10003b22:	469a      	mov	sl, r3
10003b24:	2800      	cmp	r0, #0
10003b26:	d100      	bne.n	10003b2a <_vsnprintf+0x32>
10003b28:	e21a      	b.n	10003f60 <_vsnprintf+0x468>
10003b2a:	0026      	movs	r6, r4
10003b2c:	001d      	movs	r5, r3
10003b2e:	465c      	mov	r4, fp
10003b30:	e00a      	b.n	10003b48 <_vsnprintf+0x50>
10003b32:	002a      	movs	r2, r5
10003b34:	1c6f      	adds	r7, r5, #1
10003b36:	464b      	mov	r3, r9
10003b38:	9d08      	ldr	r5, [sp, #32]
10003b3a:	0021      	movs	r1, r4
10003b3c:	47a8      	blx	r5
10003b3e:	003d      	movs	r5, r7
10003b40:	3601      	adds	r6, #1
10003b42:	7830      	ldrb	r0, [r6, #0]
10003b44:	2800      	cmp	r0, #0
10003b46:	d070      	beq.n	10003c2a <_vsnprintf+0x132>
10003b48:	2825      	cmp	r0, #37	; 0x25
10003b4a:	d1f2      	bne.n	10003b32 <_vsnprintf+0x3a>
10003b4c:	2310      	movs	r3, #16
10003b4e:	469b      	mov	fp, r3
10003b50:	3b08      	subs	r3, #8
10003b52:	469a      	mov	sl, r3
10003b54:	3b04      	subs	r3, #4
10003b56:	4698      	mov	r8, r3
10003b58:	3b02      	subs	r3, #2
10003b5a:	2100      	movs	r1, #0
10003b5c:	469c      	mov	ip, r3
10003b5e:	1c72      	adds	r2, r6, #1
10003b60:	7810      	ldrb	r0, [r2, #0]
10003b62:	0016      	movs	r6, r2
10003b64:	0003      	movs	r3, r0
10003b66:	3b20      	subs	r3, #32
10003b68:	b2db      	uxtb	r3, r3
10003b6a:	2b10      	cmp	r3, #16
10003b6c:	d803      	bhi.n	10003b76 <_vsnprintf+0x7e>
10003b6e:	4fb3      	ldr	r7, [pc, #716]	; (10003e3c <_vsnprintf+0x344>)
10003b70:	009b      	lsls	r3, r3, #2
10003b72:	58fb      	ldr	r3, [r7, r3]
10003b74:	469f      	mov	pc, r3
10003b76:	0003      	movs	r3, r0
10003b78:	3b30      	subs	r3, #48	; 0x30
10003b7a:	2b09      	cmp	r3, #9
10003b7c:	d932      	bls.n	10003be4 <_vsnprintf+0xec>
10003b7e:	2300      	movs	r3, #0
10003b80:	930a      	str	r3, [sp, #40]	; 0x28
10003b82:	282a      	cmp	r0, #42	; 0x2a
10003b84:	d068      	beq.n	10003c58 <_vsnprintf+0x160>
10003b86:	2300      	movs	r3, #0
10003b88:	4698      	mov	r8, r3
10003b8a:	282e      	cmp	r0, #46	; 0x2e
10003b8c:	d03e      	beq.n	10003c0c <_vsnprintf+0x114>
10003b8e:	0003      	movs	r3, r0
10003b90:	3b68      	subs	r3, #104	; 0x68
10003b92:	b2db      	uxtb	r3, r3
10003b94:	2b12      	cmp	r3, #18
10003b96:	d81c      	bhi.n	10003bd2 <_vsnprintf+0xda>
10003b98:	4aa9      	ldr	r2, [pc, #676]	; (10003e40 <_vsnprintf+0x348>)
10003b9a:	009b      	lsls	r3, r3, #2
10003b9c:	58d3      	ldr	r3, [r2, r3]
10003b9e:	469f      	mov	pc, r3
10003ba0:	2301      	movs	r3, #1
10003ba2:	3201      	adds	r2, #1
10003ba4:	4319      	orrs	r1, r3
10003ba6:	e7db      	b.n	10003b60 <_vsnprintf+0x68>
10003ba8:	4663      	mov	r3, ip
10003baa:	3201      	adds	r2, #1
10003bac:	4319      	orrs	r1, r3
10003bae:	e7d7      	b.n	10003b60 <_vsnprintf+0x68>
10003bb0:	4643      	mov	r3, r8
10003bb2:	3201      	adds	r2, #1
10003bb4:	4319      	orrs	r1, r3
10003bb6:	e7d3      	b.n	10003b60 <_vsnprintf+0x68>
10003bb8:	465b      	mov	r3, fp
10003bba:	3201      	adds	r2, #1
10003bbc:	4319      	orrs	r1, r3
10003bbe:	e7cf      	b.n	10003b60 <_vsnprintf+0x68>
10003bc0:	4653      	mov	r3, sl
10003bc2:	3201      	adds	r2, #1
10003bc4:	4319      	orrs	r1, r3
10003bc6:	e7cb      	b.n	10003b60 <_vsnprintf+0x68>
10003bc8:	2380      	movs	r3, #128	; 0x80
10003bca:	005b      	lsls	r3, r3, #1
10003bcc:	7870      	ldrb	r0, [r6, #1]
10003bce:	4319      	orrs	r1, r3
10003bd0:	3601      	adds	r6, #1
10003bd2:	0003      	movs	r3, r0
10003bd4:	3b25      	subs	r3, #37	; 0x25
10003bd6:	b2db      	uxtb	r3, r3
10003bd8:	2b53      	cmp	r3, #83	; 0x53
10003bda:	d8aa      	bhi.n	10003b32 <_vsnprintf+0x3a>
10003bdc:	4a99      	ldr	r2, [pc, #612]	; (10003e44 <_vsnprintf+0x34c>)
10003bde:	009b      	lsls	r3, r3, #2
10003be0:	58d3      	ldr	r3, [r2, r3]
10003be2:	469f      	mov	pc, r3
10003be4:	2700      	movs	r7, #0
10003be6:	0003      	movs	r3, r0
10003be8:	00b8      	lsls	r0, r7, #2
10003bea:	19c0      	adds	r0, r0, r7
10003bec:	3601      	adds	r6, #1
10003bee:	0040      	lsls	r0, r0, #1
10003bf0:	18c0      	adds	r0, r0, r3
10003bf2:	7833      	ldrb	r3, [r6, #0]
10003bf4:	3830      	subs	r0, #48	; 0x30
10003bf6:	001a      	movs	r2, r3
10003bf8:	3a30      	subs	r2, #48	; 0x30
10003bfa:	0007      	movs	r7, r0
10003bfc:	2a09      	cmp	r2, #9
10003bfe:	d9f3      	bls.n	10003be8 <_vsnprintf+0xf0>
10003c00:	900a      	str	r0, [sp, #40]	; 0x28
10003c02:	0018      	movs	r0, r3
10003c04:	2300      	movs	r3, #0
10003c06:	4698      	mov	r8, r3
10003c08:	282e      	cmp	r0, #46	; 0x2e
10003c0a:	d1c0      	bne.n	10003b8e <_vsnprintf+0x96>
10003c0c:	2380      	movs	r3, #128	; 0x80
10003c0e:	7870      	ldrb	r0, [r6, #1]
10003c10:	00db      	lsls	r3, r3, #3
10003c12:	4319      	orrs	r1, r3
10003c14:	0003      	movs	r3, r0
10003c16:	3b30      	subs	r3, #48	; 0x30
10003c18:	1c72      	adds	r2, r6, #1
10003c1a:	2b09      	cmp	r3, #9
10003c1c:	d800      	bhi.n	10003c20 <_vsnprintf+0x128>
10003c1e:	e1a1      	b.n	10003f64 <_vsnprintf+0x46c>
10003c20:	282a      	cmp	r0, #42	; 0x2a
10003c22:	d100      	bne.n	10003c26 <_vsnprintf+0x12e>
10003c24:	e1b2      	b.n	10003f8c <_vsnprintf+0x494>
10003c26:	0016      	movs	r6, r2
10003c28:	e7b1      	b.n	10003b8e <_vsnprintf+0x96>
10003c2a:	46a3      	mov	fp, r4
10003c2c:	46aa      	mov	sl, r5
10003c2e:	002c      	movs	r4, r5
10003c30:	45d1      	cmp	r9, sl
10003c32:	d803      	bhi.n	10003c3c <_vsnprintf+0x144>
10003c34:	2301      	movs	r3, #1
10003c36:	425b      	negs	r3, r3
10003c38:	444b      	add	r3, r9
10003c3a:	469a      	mov	sl, r3
10003c3c:	464b      	mov	r3, r9
10003c3e:	4652      	mov	r2, sl
10003c40:	4659      	mov	r1, fp
10003c42:	2000      	movs	r0, #0
10003c44:	9d08      	ldr	r5, [sp, #32]
10003c46:	47a8      	blx	r5
10003c48:	0020      	movs	r0, r4
10003c4a:	b01f      	add	sp, #124	; 0x7c
10003c4c:	bcf0      	pop	{r4, r5, r6, r7}
10003c4e:	46bb      	mov	fp, r7
10003c50:	46b2      	mov	sl, r6
10003c52:	46a9      	mov	r9, r5
10003c54:	46a0      	mov	r8, r4
10003c56:	bdf0      	pop	{r4, r5, r6, r7, pc}
10003c58:	9b09      	ldr	r3, [sp, #36]	; 0x24
10003c5a:	cb40      	ldmia	r3!, {r6}
10003c5c:	960a      	str	r6, [sp, #40]	; 0x28
10003c5e:	2e00      	cmp	r6, #0
10003c60:	db03      	blt.n	10003c6a <_vsnprintf+0x172>
10003c62:	7850      	ldrb	r0, [r2, #1]
10003c64:	9309      	str	r3, [sp, #36]	; 0x24
10003c66:	1c56      	adds	r6, r2, #1
10003c68:	e78d      	b.n	10003b86 <_vsnprintf+0x8e>
10003c6a:	3828      	subs	r0, #40	; 0x28
10003c6c:	4301      	orrs	r1, r0
10003c6e:	4270      	negs	r0, r6
10003c70:	900a      	str	r0, [sp, #40]	; 0x28
10003c72:	9309      	str	r3, [sp, #36]	; 0x24
10003c74:	7850      	ldrb	r0, [r2, #1]
10003c76:	1c56      	adds	r6, r2, #1
10003c78:	e785      	b.n	10003b86 <_vsnprintf+0x8e>
10003c7a:	2878      	cmp	r0, #120	; 0x78
10003c7c:	d100      	bne.n	10003c80 <_vsnprintf+0x188>
10003c7e:	e1df      	b.n	10004040 <_vsnprintf+0x548>
10003c80:	2858      	cmp	r0, #88	; 0x58
10003c82:	d100      	bne.n	10003c86 <_vsnprintf+0x18e>
10003c84:	e24c      	b.n	10004120 <_vsnprintf+0x628>
10003c86:	286f      	cmp	r0, #111	; 0x6f
10003c88:	d100      	bne.n	10003c8c <_vsnprintf+0x194>
10003c8a:	e34f      	b.n	1000432c <_vsnprintf+0x834>
10003c8c:	2862      	cmp	r0, #98	; 0x62
10003c8e:	d101      	bne.n	10003c94 <_vsnprintf+0x19c>
10003c90:	f000 fc30 	bl	100044f4 <_vsnprintf+0x9fc>
10003c94:	2310      	movs	r3, #16
10003c96:	000a      	movs	r2, r1
10003c98:	439a      	bics	r2, r3
10003c9a:	920b      	str	r2, [sp, #44]	; 0x2c
10003c9c:	2869      	cmp	r0, #105	; 0x69
10003c9e:	d001      	beq.n	10003ca4 <_vsnprintf+0x1ac>
10003ca0:	f000 fca9 	bl	100045f6 <_vsnprintf+0xafe>
10003ca4:	230a      	movs	r3, #10
10003ca6:	930c      	str	r3, [sp, #48]	; 0x30
10003ca8:	054b      	lsls	r3, r1, #21
10003caa:	d500      	bpl.n	10003cae <_vsnprintf+0x1b6>
10003cac:	e1d0      	b.n	10004050 <_vsnprintf+0x558>
10003cae:	9a0b      	ldr	r2, [sp, #44]	; 0x2c
10003cb0:	2380      	movs	r3, #128	; 0x80
10003cb2:	0011      	movs	r1, r2
10003cb4:	009b      	lsls	r3, r3, #2
10003cb6:	4019      	ands	r1, r3
10003cb8:	468b      	mov	fp, r1
10003cba:	421a      	tst	r2, r3
10003cbc:	d000      	beq.n	10003cc0 <_vsnprintf+0x1c8>
10003cbe:	e2a1      	b.n	10004204 <_vsnprintf+0x70c>
10003cc0:	2380      	movs	r3, #128	; 0x80
10003cc2:	0011      	movs	r1, r2
10003cc4:	005b      	lsls	r3, r3, #1
10003cc6:	4019      	ands	r1, r3
10003cc8:	468a      	mov	sl, r1
10003cca:	421a      	tst	r2, r3
10003ccc:	d000      	beq.n	10003cd0 <_vsnprintf+0x1d8>
10003cce:	e3b6      	b.n	1000443e <_vsnprintf+0x946>
10003cd0:	0013      	movs	r3, r2
10003cd2:	065b      	lsls	r3, r3, #25
10003cd4:	d500      	bpl.n	10003cd8 <_vsnprintf+0x1e0>
10003cd6:	e2ed      	b.n	100042b4 <_vsnprintf+0x7bc>
10003cd8:	0013      	movs	r3, r2
10003cda:	9909      	ldr	r1, [sp, #36]	; 0x24
10003cdc:	061b      	lsls	r3, r3, #24
10003cde:	d401      	bmi.n	10003ce4 <_vsnprintf+0x1ec>
10003ce0:	f000 fc76 	bl	100045d0 <_vsnprintf+0xad8>
10003ce4:	c908      	ldmia	r1!, {r3}
10003ce6:	b21b      	sxth	r3, r3
10003ce8:	17d8      	asrs	r0, r3, #31
10003cea:	181a      	adds	r2, r3, r0
10003cec:	4042      	eors	r2, r0
10003cee:	b292      	uxth	r2, r2
10003cf0:	9109      	str	r1, [sp, #36]	; 0x24
10003cf2:	4693      	mov	fp, r2
10003cf4:	0fda      	lsrs	r2, r3, #31
10003cf6:	9212      	str	r2, [sp, #72]	; 0x48
10003cf8:	2b00      	cmp	r3, #0
10003cfa:	d109      	bne.n	10003d10 <_vsnprintf+0x218>
10003cfc:	2380      	movs	r3, #128	; 0x80
10003cfe:	2210      	movs	r2, #16
10003d00:	990b      	ldr	r1, [sp, #44]	; 0x2c
10003d02:	00db      	lsls	r3, r3, #3
10003d04:	400b      	ands	r3, r1
10003d06:	4391      	bics	r1, r2
10003d08:	910b      	str	r1, [sp, #44]	; 0x2c
10003d0a:	2b00      	cmp	r3, #0
10003d0c:	d000      	beq.n	10003d10 <_vsnprintf+0x218>
10003d0e:	e2e4      	b.n	100042da <_vsnprintf+0x7e2>
10003d10:	9a0b      	ldr	r2, [sp, #44]	; 0x2c
10003d12:	2361      	movs	r3, #97	; 0x61
10003d14:	0692      	lsls	r2, r2, #26
10003d16:	d500      	bpl.n	10003d1a <_vsnprintf+0x222>
10003d18:	2341      	movs	r3, #65	; 0x41
10003d1a:	a90e      	add	r1, sp, #56	; 0x38
10003d1c:	221f      	movs	r2, #31
10003d1e:	468c      	mov	ip, r1
10003d20:	b2db      	uxtb	r3, r3
10003d22:	4462      	add	r2, ip
10003d24:	3b0a      	subs	r3, #10
10003d26:	465f      	mov	r7, fp
10003d28:	9513      	str	r5, [sp, #76]	; 0x4c
10003d2a:	46a3      	mov	fp, r4
10003d2c:	4655      	mov	r5, sl
10003d2e:	9c0c      	ldr	r4, [sp, #48]	; 0x30
10003d30:	46b2      	mov	sl, r6
10003d32:	930d      	str	r3, [sp, #52]	; 0x34
10003d34:	0016      	movs	r6, r2
10003d36:	e00a      	b.n	10003d4e <_vsnprintf+0x256>
10003d38:	3330      	adds	r3, #48	; 0x30
10003d3a:	b2db      	uxtb	r3, r3
10003d3c:	3501      	adds	r5, #1
10003d3e:	5573      	strb	r3, [r6, r5]
10003d40:	42a7      	cmp	r7, r4
10003d42:	d200      	bcs.n	10003d46 <_vsnprintf+0x24e>
10003d44:	e2ed      	b.n	10004322 <_vsnprintf+0x82a>
10003d46:	2d20      	cmp	r5, #32
10003d48:	d100      	bne.n	10003d4c <_vsnprintf+0x254>
10003d4a:	e2ea      	b.n	10004322 <_vsnprintf+0x82a>
10003d4c:	0007      	movs	r7, r0
10003d4e:	0021      	movs	r1, r4
10003d50:	0038      	movs	r0, r7
10003d52:	f7fe fa63 	bl	1000221c <__wrap___aeabi_uidiv>
10003d56:	b2cb      	uxtb	r3, r1
10003d58:	2909      	cmp	r1, #9
10003d5a:	d9ed      	bls.n	10003d38 <_vsnprintf+0x240>
10003d5c:	9a0d      	ldr	r2, [sp, #52]	; 0x34
10003d5e:	4694      	mov	ip, r2
10003d60:	4463      	add	r3, ip
10003d62:	b2db      	uxtb	r3, r3
10003d64:	e7ea      	b.n	10003d3c <_vsnprintf+0x244>
10003d66:	2380      	movs	r3, #128	; 0x80
10003d68:	009b      	lsls	r3, r3, #2
10003d6a:	7870      	ldrb	r0, [r6, #1]
10003d6c:	4319      	orrs	r1, r3
10003d6e:	3601      	adds	r6, #1
10003d70:	e72f      	b.n	10003bd2 <_vsnprintf+0xda>
10003d72:	7870      	ldrb	r0, [r6, #1]
10003d74:	2868      	cmp	r0, #104	; 0x68
10003d76:	d100      	bne.n	10003d7a <_vsnprintf+0x282>
10003d78:	e1cd      	b.n	10004116 <_vsnprintf+0x61e>
10003d7a:	2380      	movs	r3, #128	; 0x80
10003d7c:	3601      	adds	r6, #1
10003d7e:	4319      	orrs	r1, r3
10003d80:	e727      	b.n	10003bd2 <_vsnprintf+0xda>
10003d82:	7870      	ldrb	r0, [r6, #1]
10003d84:	286c      	cmp	r0, #108	; 0x6c
10003d86:	d100      	bne.n	10003d8a <_vsnprintf+0x292>
10003d88:	e1bf      	b.n	1000410a <_vsnprintf+0x612>
10003d8a:	2380      	movs	r3, #128	; 0x80
10003d8c:	005b      	lsls	r3, r3, #1
10003d8e:	4319      	orrs	r1, r3
10003d90:	3601      	adds	r6, #1
10003d92:	e71e      	b.n	10003bd2 <_vsnprintf+0xda>
10003d94:	2846      	cmp	r0, #70	; 0x46
10003d96:	d100      	bne.n	10003d9a <_vsnprintf+0x2a2>
10003d98:	e19b      	b.n	100040d2 <_vsnprintf+0x5da>
10003d9a:	2207      	movs	r2, #7
10003d9c:	9b09      	ldr	r3, [sp, #36]	; 0x24
10003d9e:	9104      	str	r1, [sp, #16]
10003da0:	3307      	adds	r3, #7
10003da2:	4393      	bics	r3, r2
10003da4:	9a0a      	ldr	r2, [sp, #40]	; 0x28
10003da6:	0019      	movs	r1, r3
10003da8:	9203      	str	r2, [sp, #12]
10003daa:	4642      	mov	r2, r8
10003dac:	9202      	str	r2, [sp, #8]
10003dae:	c90c      	ldmia	r1!, {r2, r3}
10003db0:	9808      	ldr	r0, [sp, #32]
10003db2:	9200      	str	r2, [sp, #0]
10003db4:	9301      	str	r3, [sp, #4]
10003db6:	9109      	str	r1, [sp, #36]	; 0x24
10003db8:	002a      	movs	r2, r5
10003dba:	464b      	mov	r3, r9
10003dbc:	0021      	movs	r1, r4
10003dbe:	f7ff fccf 	bl	10003760 <_ftoa>
10003dc2:	3601      	adds	r6, #1
10003dc4:	0005      	movs	r5, r0
10003dc6:	e6bc      	b.n	10003b42 <_vsnprintf+0x4a>
10003dc8:	002a      	movs	r2, r5
10003dca:	1c6f      	adds	r7, r5, #1
10003dcc:	464b      	mov	r3, r9
10003dce:	9d08      	ldr	r5, [sp, #32]
10003dd0:	0021      	movs	r1, r4
10003dd2:	2025      	movs	r0, #37	; 0x25
10003dd4:	47a8      	blx	r5
10003dd6:	3601      	adds	r6, #1
10003dd8:	003d      	movs	r5, r7
10003dda:	e6b2      	b.n	10003b42 <_vsnprintf+0x4a>
10003ddc:	078b      	lsls	r3, r1, #30
10003dde:	d400      	bmi.n	10003de2 <_vsnprintf+0x2ea>
10003de0:	e1ad      	b.n	1000413e <_vsnprintf+0x646>
10003de2:	9b09      	ldr	r3, [sp, #36]	; 0x24
10003de4:	002a      	movs	r2, r5
10003de6:	469a      	mov	sl, r3
10003de8:	1c6b      	adds	r3, r5, #1
10003dea:	4698      	mov	r8, r3
10003dec:	4653      	mov	r3, sl
10003dee:	cb01      	ldmia	r3!, {r0}
10003df0:	0021      	movs	r1, r4
10003df2:	469a      	mov	sl, r3
10003df4:	9f08      	ldr	r7, [sp, #32]
10003df6:	464b      	mov	r3, r9
10003df8:	b2c0      	uxtb	r0, r0
10003dfa:	47b8      	blx	r7
10003dfc:	9b0a      	ldr	r3, [sp, #40]	; 0x28
10003dfe:	469c      	mov	ip, r3
10003e00:	4465      	add	r5, ip
10003e02:	2b01      	cmp	r3, #1
10003e04:	d800      	bhi.n	10003e08 <_vsnprintf+0x310>
10003e06:	e286      	b.n	10004316 <_vsnprintf+0x81e>
10003e08:	9b08      	ldr	r3, [sp, #32]
10003e0a:	4647      	mov	r7, r8
10003e0c:	46b0      	mov	r8, r6
10003e0e:	0026      	movs	r6, r4
10003e10:	464c      	mov	r4, r9
10003e12:	4699      	mov	r9, r3
10003e14:	003a      	movs	r2, r7
10003e16:	0023      	movs	r3, r4
10003e18:	3701      	adds	r7, #1
10003e1a:	0031      	movs	r1, r6
10003e1c:	2020      	movs	r0, #32
10003e1e:	47c8      	blx	r9
10003e20:	42af      	cmp	r7, r5
10003e22:	d1f7      	bne.n	10003e14 <_vsnprintf+0x31c>
10003e24:	46a1      	mov	r9, r4
10003e26:	4653      	mov	r3, sl
10003e28:	0034      	movs	r4, r6
10003e2a:	4646      	mov	r6, r8
10003e2c:	9309      	str	r3, [sp, #36]	; 0x24
10003e2e:	3601      	adds	r6, #1
10003e30:	e687      	b.n	10003b42 <_vsnprintf+0x4a>
10003e32:	46c0      	nop			; (mov r8, r8)
10003e34:	10003af9 	.word	0x10003af9
10003e38:	20001164 	.word	0x20001164
10003e3c:	100064b8 	.word	0x100064b8
10003e40:	100064fc 	.word	0x100064fc
10003e44:	10006548 	.word	0x10006548
10003e48:	9b09      	ldr	r3, [sp, #36]	; 0x24
10003e4a:	cb04      	ldmia	r3!, {r2}
10003e4c:	469b      	mov	fp, r3
10003e4e:	4643      	mov	r3, r8
10003e50:	9209      	str	r2, [sp, #36]	; 0x24
10003e52:	2b00      	cmp	r3, #0
10003e54:	d100      	bne.n	10003e58 <_vsnprintf+0x360>
10003e56:	e0c6      	b.n	10003fe6 <_vsnprintf+0x4ee>
10003e58:	7813      	ldrb	r3, [r2, #0]
10003e5a:	469c      	mov	ip, r3
10003e5c:	2b00      	cmp	r3, #0
10003e5e:	d100      	bne.n	10003e62 <_vsnprintf+0x36a>
10003e60:	e3bd      	b.n	100045de <_vsnprintf+0xae6>
10003e62:	4643      	mov	r3, r8
10003e64:	3b01      	subs	r3, #1
10003e66:	9a09      	ldr	r2, [sp, #36]	; 0x24
10003e68:	3301      	adds	r3, #1
10003e6a:	18d0      	adds	r0, r2, r3
10003e6c:	9f0a      	ldr	r7, [sp, #40]	; 0x28
10003e6e:	0013      	movs	r3, r2
10003e70:	e001      	b.n	10003e76 <_vsnprintf+0x37e>
10003e72:	4283      	cmp	r3, r0
10003e74:	d003      	beq.n	10003e7e <_vsnprintf+0x386>
10003e76:	785a      	ldrb	r2, [r3, #1]
10003e78:	3301      	adds	r3, #1
10003e7a:	2a00      	cmp	r2, #0
10003e7c:	d1f9      	bne.n	10003e72 <_vsnprintf+0x37a>
10003e7e:	9a09      	ldr	r2, [sp, #36]	; 0x24
10003e80:	970a      	str	r7, [sp, #40]	; 0x28
10003e82:	1a9b      	subs	r3, r3, r2
10003e84:	930b      	str	r3, [sp, #44]	; 0x2c
10003e86:	2380      	movs	r3, #128	; 0x80
10003e88:	000a      	movs	r2, r1
10003e8a:	00db      	lsls	r3, r3, #3
10003e8c:	401a      	ands	r2, r3
10003e8e:	920c      	str	r2, [sp, #48]	; 0x30
10003e90:	4219      	tst	r1, r3
10003e92:	d004      	beq.n	10003e9e <_vsnprintf+0x3a6>
10003e94:	9b0b      	ldr	r3, [sp, #44]	; 0x2c
10003e96:	4543      	cmp	r3, r8
10003e98:	d901      	bls.n	10003e9e <_vsnprintf+0x3a6>
10003e9a:	4643      	mov	r3, r8
10003e9c:	930b      	str	r3, [sp, #44]	; 0x2c
10003e9e:	2302      	movs	r3, #2
10003ea0:	001a      	movs	r2, r3
10003ea2:	400a      	ands	r2, r1
10003ea4:	920d      	str	r2, [sp, #52]	; 0x34
10003ea6:	420b      	tst	r3, r1
10003ea8:	d100      	bne.n	10003eac <_vsnprintf+0x3b4>
10003eaa:	e187      	b.n	100041bc <_vsnprintf+0x6c4>
10003eac:	4660      	mov	r0, ip
10003eae:	2800      	cmp	r0, #0
10003eb0:	d100      	bne.n	10003eb4 <_vsnprintf+0x3bc>
10003eb2:	e168      	b.n	10004186 <_vsnprintf+0x68e>
10003eb4:	9b0c      	ldr	r3, [sp, #48]	; 0x30
10003eb6:	2b00      	cmp	r3, #0
10003eb8:	d100      	bne.n	10003ebc <_vsnprintf+0x3c4>
10003eba:	e10d      	b.n	100040d8 <_vsnprintf+0x5e0>
10003ebc:	44a8      	add	r8, r5
10003ebe:	46c2      	mov	sl, r8
10003ec0:	9b09      	ldr	r3, [sp, #36]	; 0x24
10003ec2:	4657      	mov	r7, sl
10003ec4:	1b5b      	subs	r3, r3, r5
10003ec6:	4698      	mov	r8, r3
10003ec8:	9b08      	ldr	r3, [sp, #32]
10003eca:	46b2      	mov	sl, r6
10003ecc:	002a      	movs	r2, r5
10003ece:	0026      	movs	r6, r4
10003ed0:	464c      	mov	r4, r9
10003ed2:	4699      	mov	r9, r3
10003ed4:	e009      	b.n	10003eea <_vsnprintf+0x3f2>
10003ed6:	0023      	movs	r3, r4
10003ed8:	0031      	movs	r1, r6
10003eda:	1c55      	adds	r5, r2, #1
10003edc:	47c8      	blx	r9
10003ede:	4643      	mov	r3, r8
10003ee0:	5d58      	ldrb	r0, [r3, r5]
10003ee2:	2800      	cmp	r0, #0
10003ee4:	d100      	bne.n	10003ee8 <_vsnprintf+0x3f0>
10003ee6:	e126      	b.n	10004136 <_vsnprintf+0x63e>
10003ee8:	002a      	movs	r2, r5
10003eea:	4297      	cmp	r7, r2
10003eec:	d1f3      	bne.n	10003ed6 <_vsnprintf+0x3de>
10003eee:	46a1      	mov	r9, r4
10003ef0:	003d      	movs	r5, r7
10003ef2:	0034      	movs	r4, r6
10003ef4:	4656      	mov	r6, sl
10003ef6:	9b0d      	ldr	r3, [sp, #52]	; 0x34
10003ef8:	2b00      	cmp	r3, #0
10003efa:	d000      	beq.n	10003efe <_vsnprintf+0x406>
10003efc:	e143      	b.n	10004186 <_vsnprintf+0x68e>
10003efe:	465b      	mov	r3, fp
10003f00:	3601      	adds	r6, #1
10003f02:	9309      	str	r3, [sp, #36]	; 0x24
10003f04:	e61d      	b.n	10003b42 <_vsnprintf+0x4a>
10003f06:	9b09      	ldr	r3, [sp, #36]	; 0x24
10003f08:	001a      	movs	r2, r3
10003f0a:	ca08      	ldmia	r2!, {r3}
10003f0c:	4692      	mov	sl, r2
10003f0e:	2b00      	cmp	r3, #0
10003f10:	d048      	beq.n	10003fa4 <_vsnprintf+0x4ac>
10003f12:	2221      	movs	r2, #33	; 0x21
10003f14:	4311      	orrs	r1, r2
10003f16:	468b      	mov	fp, r1
10003f18:	a80e      	add	r0, sp, #56	; 0x38
10003f1a:	4684      	mov	ip, r0
10003f1c:	211f      	movs	r1, #31
10003f1e:	4461      	add	r1, ip
10003f20:	9509      	str	r5, [sp, #36]	; 0x24
10003f22:	2200      	movs	r2, #0
10003f24:	270f      	movs	r7, #15
10003f26:	46a4      	mov	ip, r4
10003f28:	000d      	movs	r5, r1
10003f2a:	e002      	b.n	10003f32 <_vsnprintf+0x43a>
10003f2c:	2a20      	cmp	r2, #32
10003f2e:	d00c      	beq.n	10003f4a <_vsnprintf+0x452>
10003f30:	000b      	movs	r3, r1
10003f32:	003c      	movs	r4, r7
10003f34:	401c      	ands	r4, r3
10003f36:	0020      	movs	r0, r4
10003f38:	3037      	adds	r0, #55	; 0x37
10003f3a:	2c09      	cmp	r4, #9
10003f3c:	d800      	bhi.n	10003f40 <_vsnprintf+0x448>
10003f3e:	3807      	subs	r0, #7
10003f40:	3201      	adds	r2, #1
10003f42:	54a8      	strb	r0, [r5, r2]
10003f44:	0919      	lsrs	r1, r3, #4
10003f46:	2b0f      	cmp	r3, #15
10003f48:	d8f0      	bhi.n	10003f2c <_vsnprintf+0x434>
10003f4a:	4664      	mov	r4, ip
10003f4c:	9d09      	ldr	r5, [sp, #36]	; 0x24
10003f4e:	e032      	b.n	10003fb6 <_vsnprintf+0x4be>
10003f50:	4bdc      	ldr	r3, [pc, #880]	; (100042c4 <_vsnprintf+0x7cc>)
10003f52:	7820      	ldrb	r0, [r4, #0]
10003f54:	9308      	str	r3, [sp, #32]
10003f56:	2300      	movs	r3, #0
10003f58:	469a      	mov	sl, r3
10003f5a:	2800      	cmp	r0, #0
10003f5c:	d000      	beq.n	10003f60 <_vsnprintf+0x468>
10003f5e:	e5e4      	b.n	10003b2a <_vsnprintf+0x32>
10003f60:	2400      	movs	r4, #0
10003f62:	e665      	b.n	10003c30 <_vsnprintf+0x138>
10003f64:	4643      	mov	r3, r8
10003f66:	0006      	movs	r6, r0
10003f68:	9f0a      	ldr	r7, [sp, #40]	; 0x28
10003f6a:	0098      	lsls	r0, r3, #2
10003f6c:	18c0      	adds	r0, r0, r3
10003f6e:	3201      	adds	r2, #1
10003f70:	0040      	lsls	r0, r0, #1
10003f72:	1980      	adds	r0, r0, r6
10003f74:	7816      	ldrb	r6, [r2, #0]
10003f76:	0003      	movs	r3, r0
10003f78:	0030      	movs	r0, r6
10003f7a:	3830      	subs	r0, #48	; 0x30
10003f7c:	3b30      	subs	r3, #48	; 0x30
10003f7e:	2809      	cmp	r0, #9
10003f80:	d9f3      	bls.n	10003f6a <_vsnprintf+0x472>
10003f82:	0030      	movs	r0, r6
10003f84:	4698      	mov	r8, r3
10003f86:	0016      	movs	r6, r2
10003f88:	970a      	str	r7, [sp, #40]	; 0x28
10003f8a:	e600      	b.n	10003b8e <_vsnprintf+0x96>
10003f8c:	9b09      	ldr	r3, [sp, #36]	; 0x24
10003f8e:	3602      	adds	r6, #2
10003f90:	cb04      	ldmia	r3!, {r2}
10003f92:	4690      	mov	r8, r2
10003f94:	43d2      	mvns	r2, r2
10003f96:	4640      	mov	r0, r8
10003f98:	17d2      	asrs	r2, r2, #31
10003f9a:	4010      	ands	r0, r2
10003f9c:	4680      	mov	r8, r0
10003f9e:	9309      	str	r3, [sp, #36]	; 0x24
10003fa0:	7830      	ldrb	r0, [r6, #0]
10003fa2:	e5f4      	b.n	10003b8e <_vsnprintf+0x96>
10003fa4:	2210      	movs	r2, #16
10003fa6:	0008      	movs	r0, r1
10003fa8:	4390      	bics	r0, r2
10003faa:	3211      	adds	r2, #17
10003fac:	4310      	orrs	r0, r2
10003fae:	4683      	mov	fp, r0
10003fb0:	2200      	movs	r2, #0
10003fb2:	0549      	lsls	r1, r1, #21
10003fb4:	d5b0      	bpl.n	10003f18 <_vsnprintf+0x420>
10003fb6:	465b      	mov	r3, fp
10003fb8:	9306      	str	r3, [sp, #24]
10003fba:	2308      	movs	r3, #8
10003fbc:	9305      	str	r3, [sp, #20]
10003fbe:	4643      	mov	r3, r8
10003fc0:	9304      	str	r3, [sp, #16]
10003fc2:	2310      	movs	r3, #16
10003fc4:	9303      	str	r3, [sp, #12]
10003fc6:	2300      	movs	r3, #0
10003fc8:	9302      	str	r3, [sp, #8]
10003fca:	ab16      	add	r3, sp, #88	; 0x58
10003fcc:	9201      	str	r2, [sp, #4]
10003fce:	9300      	str	r3, [sp, #0]
10003fd0:	002a      	movs	r2, r5
10003fd2:	464b      	mov	r3, r9
10003fd4:	0021      	movs	r1, r4
10003fd6:	9808      	ldr	r0, [sp, #32]
10003fd8:	f7ff f8ae 	bl	10003138 <_ntoa_format>
10003fdc:	4653      	mov	r3, sl
10003fde:	0005      	movs	r5, r0
10003fe0:	3601      	adds	r6, #1
10003fe2:	9309      	str	r3, [sp, #36]	; 0x24
10003fe4:	e5ad      	b.n	10003b42 <_vsnprintf+0x4a>
10003fe6:	7813      	ldrb	r3, [r2, #0]
10003fe8:	469c      	mov	ip, r3
10003fea:	2b00      	cmp	r3, #0
10003fec:	d100      	bne.n	10003ff0 <_vsnprintf+0x4f8>
10003fee:	e2f7      	b.n	100045e0 <_vsnprintf+0xae8>
10003ff0:	2302      	movs	r3, #2
10003ff2:	425b      	negs	r3, r3
10003ff4:	e737      	b.n	10003e66 <_vsnprintf+0x36e>
10003ff6:	2320      	movs	r3, #32
10003ff8:	0002      	movs	r2, r0
10003ffa:	439a      	bics	r2, r3
10003ffc:	2a47      	cmp	r2, #71	; 0x47
10003ffe:	d104      	bne.n	1000400a <_vsnprintf+0x512>
10004000:	2380      	movs	r3, #128	; 0x80
10004002:	011b      	lsls	r3, r3, #4
10004004:	4319      	orrs	r1, r3
10004006:	2302      	movs	r3, #2
10004008:	4398      	bics	r0, r3
1000400a:	2845      	cmp	r0, #69	; 0x45
1000400c:	d101      	bne.n	10004012 <_vsnprintf+0x51a>
1000400e:	2320      	movs	r3, #32
10004010:	4319      	orrs	r1, r3
10004012:	2207      	movs	r2, #7
10004014:	9b09      	ldr	r3, [sp, #36]	; 0x24
10004016:	9104      	str	r1, [sp, #16]
10004018:	3307      	adds	r3, #7
1000401a:	4393      	bics	r3, r2
1000401c:	9a0a      	ldr	r2, [sp, #40]	; 0x28
1000401e:	0019      	movs	r1, r3
10004020:	9203      	str	r2, [sp, #12]
10004022:	4642      	mov	r2, r8
10004024:	9202      	str	r2, [sp, #8]
10004026:	c90c      	ldmia	r1!, {r2, r3}
10004028:	9808      	ldr	r0, [sp, #32]
1000402a:	9200      	str	r2, [sp, #0]
1000402c:	9301      	str	r3, [sp, #4]
1000402e:	9109      	str	r1, [sp, #36]	; 0x24
10004030:	002a      	movs	r2, r5
10004032:	464b      	mov	r3, r9
10004034:	0021      	movs	r1, r4
10004036:	f7ff f96d 	bl	10003314 <_etoa>
1000403a:	3601      	adds	r6, #1
1000403c:	0005      	movs	r5, r0
1000403e:	e580      	b.n	10003b42 <_vsnprintf+0x4a>
10004040:	2310      	movs	r3, #16
10004042:	930c      	str	r3, [sp, #48]	; 0x30
10004044:	230c      	movs	r3, #12
10004046:	000a      	movs	r2, r1
10004048:	439a      	bics	r2, r3
1000404a:	920b      	str	r2, [sp, #44]	; 0x2c
1000404c:	054b      	lsls	r3, r1, #21
1000404e:	d503      	bpl.n	10004058 <_vsnprintf+0x560>
10004050:	2301      	movs	r3, #1
10004052:	9a0b      	ldr	r2, [sp, #44]	; 0x2c
10004054:	439a      	bics	r2, r3
10004056:	920b      	str	r2, [sp, #44]	; 0x2c
10004058:	2869      	cmp	r0, #105	; 0x69
1000405a:	d100      	bne.n	1000405e <_vsnprintf+0x566>
1000405c:	e627      	b.n	10003cae <_vsnprintf+0x1b6>
1000405e:	2864      	cmp	r0, #100	; 0x64
10004060:	d100      	bne.n	10004064 <_vsnprintf+0x56c>
10004062:	e624      	b.n	10003cae <_vsnprintf+0x1b6>
10004064:	9a0b      	ldr	r2, [sp, #44]	; 0x2c
10004066:	2380      	movs	r3, #128	; 0x80
10004068:	0011      	movs	r1, r2
1000406a:	009b      	lsls	r3, r3, #2
1000406c:	4019      	ands	r1, r3
1000406e:	468b      	mov	fp, r1
10004070:	421a      	tst	r2, r3
10004072:	d000      	beq.n	10004076 <_vsnprintf+0x57e>
10004074:	e166      	b.n	10004344 <_vsnprintf+0x84c>
10004076:	2380      	movs	r3, #128	; 0x80
10004078:	0011      	movs	r1, r2
1000407a:	005b      	lsls	r3, r3, #1
1000407c:	4019      	ands	r1, r3
1000407e:	468a      	mov	sl, r1
10004080:	421a      	tst	r2, r3
10004082:	d000      	beq.n	10004086 <_vsnprintf+0x58e>
10004084:	e239      	b.n	100044fa <_vsnprintf+0xa02>
10004086:	0013      	movs	r3, r2
10004088:	065b      	lsls	r3, r3, #25
1000408a:	d500      	bpl.n	1000408e <_vsnprintf+0x596>
1000408c:	e13c      	b.n	10004308 <_vsnprintf+0x810>
1000408e:	0013      	movs	r3, r2
10004090:	061b      	lsls	r3, r3, #24
10004092:	d400      	bmi.n	10004096 <_vsnprintf+0x59e>
10004094:	e2a6      	b.n	100045e4 <_vsnprintf+0xaec>
10004096:	9b09      	ldr	r3, [sp, #36]	; 0x24
10004098:	cb04      	ldmia	r3!, {r2}
1000409a:	0412      	lsls	r2, r2, #16
1000409c:	0c12      	lsrs	r2, r2, #16
1000409e:	4693      	mov	fp, r2
100040a0:	9309      	str	r3, [sp, #36]	; 0x24
100040a2:	465b      	mov	r3, fp
100040a4:	2b00      	cmp	r3, #0
100040a6:	d000      	beq.n	100040aa <_vsnprintf+0x5b2>
100040a8:	e19a      	b.n	100043e0 <_vsnprintf+0x8e8>
100040aa:	9a0b      	ldr	r2, [sp, #44]	; 0x2c
100040ac:	3310      	adds	r3, #16
100040ae:	0011      	movs	r1, r2
100040b0:	4399      	bics	r1, r3
100040b2:	910b      	str	r1, [sp, #44]	; 0x2c
100040b4:	0552      	lsls	r2, r2, #21
100040b6:	d400      	bmi.n	100040ba <_vsnprintf+0x5c2>
100040b8:	e192      	b.n	100043e0 <_vsnprintf+0x8e8>
100040ba:	2300      	movs	r3, #0
100040bc:	469a      	mov	sl, r3
100040be:	9b0b      	ldr	r3, [sp, #44]	; 0x2c
100040c0:	9306      	str	r3, [sp, #24]
100040c2:	9b0a      	ldr	r3, [sp, #40]	; 0x28
100040c4:	9305      	str	r3, [sp, #20]
100040c6:	4643      	mov	r3, r8
100040c8:	9304      	str	r3, [sp, #16]
100040ca:	9b0c      	ldr	r3, [sp, #48]	; 0x30
100040cc:	9303      	str	r3, [sp, #12]
100040ce:	2300      	movs	r3, #0
100040d0:	e10c      	b.n	100042ec <_vsnprintf+0x7f4>
100040d2:	2320      	movs	r3, #32
100040d4:	4319      	orrs	r1, r3
100040d6:	e660      	b.n	10003d9a <_vsnprintf+0x2a2>
100040d8:	9b09      	ldr	r3, [sp, #36]	; 0x24
100040da:	9a0a      	ldr	r2, [sp, #40]	; 0x28
100040dc:	1b5b      	subs	r3, r3, r5
100040de:	4698      	mov	r8, r3
100040e0:	464b      	mov	r3, r9
100040e2:	4691      	mov	r9, r2
100040e4:	001f      	movs	r7, r3
100040e6:	46b2      	mov	sl, r6
100040e8:	0026      	movs	r6, r4
100040ea:	9c08      	ldr	r4, [sp, #32]
100040ec:	002a      	movs	r2, r5
100040ee:	003b      	movs	r3, r7
100040f0:	0031      	movs	r1, r6
100040f2:	47a0      	blx	r4
100040f4:	4643      	mov	r3, r8
100040f6:	3501      	adds	r5, #1
100040f8:	5d58      	ldrb	r0, [r3, r5]
100040fa:	2800      	cmp	r0, #0
100040fc:	d1f6      	bne.n	100040ec <_vsnprintf+0x5f4>
100040fe:	464a      	mov	r2, r9
10004100:	0034      	movs	r4, r6
10004102:	46b9      	mov	r9, r7
10004104:	4656      	mov	r6, sl
10004106:	920a      	str	r2, [sp, #40]	; 0x28
10004108:	e6f5      	b.n	10003ef6 <_vsnprintf+0x3fe>
1000410a:	23c0      	movs	r3, #192	; 0xc0
1000410c:	009b      	lsls	r3, r3, #2
1000410e:	78b0      	ldrb	r0, [r6, #2]
10004110:	4319      	orrs	r1, r3
10004112:	3602      	adds	r6, #2
10004114:	e55d      	b.n	10003bd2 <_vsnprintf+0xda>
10004116:	23c0      	movs	r3, #192	; 0xc0
10004118:	78b0      	ldrb	r0, [r6, #2]
1000411a:	4319      	orrs	r1, r3
1000411c:	3602      	adds	r6, #2
1000411e:	e558      	b.n	10003bd2 <_vsnprintf+0xda>
10004120:	230c      	movs	r3, #12
10004122:	000a      	movs	r2, r1
10004124:	439a      	bics	r2, r3
10004126:	3314      	adds	r3, #20
10004128:	431a      	orrs	r2, r3
1000412a:	3b10      	subs	r3, #16
1000412c:	920b      	str	r2, [sp, #44]	; 0x2c
1000412e:	930c      	str	r3, [sp, #48]	; 0x30
10004130:	054b      	lsls	r3, r1, #21
10004132:	d48d      	bmi.n	10004050 <_vsnprintf+0x558>
10004134:	e796      	b.n	10004064 <_vsnprintf+0x56c>
10004136:	46a1      	mov	r9, r4
10004138:	0034      	movs	r4, r6
1000413a:	4656      	mov	r6, sl
1000413c:	e6db      	b.n	10003ef6 <_vsnprintf+0x3fe>
1000413e:	9a0a      	ldr	r2, [sp, #40]	; 0x28
10004140:	2a01      	cmp	r2, #1
10004142:	d800      	bhi.n	10004146 <_vsnprintf+0x64e>
10004144:	e253      	b.n	100045ee <_vsnprintf+0xaf6>
10004146:	1e6b      	subs	r3, r5, #1
10004148:	189f      	adds	r7, r3, r2
1000414a:	9b08      	ldr	r3, [sp, #32]
1000414c:	46b0      	mov	r8, r6
1000414e:	0026      	movs	r6, r4
10004150:	464c      	mov	r4, r9
10004152:	4699      	mov	r9, r3
10004154:	002a      	movs	r2, r5
10004156:	0023      	movs	r3, r4
10004158:	3501      	adds	r5, #1
1000415a:	0031      	movs	r1, r6
1000415c:	2020      	movs	r0, #32
1000415e:	47c8      	blx	r9
10004160:	42bd      	cmp	r5, r7
10004162:	d1f7      	bne.n	10004154 <_vsnprintf+0x65c>
10004164:	46a1      	mov	r9, r4
10004166:	0034      	movs	r4, r6
10004168:	4646      	mov	r6, r8
1000416a:	9b09      	ldr	r3, [sp, #36]	; 0x24
1000416c:	003a      	movs	r2, r7
1000416e:	cb01      	ldmia	r3!, {r0}
10004170:	0021      	movs	r1, r4
10004172:	4698      	mov	r8, r3
10004174:	1c7d      	adds	r5, r7, #1
10004176:	464b      	mov	r3, r9
10004178:	9f08      	ldr	r7, [sp, #32]
1000417a:	b2c0      	uxtb	r0, r0
1000417c:	47b8      	blx	r7
1000417e:	4643      	mov	r3, r8
10004180:	3601      	adds	r6, #1
10004182:	9309      	str	r3, [sp, #36]	; 0x24
10004184:	e4dd      	b.n	10003b42 <_vsnprintf+0x4a>
10004186:	9b0b      	ldr	r3, [sp, #44]	; 0x2c
10004188:	9a0a      	ldr	r2, [sp, #40]	; 0x28
1000418a:	46a8      	mov	r8, r5
1000418c:	429a      	cmp	r2, r3
1000418e:	d800      	bhi.n	10004192 <_vsnprintf+0x69a>
10004190:	e6b5      	b.n	10003efe <_vsnprintf+0x406>
10004192:	4694      	mov	ip, r2
10004194:	4465      	add	r5, ip
10004196:	1aed      	subs	r5, r5, r3
10004198:	9b08      	ldr	r3, [sp, #32]
1000419a:	4647      	mov	r7, r8
1000419c:	46b0      	mov	r8, r6
1000419e:	0026      	movs	r6, r4
100041a0:	464c      	mov	r4, r9
100041a2:	4699      	mov	r9, r3
100041a4:	003a      	movs	r2, r7
100041a6:	0023      	movs	r3, r4
100041a8:	3701      	adds	r7, #1
100041aa:	0031      	movs	r1, r6
100041ac:	2020      	movs	r0, #32
100041ae:	47c8      	blx	r9
100041b0:	42af      	cmp	r7, r5
100041b2:	d1f7      	bne.n	100041a4 <_vsnprintf+0x6ac>
100041b4:	46a1      	mov	r9, r4
100041b6:	0034      	movs	r4, r6
100041b8:	4646      	mov	r6, r8
100041ba:	e6a0      	b.n	10003efe <_vsnprintf+0x406>
100041bc:	9a0b      	ldr	r2, [sp, #44]	; 0x2c
100041be:	990a      	ldr	r1, [sp, #40]	; 0x28
100041c0:	1c53      	adds	r3, r2, #1
100041c2:	4291      	cmp	r1, r2
100041c4:	d800      	bhi.n	100041c8 <_vsnprintf+0x6d0>
100041c6:	e214      	b.n	100045f2 <_vsnprintf+0xafa>
100041c8:	194b      	adds	r3, r1, r5
100041ca:	1a9b      	subs	r3, r3, r2
100041cc:	001f      	movs	r7, r3
100041ce:	9b08      	ldr	r3, [sp, #32]
100041d0:	46b2      	mov	sl, r6
100041d2:	0026      	movs	r6, r4
100041d4:	464c      	mov	r4, r9
100041d6:	4699      	mov	r9, r3
100041d8:	002a      	movs	r2, r5
100041da:	0023      	movs	r3, r4
100041dc:	3501      	adds	r5, #1
100041de:	0031      	movs	r1, r6
100041e0:	2020      	movs	r0, #32
100041e2:	47c8      	blx	r9
100041e4:	42bd      	cmp	r5, r7
100041e6:	d1f7      	bne.n	100041d8 <_vsnprintf+0x6e0>
100041e8:	9b0a      	ldr	r3, [sp, #40]	; 0x28
100041ea:	46a1      	mov	r9, r4
100041ec:	3301      	adds	r3, #1
100041ee:	930b      	str	r3, [sp, #44]	; 0x2c
100041f0:	9b09      	ldr	r3, [sp, #36]	; 0x24
100041f2:	0034      	movs	r4, r6
100041f4:	781b      	ldrb	r3, [r3, #0]
100041f6:	4656      	mov	r6, sl
100041f8:	469c      	mov	ip, r3
100041fa:	4660      	mov	r0, ip
100041fc:	2800      	cmp	r0, #0
100041fe:	d000      	beq.n	10004202 <_vsnprintf+0x70a>
10004200:	e658      	b.n	10003eb4 <_vsnprintf+0x3bc>
10004202:	e67c      	b.n	10003efe <_vsnprintf+0x406>
10004204:	2207      	movs	r2, #7
10004206:	9b09      	ldr	r3, [sp, #36]	; 0x24
10004208:	3307      	adds	r3, #7
1000420a:	4393      	bics	r3, r2
1000420c:	3201      	adds	r2, #1
1000420e:	4694      	mov	ip, r2
10004210:	449c      	add	ip, r3
10004212:	4662      	mov	r2, ip
10004214:	685f      	ldr	r7, [r3, #4]
10004216:	9209      	str	r2, [sp, #36]	; 0x24
10004218:	681a      	ldr	r2, [r3, #0]
1000421a:	17fb      	asrs	r3, r7, #31
1000421c:	9310      	str	r3, [sp, #64]	; 0x40
1000421e:	9311      	str	r3, [sp, #68]	; 0x44
10004220:	9810      	ldr	r0, [sp, #64]	; 0x40
10004222:	9911      	ldr	r1, [sp, #68]	; 0x44
10004224:	0003      	movs	r3, r0
10004226:	4053      	eors	r3, r2
10004228:	930e      	str	r3, [sp, #56]	; 0x38
1000422a:	000b      	movs	r3, r1
1000422c:	407b      	eors	r3, r7
1000422e:	930f      	str	r3, [sp, #60]	; 0x3c
10004230:	4694      	mov	ip, r2
10004232:	9a0e      	ldr	r2, [sp, #56]	; 0x38
10004234:	9b0f      	ldr	r3, [sp, #60]	; 0x3c
10004236:	1a12      	subs	r2, r2, r0
10004238:	418b      	sbcs	r3, r1
1000423a:	920e      	str	r2, [sp, #56]	; 0x38
1000423c:	930f      	str	r3, [sp, #60]	; 0x3c
1000423e:	0ffb      	lsrs	r3, r7, #31
10004240:	4662      	mov	r2, ip
10004242:	9312      	str	r3, [sp, #72]	; 0x48
10004244:	2300      	movs	r3, #0
10004246:	433a      	orrs	r2, r7
10004248:	469b      	mov	fp, r3
1000424a:	d03d      	beq.n	100042c8 <_vsnprintf+0x7d0>
1000424c:	9a0b      	ldr	r2, [sp, #44]	; 0x2c
1000424e:	2361      	movs	r3, #97	; 0x61
10004250:	0692      	lsls	r2, r2, #26
10004252:	d500      	bpl.n	10004256 <_vsnprintf+0x75e>
10004254:	2341      	movs	r3, #65	; 0x41
10004256:	2200      	movs	r2, #0
10004258:	b2db      	uxtb	r3, r3
1000425a:	a90e      	add	r1, sp, #56	; 0x38
1000425c:	3b0a      	subs	r3, #10
1000425e:	468c      	mov	ip, r1
10004260:	4692      	mov	sl, r2
10004262:	930d      	str	r3, [sp, #52]	; 0x34
10004264:	4643      	mov	r3, r8
10004266:	321f      	adds	r2, #31
10004268:	4462      	add	r2, ip
1000426a:	9513      	str	r5, [sp, #76]	; 0x4c
1000426c:	9615      	str	r6, [sp, #84]	; 0x54
1000426e:	4655      	mov	r5, sl
10004270:	9e0e      	ldr	r6, [sp, #56]	; 0x38
10004272:	9f0f      	ldr	r7, [sp, #60]	; 0x3c
10004274:	46a2      	mov	sl, r4
10004276:	4690      	mov	r8, r2
10004278:	9c0c      	ldr	r4, [sp, #48]	; 0x30
1000427a:	9314      	str	r3, [sp, #80]	; 0x50
1000427c:	e00c      	b.n	10004298 <_vsnprintf+0x7a0>
1000427e:	3230      	adds	r2, #48	; 0x30
10004280:	b2d2      	uxtb	r2, r2
10004282:	4643      	mov	r3, r8
10004284:	3501      	adds	r5, #1
10004286:	555a      	strb	r2, [r3, r5]
10004288:	45bb      	cmp	fp, r7
1000428a:	d100      	bne.n	1000428e <_vsnprintf+0x796>
1000428c:	e18a      	b.n	100045a4 <_vsnprintf+0xaac>
1000428e:	2d20      	cmp	r5, #32
10004290:	d100      	bne.n	10004294 <_vsnprintf+0x79c>
10004292:	e18a      	b.n	100045aa <_vsnprintf+0xab2>
10004294:	0006      	movs	r6, r0
10004296:	000f      	movs	r7, r1
10004298:	0022      	movs	r2, r4
1000429a:	2300      	movs	r3, #0
1000429c:	0030      	movs	r0, r6
1000429e:	0039      	movs	r1, r7
100042a0:	f7fd fffa 	bl	10002298 <__wrap___aeabi_uldivmod>
100042a4:	b2d2      	uxtb	r2, r2
100042a6:	2a09      	cmp	r2, #9
100042a8:	d9e9      	bls.n	1000427e <_vsnprintf+0x786>
100042aa:	9b0d      	ldr	r3, [sp, #52]	; 0x34
100042ac:	469c      	mov	ip, r3
100042ae:	4462      	add	r2, ip
100042b0:	b2d2      	uxtb	r2, r2
100042b2:	e7e6      	b.n	10004282 <_vsnprintf+0x78a>
100042b4:	23ff      	movs	r3, #255	; 0xff
100042b6:	9909      	ldr	r1, [sp, #36]	; 0x24
100042b8:	c904      	ldmia	r1!, {r2}
100042ba:	4013      	ands	r3, r2
100042bc:	001a      	movs	r2, r3
100042be:	9109      	str	r1, [sp, #36]	; 0x24
100042c0:	e517      	b.n	10003cf2 <_vsnprintf+0x1fa>
100042c2:	46c0      	nop			; (mov r8, r8)
100042c4:	10003099 	.word	0x10003099
100042c8:	9a0b      	ldr	r2, [sp, #44]	; 0x2c
100042ca:	3310      	adds	r3, #16
100042cc:	0011      	movs	r1, r2
100042ce:	4399      	bics	r1, r3
100042d0:	910b      	str	r1, [sp, #44]	; 0x2c
100042d2:	0552      	lsls	r2, r2, #21
100042d4:	d5ba      	bpl.n	1000424c <_vsnprintf+0x754>
100042d6:	2300      	movs	r3, #0
100042d8:	469a      	mov	sl, r3
100042da:	9b0b      	ldr	r3, [sp, #44]	; 0x2c
100042dc:	9306      	str	r3, [sp, #24]
100042de:	9b0a      	ldr	r3, [sp, #40]	; 0x28
100042e0:	9305      	str	r3, [sp, #20]
100042e2:	4643      	mov	r3, r8
100042e4:	9304      	str	r3, [sp, #16]
100042e6:	9b0c      	ldr	r3, [sp, #48]	; 0x30
100042e8:	9303      	str	r3, [sp, #12]
100042ea:	9b12      	ldr	r3, [sp, #72]	; 0x48
100042ec:	9302      	str	r3, [sp, #8]
100042ee:	4653      	mov	r3, sl
100042f0:	9301      	str	r3, [sp, #4]
100042f2:	ab16      	add	r3, sp, #88	; 0x58
100042f4:	002a      	movs	r2, r5
100042f6:	9300      	str	r3, [sp, #0]
100042f8:	0021      	movs	r1, r4
100042fa:	464b      	mov	r3, r9
100042fc:	9808      	ldr	r0, [sp, #32]
100042fe:	f7fe ff1b 	bl	10003138 <_ntoa_format>
10004302:	3601      	adds	r6, #1
10004304:	0005      	movs	r5, r0
10004306:	e41c      	b.n	10003b42 <_vsnprintf+0x4a>
10004308:	22ff      	movs	r2, #255	; 0xff
1000430a:	9b09      	ldr	r3, [sp, #36]	; 0x24
1000430c:	cb02      	ldmia	r3!, {r1}
1000430e:	4011      	ands	r1, r2
10004310:	468b      	mov	fp, r1
10004312:	9309      	str	r3, [sp, #36]	; 0x24
10004314:	e6c5      	b.n	100040a2 <_vsnprintf+0x5aa>
10004316:	4653      	mov	r3, sl
10004318:	4645      	mov	r5, r8
1000431a:	9309      	str	r3, [sp, #36]	; 0x24
1000431c:	3601      	adds	r6, #1
1000431e:	f7ff fc10 	bl	10003b42 <_vsnprintf+0x4a>
10004322:	4656      	mov	r6, sl
10004324:	465c      	mov	r4, fp
10004326:	46aa      	mov	sl, r5
10004328:	9d13      	ldr	r5, [sp, #76]	; 0x4c
1000432a:	e7d6      	b.n	100042da <_vsnprintf+0x7e2>
1000432c:	2308      	movs	r3, #8
1000432e:	930c      	str	r3, [sp, #48]	; 0x30
10004330:	910b      	str	r1, [sp, #44]	; 0x2c
10004332:	990b      	ldr	r1, [sp, #44]	; 0x2c
10004334:	2864      	cmp	r0, #100	; 0x64
10004336:	d000      	beq.n	1000433a <_vsnprintf+0x842>
10004338:	e684      	b.n	10004044 <_vsnprintf+0x54c>
1000433a:	9b0b      	ldr	r3, [sp, #44]	; 0x2c
1000433c:	055b      	lsls	r3, r3, #21
1000433e:	d500      	bpl.n	10004342 <_vsnprintf+0x84a>
10004340:	e686      	b.n	10004050 <_vsnprintf+0x558>
10004342:	e4b4      	b.n	10003cae <_vsnprintf+0x1b6>
10004344:	2207      	movs	r2, #7
10004346:	9b09      	ldr	r3, [sp, #36]	; 0x24
10004348:	3307      	adds	r3, #7
1000434a:	4393      	bics	r3, r2
1000434c:	3201      	adds	r2, #1
1000434e:	4694      	mov	ip, r2
10004350:	449c      	add	ip, r3
10004352:	4662      	mov	r2, ip
10004354:	9209      	str	r2, [sp, #36]	; 0x24
10004356:	681a      	ldr	r2, [r3, #0]
10004358:	685b      	ldr	r3, [r3, #4]
1000435a:	0010      	movs	r0, r2
1000435c:	469b      	mov	fp, r3
1000435e:	0013      	movs	r3, r2
10004360:	465a      	mov	r2, fp
10004362:	4313      	orrs	r3, r2
10004364:	d107      	bne.n	10004376 <_vsnprintf+0x87e>
10004366:	9a0b      	ldr	r2, [sp, #44]	; 0x2c
10004368:	3310      	adds	r3, #16
1000436a:	0011      	movs	r1, r2
1000436c:	4399      	bics	r1, r3
1000436e:	910b      	str	r1, [sp, #44]	; 0x2c
10004370:	0552      	lsls	r2, r2, #21
10004372:	d500      	bpl.n	10004376 <_vsnprintf+0x87e>
10004374:	e6a1      	b.n	100040ba <_vsnprintf+0x5c2>
10004376:	9a0b      	ldr	r2, [sp, #44]	; 0x2c
10004378:	2361      	movs	r3, #97	; 0x61
1000437a:	0692      	lsls	r2, r2, #26
1000437c:	d500      	bpl.n	10004380 <_vsnprintf+0x888>
1000437e:	2341      	movs	r3, #65	; 0x41
10004380:	2200      	movs	r2, #0
10004382:	b2db      	uxtb	r3, r3
10004384:	a90e      	add	r1, sp, #56	; 0x38
10004386:	3b0a      	subs	r3, #10
10004388:	468c      	mov	ip, r1
1000438a:	4692      	mov	sl, r2
1000438c:	930d      	str	r3, [sp, #52]	; 0x34
1000438e:	4643      	mov	r3, r8
10004390:	321f      	adds	r2, #31
10004392:	4462      	add	r2, ip
10004394:	465f      	mov	r7, fp
10004396:	9512      	str	r5, [sp, #72]	; 0x48
10004398:	46a3      	mov	fp, r4
1000439a:	4655      	mov	r5, sl
1000439c:	0004      	movs	r4, r0
1000439e:	46b2      	mov	sl, r6
100043a0:	4690      	mov	r8, r2
100043a2:	9e0c      	ldr	r6, [sp, #48]	; 0x30
100043a4:	9313      	str	r3, [sp, #76]	; 0x4c
100043a6:	e00d      	b.n	100043c4 <_vsnprintf+0x8cc>
100043a8:	3230      	adds	r2, #48	; 0x30
100043aa:	b2d2      	uxtb	r2, r2
100043ac:	4643      	mov	r3, r8
100043ae:	3501      	adds	r5, #1
100043b0:	555a      	strb	r2, [r3, r5]
100043b2:	2300      	movs	r3, #0
100043b4:	42bb      	cmp	r3, r7
100043b6:	d100      	bne.n	100043ba <_vsnprintf+0x8c2>
100043b8:	e100      	b.n	100045bc <_vsnprintf+0xac4>
100043ba:	2d20      	cmp	r5, #32
100043bc:	d100      	bne.n	100043c0 <_vsnprintf+0x8c8>
100043be:	e100      	b.n	100045c2 <_vsnprintf+0xaca>
100043c0:	0004      	movs	r4, r0
100043c2:	000f      	movs	r7, r1
100043c4:	0032      	movs	r2, r6
100043c6:	2300      	movs	r3, #0
100043c8:	0020      	movs	r0, r4
100043ca:	0039      	movs	r1, r7
100043cc:	f7fd ff64 	bl	10002298 <__wrap___aeabi_uldivmod>
100043d0:	b2d2      	uxtb	r2, r2
100043d2:	2a09      	cmp	r2, #9
100043d4:	d9e8      	bls.n	100043a8 <_vsnprintf+0x8b0>
100043d6:	9b0d      	ldr	r3, [sp, #52]	; 0x34
100043d8:	469c      	mov	ip, r3
100043da:	4462      	add	r2, ip
100043dc:	b2d2      	uxtb	r2, r2
100043de:	e7e5      	b.n	100043ac <_vsnprintf+0x8b4>
100043e0:	9a0b      	ldr	r2, [sp, #44]	; 0x2c
100043e2:	2361      	movs	r3, #97	; 0x61
100043e4:	0692      	lsls	r2, r2, #26
100043e6:	d500      	bpl.n	100043ea <_vsnprintf+0x8f2>
100043e8:	2341      	movs	r3, #65	; 0x41
100043ea:	b2db      	uxtb	r3, r3
100043ec:	a90e      	add	r1, sp, #56	; 0x38
100043ee:	3b0a      	subs	r3, #10
100043f0:	221f      	movs	r2, #31
100043f2:	468c      	mov	ip, r1
100043f4:	930d      	str	r3, [sp, #52]	; 0x34
100043f6:	0023      	movs	r3, r4
100043f8:	4462      	add	r2, ip
100043fa:	465c      	mov	r4, fp
100043fc:	9512      	str	r5, [sp, #72]	; 0x48
100043fe:	0017      	movs	r7, r2
10004400:	4655      	mov	r5, sl
10004402:	469b      	mov	fp, r3
10004404:	46b2      	mov	sl, r6
10004406:	9e0c      	ldr	r6, [sp, #48]	; 0x30
10004408:	e008      	b.n	1000441c <_vsnprintf+0x924>
1000440a:	3330      	adds	r3, #48	; 0x30
1000440c:	b2db      	uxtb	r3, r3
1000440e:	3501      	adds	r5, #1
10004410:	557b      	strb	r3, [r7, r5]
10004412:	42b4      	cmp	r4, r6
10004414:	d30e      	bcc.n	10004434 <_vsnprintf+0x93c>
10004416:	2d20      	cmp	r5, #32
10004418:	d00c      	beq.n	10004434 <_vsnprintf+0x93c>
1000441a:	0004      	movs	r4, r0
1000441c:	0031      	movs	r1, r6
1000441e:	0020      	movs	r0, r4
10004420:	f7fd fefc 	bl	1000221c <__wrap___aeabi_uidiv>
10004424:	b2cb      	uxtb	r3, r1
10004426:	2909      	cmp	r1, #9
10004428:	d9ef      	bls.n	1000440a <_vsnprintf+0x912>
1000442a:	9a0d      	ldr	r2, [sp, #52]	; 0x34
1000442c:	4694      	mov	ip, r2
1000442e:	4463      	add	r3, ip
10004430:	b2db      	uxtb	r3, r3
10004432:	e7ec      	b.n	1000440e <_vsnprintf+0x916>
10004434:	4656      	mov	r6, sl
10004436:	465c      	mov	r4, fp
10004438:	46aa      	mov	sl, r5
1000443a:	9d12      	ldr	r5, [sp, #72]	; 0x48
1000443c:	e63f      	b.n	100040be <_vsnprintf+0x5c6>
1000443e:	9b09      	ldr	r3, [sp, #36]	; 0x24
10004440:	001a      	movs	r2, r3
10004442:	ca08      	ldmia	r2!, {r3}
10004444:	17d9      	asrs	r1, r3, #31
10004446:	9213      	str	r2, [sp, #76]	; 0x4c
10004448:	185a      	adds	r2, r3, r1
1000444a:	404a      	eors	r2, r1
1000444c:	4692      	mov	sl, r2
1000444e:	0fda      	lsrs	r2, r3, #31
10004450:	9212      	str	r2, [sp, #72]	; 0x48
10004452:	2b00      	cmp	r3, #0
10004454:	d108      	bne.n	10004468 <_vsnprintf+0x970>
10004456:	2380      	movs	r3, #128	; 0x80
10004458:	2210      	movs	r2, #16
1000445a:	990b      	ldr	r1, [sp, #44]	; 0x2c
1000445c:	00db      	lsls	r3, r3, #3
1000445e:	400b      	ands	r3, r1
10004460:	4391      	bics	r1, r2
10004462:	910b      	str	r1, [sp, #44]	; 0x2c
10004464:	2b00      	cmp	r3, #0
10004466:	d12b      	bne.n	100044c0 <_vsnprintf+0x9c8>
10004468:	9a0b      	ldr	r2, [sp, #44]	; 0x2c
1000446a:	2361      	movs	r3, #97	; 0x61
1000446c:	0692      	lsls	r2, r2, #26
1000446e:	d500      	bpl.n	10004472 <_vsnprintf+0x97a>
10004470:	2341      	movs	r3, #65	; 0x41
10004472:	aa0e      	add	r2, sp, #56	; 0x38
10004474:	271f      	movs	r7, #31
10004476:	4694      	mov	ip, r2
10004478:	b2db      	uxtb	r3, r3
1000447a:	3b0a      	subs	r3, #10
1000447c:	950d      	str	r5, [sp, #52]	; 0x34
1000447e:	4467      	add	r7, ip
10004480:	465d      	mov	r5, fp
10004482:	9309      	str	r3, [sp, #36]	; 0x24
10004484:	46a3      	mov	fp, r4
10004486:	4654      	mov	r4, sl
10004488:	46b2      	mov	sl, r6
1000448a:	9e0c      	ldr	r6, [sp, #48]	; 0x30
1000448c:	e008      	b.n	100044a0 <_vsnprintf+0x9a8>
1000448e:	3330      	adds	r3, #48	; 0x30
10004490:	b2db      	uxtb	r3, r3
10004492:	3501      	adds	r5, #1
10004494:	557b      	strb	r3, [r7, r5]
10004496:	42b4      	cmp	r4, r6
10004498:	d30e      	bcc.n	100044b8 <_vsnprintf+0x9c0>
1000449a:	2d20      	cmp	r5, #32
1000449c:	d00c      	beq.n	100044b8 <_vsnprintf+0x9c0>
1000449e:	0004      	movs	r4, r0
100044a0:	0031      	movs	r1, r6
100044a2:	0020      	movs	r0, r4
100044a4:	f7fd feba 	bl	1000221c <__wrap___aeabi_uidiv>
100044a8:	b2cb      	uxtb	r3, r1
100044aa:	2909      	cmp	r1, #9
100044ac:	d9ef      	bls.n	1000448e <_vsnprintf+0x996>
100044ae:	9a09      	ldr	r2, [sp, #36]	; 0x24
100044b0:	4694      	mov	ip, r2
100044b2:	4463      	add	r3, ip
100044b4:	b2db      	uxtb	r3, r3
100044b6:	e7ec      	b.n	10004492 <_vsnprintf+0x99a>
100044b8:	4656      	mov	r6, sl
100044ba:	465c      	mov	r4, fp
100044bc:	46ab      	mov	fp, r5
100044be:	9d0d      	ldr	r5, [sp, #52]	; 0x34
100044c0:	9b0b      	ldr	r3, [sp, #44]	; 0x2c
100044c2:	002a      	movs	r2, r5
100044c4:	9306      	str	r3, [sp, #24]
100044c6:	9b0a      	ldr	r3, [sp, #40]	; 0x28
100044c8:	0021      	movs	r1, r4
100044ca:	9305      	str	r3, [sp, #20]
100044cc:	4643      	mov	r3, r8
100044ce:	9304      	str	r3, [sp, #16]
100044d0:	9b0c      	ldr	r3, [sp, #48]	; 0x30
100044d2:	9808      	ldr	r0, [sp, #32]
100044d4:	9303      	str	r3, [sp, #12]
100044d6:	9b12      	ldr	r3, [sp, #72]	; 0x48
100044d8:	3601      	adds	r6, #1
100044da:	9302      	str	r3, [sp, #8]
100044dc:	465b      	mov	r3, fp
100044de:	9301      	str	r3, [sp, #4]
100044e0:	ab16      	add	r3, sp, #88	; 0x58
100044e2:	9300      	str	r3, [sp, #0]
100044e4:	464b      	mov	r3, r9
100044e6:	f7fe fe27 	bl	10003138 <_ntoa_format>
100044ea:	9b13      	ldr	r3, [sp, #76]	; 0x4c
100044ec:	0005      	movs	r5, r0
100044ee:	9309      	str	r3, [sp, #36]	; 0x24
100044f0:	f7ff fb27 	bl	10003b42 <_vsnprintf+0x4a>
100044f4:	2302      	movs	r3, #2
100044f6:	930c      	str	r3, [sp, #48]	; 0x30
100044f8:	e71a      	b.n	10004330 <_vsnprintf+0x838>
100044fa:	9b09      	ldr	r3, [sp, #36]	; 0x24
100044fc:	cb04      	ldmia	r3!, {r2}
100044fe:	4692      	mov	sl, r2
10004500:	9312      	str	r3, [sp, #72]	; 0x48
10004502:	2a00      	cmp	r2, #0
10004504:	d108      	bne.n	10004518 <_vsnprintf+0xa20>
10004506:	2380      	movs	r3, #128	; 0x80
10004508:	2210      	movs	r2, #16
1000450a:	990b      	ldr	r1, [sp, #44]	; 0x2c
1000450c:	00db      	lsls	r3, r3, #3
1000450e:	400b      	ands	r3, r1
10004510:	4391      	bics	r1, r2
10004512:	910b      	str	r1, [sp, #44]	; 0x2c
10004514:	2b00      	cmp	r3, #0
10004516:	d12b      	bne.n	10004570 <_vsnprintf+0xa78>
10004518:	9a0b      	ldr	r2, [sp, #44]	; 0x2c
1000451a:	2361      	movs	r3, #97	; 0x61
1000451c:	0692      	lsls	r2, r2, #26
1000451e:	d500      	bpl.n	10004522 <_vsnprintf+0xa2a>
10004520:	2341      	movs	r3, #65	; 0x41
10004522:	aa0e      	add	r2, sp, #56	; 0x38
10004524:	271f      	movs	r7, #31
10004526:	4694      	mov	ip, r2
10004528:	b2db      	uxtb	r3, r3
1000452a:	3b0a      	subs	r3, #10
1000452c:	950d      	str	r5, [sp, #52]	; 0x34
1000452e:	4467      	add	r7, ip
10004530:	465d      	mov	r5, fp
10004532:	9309      	str	r3, [sp, #36]	; 0x24
10004534:	46a3      	mov	fp, r4
10004536:	4654      	mov	r4, sl
10004538:	46b2      	mov	sl, r6
1000453a:	9e0c      	ldr	r6, [sp, #48]	; 0x30
1000453c:	e008      	b.n	10004550 <_vsnprintf+0xa58>
1000453e:	3330      	adds	r3, #48	; 0x30
10004540:	b2db      	uxtb	r3, r3
10004542:	3501      	adds	r5, #1
10004544:	557b      	strb	r3, [r7, r5]
10004546:	42b4      	cmp	r4, r6
10004548:	d30e      	bcc.n	10004568 <_vsnprintf+0xa70>
1000454a:	2d20      	cmp	r5, #32
1000454c:	d00c      	beq.n	10004568 <_vsnprintf+0xa70>
1000454e:	0004      	movs	r4, r0
10004550:	0031      	movs	r1, r6
10004552:	0020      	movs	r0, r4
10004554:	f7fd fe62 	bl	1000221c <__wrap___aeabi_uidiv>
10004558:	b2cb      	uxtb	r3, r1
1000455a:	2909      	cmp	r1, #9
1000455c:	d9ef      	bls.n	1000453e <_vsnprintf+0xa46>
1000455e:	9a09      	ldr	r2, [sp, #36]	; 0x24
10004560:	4694      	mov	ip, r2
10004562:	4463      	add	r3, ip
10004564:	b2db      	uxtb	r3, r3
10004566:	e7ec      	b.n	10004542 <_vsnprintf+0xa4a>
10004568:	4656      	mov	r6, sl
1000456a:	465c      	mov	r4, fp
1000456c:	46ab      	mov	fp, r5
1000456e:	9d0d      	ldr	r5, [sp, #52]	; 0x34
10004570:	9b0b      	ldr	r3, [sp, #44]	; 0x2c
10004572:	002a      	movs	r2, r5
10004574:	9306      	str	r3, [sp, #24]
10004576:	9b0a      	ldr	r3, [sp, #40]	; 0x28
10004578:	0021      	movs	r1, r4
1000457a:	9305      	str	r3, [sp, #20]
1000457c:	4643      	mov	r3, r8
1000457e:	9304      	str	r3, [sp, #16]
10004580:	9b0c      	ldr	r3, [sp, #48]	; 0x30
10004582:	9808      	ldr	r0, [sp, #32]
10004584:	9303      	str	r3, [sp, #12]
10004586:	2300      	movs	r3, #0
10004588:	9302      	str	r3, [sp, #8]
1000458a:	465b      	mov	r3, fp
1000458c:	9301      	str	r3, [sp, #4]
1000458e:	ab16      	add	r3, sp, #88	; 0x58
10004590:	9300      	str	r3, [sp, #0]
10004592:	464b      	mov	r3, r9
10004594:	f7fe fdd0 	bl	10003138 <_ntoa_format>
10004598:	9b12      	ldr	r3, [sp, #72]	; 0x48
1000459a:	0005      	movs	r5, r0
1000459c:	9309      	str	r3, [sp, #36]	; 0x24
1000459e:	3601      	adds	r6, #1
100045a0:	f7ff facf 	bl	10003b42 <_vsnprintf+0x4a>
100045a4:	42b4      	cmp	r4, r6
100045a6:	d800      	bhi.n	100045aa <_vsnprintf+0xab2>
100045a8:	e671      	b.n	1000428e <_vsnprintf+0x796>
100045aa:	9b14      	ldr	r3, [sp, #80]	; 0x50
100045ac:	4654      	mov	r4, sl
100045ae:	960e      	str	r6, [sp, #56]	; 0x38
100045b0:	970f      	str	r7, [sp, #60]	; 0x3c
100045b2:	46aa      	mov	sl, r5
100045b4:	4698      	mov	r8, r3
100045b6:	9e15      	ldr	r6, [sp, #84]	; 0x54
100045b8:	9d13      	ldr	r5, [sp, #76]	; 0x4c
100045ba:	e68e      	b.n	100042da <_vsnprintf+0x7e2>
100045bc:	42a6      	cmp	r6, r4
100045be:	d800      	bhi.n	100045c2 <_vsnprintf+0xaca>
100045c0:	e6fb      	b.n	100043ba <_vsnprintf+0x8c2>
100045c2:	9b13      	ldr	r3, [sp, #76]	; 0x4c
100045c4:	4656      	mov	r6, sl
100045c6:	4698      	mov	r8, r3
100045c8:	46aa      	mov	sl, r5
100045ca:	465c      	mov	r4, fp
100045cc:	9d12      	ldr	r5, [sp, #72]	; 0x48
100045ce:	e576      	b.n	100040be <_vsnprintf+0x5c6>
100045d0:	c908      	ldmia	r1!, {r3}
100045d2:	17d8      	asrs	r0, r3, #31
100045d4:	181a      	adds	r2, r3, r0
100045d6:	4042      	eors	r2, r0
100045d8:	9109      	str	r1, [sp, #36]	; 0x24
100045da:	f7ff fb8a 	bl	10003cf2 <_vsnprintf+0x1fa>
100045de:	2300      	movs	r3, #0
100045e0:	930b      	str	r3, [sp, #44]	; 0x2c
100045e2:	e450      	b.n	10003e86 <_vsnprintf+0x38e>
100045e4:	9b09      	ldr	r3, [sp, #36]	; 0x24
100045e6:	cb04      	ldmia	r3!, {r2}
100045e8:	4693      	mov	fp, r2
100045ea:	9309      	str	r3, [sp, #36]	; 0x24
100045ec:	e559      	b.n	100040a2 <_vsnprintf+0x5aa>
100045ee:	002f      	movs	r7, r5
100045f0:	e5bb      	b.n	1000416a <_vsnprintf+0x672>
100045f2:	930b      	str	r3, [sp, #44]	; 0x2c
100045f4:	e601      	b.n	100041fa <_vsnprintf+0x702>
100045f6:	3b06      	subs	r3, #6
100045f8:	930c      	str	r3, [sp, #48]	; 0x30
100045fa:	e69a      	b.n	10004332 <_vsnprintf+0x83a>

100045fc <__wrap_sprintf>:
100045fc:	b40e      	push	{r1, r2, r3}
100045fe:	2201      	movs	r2, #1
10004600:	b510      	push	{r4, lr}
10004602:	b085      	sub	sp, #20
10004604:	ac07      	add	r4, sp, #28
10004606:	cc08      	ldmia	r4!, {r3}
10004608:	0001      	movs	r1, r0
1000460a:	9400      	str	r4, [sp, #0]
1000460c:	4252      	negs	r2, r2
1000460e:	4804      	ldr	r0, [pc, #16]	; (10004620 <__wrap_sprintf+0x24>)
10004610:	9403      	str	r4, [sp, #12]
10004612:	f7ff fa71 	bl	10003af8 <_vsnprintf>
10004616:	b005      	add	sp, #20
10004618:	bc10      	pop	{r4}
1000461a:	bc08      	pop	{r3}
1000461c:	b003      	add	sp, #12
1000461e:	4718      	bx	r3
10004620:	10003091 	.word	0x10003091

10004624 <weak_raw_vprintf>:
10004624:	b510      	push	{r4, lr}
10004626:	4a09      	ldr	r2, [pc, #36]	; (1000464c <weak_raw_vprintf+0x28>)
10004628:	0003      	movs	r3, r0
1000462a:	6814      	ldr	r4, [r2, #0]
1000462c:	b084      	sub	sp, #16
1000462e:	2c00      	cmp	r4, #0
10004630:	d008      	beq.n	10004644 <weak_raw_vprintf+0x20>
10004632:	2201      	movs	r2, #1
10004634:	9100      	str	r1, [sp, #0]
10004636:	4806      	ldr	r0, [pc, #24]	; (10004650 <weak_raw_vprintf+0x2c>)
10004638:	4252      	negs	r2, r2
1000463a:	a903      	add	r1, sp, #12
1000463c:	47a0      	blx	r4
1000463e:	2001      	movs	r0, #1
10004640:	b004      	add	sp, #16
10004642:	bd10      	pop	{r4, pc}
10004644:	f000 f982 	bl	1000494c <__wrap_puts>
10004648:	2000      	movs	r0, #0
1000464a:	e7f9      	b.n	10004640 <weak_raw_vprintf+0x1c>
1000464c:	20001164 	.word	0x20001164
10004650:	10003305 	.word	0x10003305

10004654 <_exit>:
10004654:	be00      	bkpt	0x0000
10004656:	e7fd      	b.n	10004654 <_exit>

10004658 <_sbrk>:
10004658:	4a09      	ldr	r2, [pc, #36]	; (10004680 <_sbrk+0x28>)
1000465a:	0003      	movs	r3, r0
1000465c:	6810      	ldr	r0, [r2, #0]
1000465e:	2800      	cmp	r0, #0
10004660:	d005      	beq.n	1000466e <_sbrk+0x16>
10004662:	4908      	ldr	r1, [pc, #32]	; (10004684 <_sbrk+0x2c>)
10004664:	18c3      	adds	r3, r0, r3
10004666:	428b      	cmp	r3, r1
10004668:	d807      	bhi.n	1000467a <_sbrk+0x22>
1000466a:	6013      	str	r3, [r2, #0]
1000466c:	4770      	bx	lr
1000466e:	4806      	ldr	r0, [pc, #24]	; (10004688 <_sbrk+0x30>)
10004670:	4904      	ldr	r1, [pc, #16]	; (10004684 <_sbrk+0x2c>)
10004672:	18c3      	adds	r3, r0, r3
10004674:	6010      	str	r0, [r2, #0]
10004676:	428b      	cmp	r3, r1
10004678:	d9f7      	bls.n	1000466a <_sbrk+0x12>
1000467a:	2001      	movs	r0, #1
1000467c:	4240      	negs	r0, r0
1000467e:	e7f5      	b.n	1000466c <_sbrk+0x14>
10004680:	20001160 	.word	0x20001160
10004684:	20040000 	.word	0x20040000
10004688:	200011d8 	.word	0x200011d8

1000468c <exit>:
1000468c:	b510      	push	{r4, lr}
1000468e:	f7ff ffe1 	bl	10004654 <_exit>
10004692:	46c0      	nop			; (mov r8, r8)

10004694 <runtime_init>:
10004694:	b570      	push	{r4, r5, r6, lr}
10004696:	f7fd fcad 	bl	10001ff4 <runtime_run_initializers>
1000469a:	4d07      	ldr	r5, [pc, #28]	; (100046b8 <runtime_init+0x24>)
1000469c:	4e07      	ldr	r6, [pc, #28]	; (100046bc <runtime_init+0x28>)
1000469e:	42b5      	cmp	r5, r6
100046a0:	d209      	bcs.n	100046b6 <runtime_init+0x22>
100046a2:	2400      	movs	r4, #0
100046a4:	3e01      	subs	r6, #1
100046a6:	1b76      	subs	r6, r6, r5
100046a8:	08b6      	lsrs	r6, r6, #2
100046aa:	cd08      	ldmia	r5!, {r3}
100046ac:	4798      	blx	r3
100046ae:	0023      	movs	r3, r4
100046b0:	3401      	adds	r4, #1
100046b2:	42b3      	cmp	r3, r6
100046b4:	d1f9      	bne.n	100046aa <runtime_init+0x16>
100046b6:	bd70      	pop	{r4, r5, r6, pc}
100046b8:	1000625c 	.word	0x1000625c
100046bc:	10006260 	.word	0x10006260

100046c0 <stdio_out_chars_no_crlf>:
100046c0:	0003      	movs	r3, r0
100046c2:	b510      	push	{r4, lr}
100046c4:	0008      	movs	r0, r1
100046c6:	0011      	movs	r1, r2
100046c8:	681b      	ldr	r3, [r3, #0]
100046ca:	4798      	blx	r3
100046cc:	bd10      	pop	{r4, pc}
100046ce:	46c0      	nop			; (mov r8, r8)

100046d0 <stdio_out_chars_crlf>:
100046d0:	b5f0      	push	{r4, r5, r6, r7, lr}
100046d2:	4646      	mov	r6, r8
100046d4:	464f      	mov	r7, r9
100046d6:	46d6      	mov	lr, sl
100046d8:	b5c0      	push	{r6, r7, lr}
100046da:	7d43      	ldrb	r3, [r0, #21]
100046dc:	4680      	mov	r8, r0
100046de:	000e      	movs	r6, r1
100046e0:	0017      	movs	r7, r2
100046e2:	2b00      	cmp	r3, #0
100046e4:	d046      	beq.n	10004774 <stdio_out_chars_crlf+0xa4>
100046e6:	2a00      	cmp	r2, #0
100046e8:	dd3f      	ble.n	1000476a <stdio_out_chars_crlf+0x9a>
100046ea:	1e4b      	subs	r3, r1, #1
100046ec:	4699      	mov	r9, r3
100046ee:	4b24      	ldr	r3, [pc, #144]	; (10004780 <stdio_out_chars_crlf+0xb0>)
100046f0:	2501      	movs	r5, #1
100046f2:	2400      	movs	r4, #0
100046f4:	2000      	movs	r0, #0
100046f6:	469a      	mov	sl, r3
100046f8:	e00d      	b.n	10004716 <stdio_out_chars_crlf+0x46>
100046fa:	464b      	mov	r3, r9
100046fc:	5d1b      	ldrb	r3, [r3, r4]
100046fe:	3b0d      	subs	r3, #13
10004700:	425a      	negs	r2, r3
10004702:	4153      	adcs	r3, r2
10004704:	5d32      	ldrb	r2, [r6, r4]
10004706:	b2db      	uxtb	r3, r3
10004708:	2a0a      	cmp	r2, #10
1000470a:	d00b      	beq.n	10004724 <stdio_out_chars_crlf+0x54>
1000470c:	002b      	movs	r3, r5
1000470e:	3401      	adds	r4, #1
10004710:	3501      	adds	r5, #1
10004712:	429f      	cmp	r7, r3
10004714:	dd1a      	ble.n	1000474c <stdio_out_chars_crlf+0x7c>
10004716:	2c00      	cmp	r4, #0
10004718:	d1ef      	bne.n	100046fa <stdio_out_chars_crlf+0x2a>
1000471a:	4643      	mov	r3, r8
1000471c:	5d32      	ldrb	r2, [r6, r4]
1000471e:	7d1b      	ldrb	r3, [r3, #20]
10004720:	2a0a      	cmp	r2, #10
10004722:	d1f3      	bne.n	1000470c <stdio_out_chars_crlf+0x3c>
10004724:	2b00      	cmp	r3, #0
10004726:	d1f1      	bne.n	1000470c <stdio_out_chars_crlf+0x3c>
10004728:	42a0      	cmp	r0, r4
1000472a:	da04      	bge.n	10004736 <stdio_out_chars_crlf+0x66>
1000472c:	4643      	mov	r3, r8
1000472e:	1a21      	subs	r1, r4, r0
10004730:	681b      	ldr	r3, [r3, #0]
10004732:	1830      	adds	r0, r6, r0
10004734:	4798      	blx	r3
10004736:	4643      	mov	r3, r8
10004738:	4650      	mov	r0, sl
1000473a:	681b      	ldr	r3, [r3, #0]
1000473c:	2102      	movs	r1, #2
1000473e:	4798      	blx	r3
10004740:	3401      	adds	r4, #1
10004742:	0028      	movs	r0, r5
10004744:	002b      	movs	r3, r5
10004746:	3501      	adds	r5, #1
10004748:	429f      	cmp	r7, r3
1000474a:	dce4      	bgt.n	10004716 <stdio_out_chars_crlf+0x46>
1000474c:	4287      	cmp	r7, r0
1000474e:	dd04      	ble.n	1000475a <stdio_out_chars_crlf+0x8a>
10004750:	4643      	mov	r3, r8
10004752:	1a39      	subs	r1, r7, r0
10004754:	681b      	ldr	r3, [r3, #0]
10004756:	1830      	adds	r0, r6, r0
10004758:	4798      	blx	r3
1000475a:	19f6      	adds	r6, r6, r7
1000475c:	3e01      	subs	r6, #1
1000475e:	7833      	ldrb	r3, [r6, #0]
10004760:	3b0d      	subs	r3, #13
10004762:	425a      	negs	r2, r3
10004764:	4153      	adcs	r3, r2
10004766:	4642      	mov	r2, r8
10004768:	7513      	strb	r3, [r2, #20]
1000476a:	bce0      	pop	{r5, r6, r7}
1000476c:	46ba      	mov	sl, r7
1000476e:	46b1      	mov	r9, r6
10004770:	46a8      	mov	r8, r5
10004772:	bdf0      	pop	{r4, r5, r6, r7, pc}
10004774:	6803      	ldr	r3, [r0, #0]
10004776:	0011      	movs	r1, r2
10004778:	0030      	movs	r0, r6
1000477a:	4798      	blx	r3
1000477c:	e7f5      	b.n	1000476a <stdio_out_chars_crlf+0x9a>
1000477e:	46c0      	nop			; (mov r8, r8)
10004780:	100066e8 	.word	0x100066e8

10004784 <stdio_put_string>:
10004784:	b5f0      	push	{r4, r5, r6, r7, lr}
10004786:	46de      	mov	lr, fp
10004788:	4657      	mov	r7, sl
1000478a:	464e      	mov	r6, r9
1000478c:	4645      	mov	r5, r8
1000478e:	b5e0      	push	{r5, r6, r7, lr}
10004790:	b085      	sub	sp, #20
10004792:	0017      	movs	r7, r2
10004794:	001c      	movs	r4, r3
10004796:	0006      	movs	r6, r0
10004798:	000d      	movs	r5, r1
1000479a:	f7fd f923 	bl	100019e4 <time_us_64>
1000479e:	2300      	movs	r3, #0
100047a0:	4a31      	ldr	r2, [pc, #196]	; (10004868 <stdio_put_string+0xe4>)
100047a2:	1812      	adds	r2, r2, r0
100047a4:	414b      	adcs	r3, r1
100047a6:	2b00      	cmp	r3, #0
100047a8:	db59      	blt.n	1000485e <stdio_put_string+0xda>
100047aa:	4930      	ldr	r1, [pc, #192]	; (1000486c <stdio_put_string+0xe8>)
100047ac:	0008      	movs	r0, r1
100047ae:	468a      	mov	sl, r1
100047b0:	f001 fd16 	bl	100061e0 <__mutex_try_enter_block_until_veneer>
100047b4:	9001      	str	r0, [sp, #4]
100047b6:	1c6b      	adds	r3, r5, #1
100047b8:	d103      	bne.n	100047c2 <stdio_put_string+0x3e>
100047ba:	0030      	movs	r0, r6
100047bc:	f001 fb76 	bl	10005eac <strlen>
100047c0:	0005      	movs	r5, r0
100047c2:	2c00      	cmp	r4, #0
100047c4:	d126      	bne.n	10004814 <stdio_put_string+0x90>
100047c6:	4b2a      	ldr	r3, [pc, #168]	; (10004870 <stdio_put_string+0xec>)
100047c8:	4698      	mov	r8, r3
100047ca:	4b2a      	ldr	r3, [pc, #168]	; (10004874 <stdio_put_string+0xf0>)
100047cc:	681c      	ldr	r4, [r3, #0]
100047ce:	2c00      	cmp	r4, #0
100047d0:	d015      	beq.n	100047fe <stdio_put_string+0x7a>
100047d2:	2f00      	cmp	r7, #0
100047d4:	d121      	bne.n	1000481a <stdio_put_string+0x96>
100047d6:	4f28      	ldr	r7, [pc, #160]	; (10004878 <stdio_put_string+0xf4>)
100047d8:	e002      	b.n	100047e0 <stdio_put_string+0x5c>
100047da:	6924      	ldr	r4, [r4, #16]
100047dc:	2c00      	cmp	r4, #0
100047de:	d00e      	beq.n	100047fe <stdio_put_string+0x7a>
100047e0:	6823      	ldr	r3, [r4, #0]
100047e2:	2b00      	cmp	r3, #0
100047e4:	d0f9      	beq.n	100047da <stdio_put_string+0x56>
100047e6:	683b      	ldr	r3, [r7, #0]
100047e8:	2b00      	cmp	r3, #0
100047ea:	d001      	beq.n	100047f0 <stdio_put_string+0x6c>
100047ec:	42a3      	cmp	r3, r4
100047ee:	d1f4      	bne.n	100047da <stdio_put_string+0x56>
100047f0:	0020      	movs	r0, r4
100047f2:	002a      	movs	r2, r5
100047f4:	0031      	movs	r1, r6
100047f6:	47c0      	blx	r8
100047f8:	6924      	ldr	r4, [r4, #16]
100047fa:	2c00      	cmp	r4, #0
100047fc:	d1f0      	bne.n	100047e0 <stdio_put_string+0x5c>
100047fe:	9b01      	ldr	r3, [sp, #4]
10004800:	2b00      	cmp	r3, #0
10004802:	d128      	bne.n	10004856 <stdio_put_string+0xd2>
10004804:	0028      	movs	r0, r5
10004806:	b005      	add	sp, #20
10004808:	bcf0      	pop	{r4, r5, r6, r7}
1000480a:	46bb      	mov	fp, r7
1000480c:	46b2      	mov	sl, r6
1000480e:	46a9      	mov	r9, r5
10004810:	46a0      	mov	r8, r4
10004812:	bdf0      	pop	{r4, r5, r6, r7, pc}
10004814:	4b19      	ldr	r3, [pc, #100]	; (1000487c <stdio_put_string+0xf8>)
10004816:	4698      	mov	r8, r3
10004818:	e7d7      	b.n	100047ca <stdio_put_string+0x46>
1000481a:	4b17      	ldr	r3, [pc, #92]	; (10004878 <stdio_put_string+0xf4>)
1000481c:	4699      	mov	r9, r3
1000481e:	ab02      	add	r3, sp, #8
10004820:	1ddf      	adds	r7, r3, #7
10004822:	230a      	movs	r3, #10
10004824:	469b      	mov	fp, r3
10004826:	e002      	b.n	1000482e <stdio_put_string+0xaa>
10004828:	6924      	ldr	r4, [r4, #16]
1000482a:	2c00      	cmp	r4, #0
1000482c:	d0e7      	beq.n	100047fe <stdio_put_string+0x7a>
1000482e:	6823      	ldr	r3, [r4, #0]
10004830:	2b00      	cmp	r3, #0
10004832:	d0f9      	beq.n	10004828 <stdio_put_string+0xa4>
10004834:	464b      	mov	r3, r9
10004836:	681b      	ldr	r3, [r3, #0]
10004838:	2b00      	cmp	r3, #0
1000483a:	d001      	beq.n	10004840 <stdio_put_string+0xbc>
1000483c:	42a3      	cmp	r3, r4
1000483e:	d1f3      	bne.n	10004828 <stdio_put_string+0xa4>
10004840:	002a      	movs	r2, r5
10004842:	0031      	movs	r1, r6
10004844:	0020      	movs	r0, r4
10004846:	47c0      	blx	r8
10004848:	465b      	mov	r3, fp
1000484a:	2201      	movs	r2, #1
1000484c:	0039      	movs	r1, r7
1000484e:	0020      	movs	r0, r4
10004850:	703b      	strb	r3, [r7, #0]
10004852:	47c0      	blx	r8
10004854:	e7e8      	b.n	10004828 <stdio_put_string+0xa4>
10004856:	4650      	mov	r0, sl
10004858:	f001 fc92 	bl	10006180 <__mutex_exit_veneer>
1000485c:	e7d2      	b.n	10004804 <stdio_put_string+0x80>
1000485e:	2201      	movs	r2, #1
10004860:	4b07      	ldr	r3, [pc, #28]	; (10004880 <stdio_put_string+0xfc>)
10004862:	4252      	negs	r2, r2
10004864:	e7a1      	b.n	100047aa <stdio_put_string+0x26>
10004866:	46c0      	nop			; (mov r8, r8)
10004868:	000f4240 	.word	0x000f4240
1000486c:	20000cc0 	.word	0x20000cc0
10004870:	100046c1 	.word	0x100046c1
10004874:	20001148 	.word	0x20001148
10004878:	2000115c 	.word	0x2000115c
1000487c:	100046d1 	.word	0x100046d1
10004880:	7fffffff 	.word	0x7fffffff

10004884 <stdio_set_driver_enabled>:
10004884:	4a0a      	ldr	r2, [pc, #40]	; (100048b0 <stdio_set_driver_enabled+0x2c>)
10004886:	6813      	ldr	r3, [r2, #0]
10004888:	2b00      	cmp	r3, #0
1000488a:	d105      	bne.n	10004898 <stdio_set_driver_enabled+0x14>
1000488c:	e00c      	b.n	100048a8 <stdio_set_driver_enabled+0x24>
1000488e:	001a      	movs	r2, r3
10004890:	691b      	ldr	r3, [r3, #16]
10004892:	3210      	adds	r2, #16
10004894:	2b00      	cmp	r3, #0
10004896:	d007      	beq.n	100048a8 <stdio_set_driver_enabled+0x24>
10004898:	4298      	cmp	r0, r3
1000489a:	d1f8      	bne.n	1000488e <stdio_set_driver_enabled+0xa>
1000489c:	2900      	cmp	r1, #0
1000489e:	d102      	bne.n	100048a6 <stdio_set_driver_enabled+0x22>
100048a0:	6903      	ldr	r3, [r0, #16]
100048a2:	6013      	str	r3, [r2, #0]
100048a4:	6101      	str	r1, [r0, #16]
100048a6:	4770      	bx	lr
100048a8:	2900      	cmp	r1, #0
100048aa:	d0fc      	beq.n	100048a6 <stdio_set_driver_enabled+0x22>
100048ac:	6010      	str	r0, [r2, #0]
100048ae:	e7fa      	b.n	100048a6 <stdio_set_driver_enabled+0x22>
100048b0:	20001148 	.word	0x20001148

100048b4 <__wrap_putchar>:
100048b4:	b5f0      	push	{r4, r5, r6, r7, lr}
100048b6:	46ce      	mov	lr, r9
100048b8:	4647      	mov	r7, r8
100048ba:	b580      	push	{r7, lr}
100048bc:	b083      	sub	sp, #12
100048be:	466b      	mov	r3, sp
100048c0:	0006      	movs	r6, r0
100048c2:	1ddd      	adds	r5, r3, #7
100048c4:	7028      	strb	r0, [r5, #0]
100048c6:	f7fd f88d 	bl	100019e4 <time_us_64>
100048ca:	2300      	movs	r3, #0
100048cc:	4a1a      	ldr	r2, [pc, #104]	; (10004938 <__wrap_putchar+0x84>)
100048ce:	1812      	adds	r2, r2, r0
100048d0:	414b      	adcs	r3, r1
100048d2:	2b00      	cmp	r3, #0
100048d4:	db2b      	blt.n	1000492e <__wrap_putchar+0x7a>
100048d6:	4919      	ldr	r1, [pc, #100]	; (1000493c <__wrap_putchar+0x88>)
100048d8:	0008      	movs	r0, r1
100048da:	4688      	mov	r8, r1
100048dc:	f001 fc80 	bl	100061e0 <__mutex_try_enter_block_until_veneer>
100048e0:	4b17      	ldr	r3, [pc, #92]	; (10004940 <__wrap_putchar+0x8c>)
100048e2:	4681      	mov	r9, r0
100048e4:	681c      	ldr	r4, [r3, #0]
100048e6:	2c00      	cmp	r4, #0
100048e8:	d014      	beq.n	10004914 <__wrap_putchar+0x60>
100048ea:	4f16      	ldr	r7, [pc, #88]	; (10004944 <__wrap_putchar+0x90>)
100048ec:	e002      	b.n	100048f4 <__wrap_putchar+0x40>
100048ee:	6924      	ldr	r4, [r4, #16]
100048f0:	2c00      	cmp	r4, #0
100048f2:	d00f      	beq.n	10004914 <__wrap_putchar+0x60>
100048f4:	6823      	ldr	r3, [r4, #0]
100048f6:	2b00      	cmp	r3, #0
100048f8:	d0f9      	beq.n	100048ee <__wrap_putchar+0x3a>
100048fa:	683b      	ldr	r3, [r7, #0]
100048fc:	2b00      	cmp	r3, #0
100048fe:	d001      	beq.n	10004904 <__wrap_putchar+0x50>
10004900:	42a3      	cmp	r3, r4
10004902:	d1f4      	bne.n	100048ee <__wrap_putchar+0x3a>
10004904:	0020      	movs	r0, r4
10004906:	2201      	movs	r2, #1
10004908:	0029      	movs	r1, r5
1000490a:	f7ff fee1 	bl	100046d0 <stdio_out_chars_crlf>
1000490e:	6924      	ldr	r4, [r4, #16]
10004910:	2c00      	cmp	r4, #0
10004912:	d1ef      	bne.n	100048f4 <__wrap_putchar+0x40>
10004914:	464b      	mov	r3, r9
10004916:	2b00      	cmp	r3, #0
10004918:	d105      	bne.n	10004926 <__wrap_putchar+0x72>
1000491a:	0030      	movs	r0, r6
1000491c:	b003      	add	sp, #12
1000491e:	bcc0      	pop	{r6, r7}
10004920:	46b9      	mov	r9, r7
10004922:	46b0      	mov	r8, r6
10004924:	bdf0      	pop	{r4, r5, r6, r7, pc}
10004926:	4640      	mov	r0, r8
10004928:	f001 fc2a 	bl	10006180 <__mutex_exit_veneer>
1000492c:	e7f5      	b.n	1000491a <__wrap_putchar+0x66>
1000492e:	2201      	movs	r2, #1
10004930:	4b05      	ldr	r3, [pc, #20]	; (10004948 <__wrap_putchar+0x94>)
10004932:	4252      	negs	r2, r2
10004934:	e7cf      	b.n	100048d6 <__wrap_putchar+0x22>
10004936:	46c0      	nop			; (mov r8, r8)
10004938:	000f4240 	.word	0x000f4240
1000493c:	20000cc0 	.word	0x20000cc0
10004940:	20001148 	.word	0x20001148
10004944:	2000115c 	.word	0x2000115c
10004948:	7fffffff 	.word	0x7fffffff

1000494c <__wrap_puts>:
1000494c:	b570      	push	{r4, r5, r6, lr}
1000494e:	0004      	movs	r4, r0
10004950:	f001 faac 	bl	10005eac <strlen>
10004954:	2301      	movs	r3, #1
10004956:	0001      	movs	r1, r0
10004958:	0005      	movs	r5, r0
1000495a:	2201      	movs	r2, #1
1000495c:	0020      	movs	r0, r4
1000495e:	f7ff ff11 	bl	10004784 <stdio_put_string>
10004962:	4b08      	ldr	r3, [pc, #32]	; (10004984 <__wrap_puts+0x38>)
10004964:	681c      	ldr	r4, [r3, #0]
10004966:	2c00      	cmp	r4, #0
10004968:	d006      	beq.n	10004978 <__wrap_puts+0x2c>
1000496a:	6863      	ldr	r3, [r4, #4]
1000496c:	2b00      	cmp	r3, #0
1000496e:	d005      	beq.n	1000497c <__wrap_puts+0x30>
10004970:	4798      	blx	r3
10004972:	6924      	ldr	r4, [r4, #16]
10004974:	2c00      	cmp	r4, #0
10004976:	d1f8      	bne.n	1000496a <__wrap_puts+0x1e>
10004978:	0028      	movs	r0, r5
1000497a:	bd70      	pop	{r4, r5, r6, pc}
1000497c:	6924      	ldr	r4, [r4, #16]
1000497e:	2c00      	cmp	r4, #0
10004980:	d1f3      	bne.n	1000496a <__wrap_puts+0x1e>
10004982:	e7f9      	b.n	10004978 <__wrap_puts+0x2c>
10004984:	20001148 	.word	0x20001148

10004988 <stdio_uart_out_chars>:
10004988:	b5f0      	push	{r4, r5, r6, r7, lr}
1000498a:	1e0d      	subs	r5, r1, #0
1000498c:	dd15      	ble.n	100049ba <stdio_uart_out_chars+0x32>
1000498e:	4b0e      	ldr	r3, [pc, #56]	; (100049c8 <stdio_uart_out_chars+0x40>)
10004990:	270d      	movs	r7, #13
10004992:	681a      	ldr	r2, [r3, #0]
10004994:	4b0d      	ldr	r3, [pc, #52]	; (100049cc <stdio_uart_out_chars+0x44>)
10004996:	1945      	adds	r5, r0, r5
10004998:	18d3      	adds	r3, r2, r3
1000499a:	4259      	negs	r1, r3
1000499c:	414b      	adcs	r3, r1
1000499e:	490c      	ldr	r1, [pc, #48]	; (100049d0 <stdio_uart_out_chars+0x48>)
100049a0:	005b      	lsls	r3, r3, #1
100049a2:	5e5e      	ldrsh	r6, [r3, r1]
100049a4:	2120      	movs	r1, #32
100049a6:	7804      	ldrb	r4, [r0, #0]
100049a8:	42a6      	cmp	r6, r4
100049aa:	d007      	beq.n	100049bc <stdio_uart_out_chars+0x34>
100049ac:	6993      	ldr	r3, [r2, #24]
100049ae:	4219      	tst	r1, r3
100049b0:	d1fc      	bne.n	100049ac <stdio_uart_out_chars+0x24>
100049b2:	3001      	adds	r0, #1
100049b4:	6014      	str	r4, [r2, #0]
100049b6:	42a8      	cmp	r0, r5
100049b8:	d1f5      	bne.n	100049a6 <stdio_uart_out_chars+0x1e>
100049ba:	bdf0      	pop	{r4, r5, r6, r7, pc}
100049bc:	6993      	ldr	r3, [r2, #24]
100049be:	4219      	tst	r1, r3
100049c0:	d1fc      	bne.n	100049bc <stdio_uart_out_chars+0x34>
100049c2:	6017      	str	r7, [r2, #0]
100049c4:	e7f2      	b.n	100049ac <stdio_uart_out_chars+0x24>
100049c6:	46c0      	nop			; (mov r8, r8)
100049c8:	200011d0 	.word	0x200011d0
100049cc:	bffc8000 	.word	0xbffc8000
100049d0:	200011cc 	.word	0x200011cc

100049d4 <stdio_uart_in_chars>:
100049d4:	b530      	push	{r4, r5, lr}
100049d6:	0004      	movs	r4, r0
100049d8:	1e0d      	subs	r5, r1, #0
100049da:	dd24      	ble.n	10004a26 <stdio_uart_in_chars+0x52>
100049dc:	2000      	movs	r0, #0
100049de:	2110      	movs	r1, #16
100049e0:	4b1a      	ldr	r3, [pc, #104]	; (10004a4c <stdio_uart_in_chars+0x78>)
100049e2:	3c01      	subs	r4, #1
100049e4:	681a      	ldr	r2, [r3, #0]
100049e6:	6993      	ldr	r3, [r2, #24]
100049e8:	4219      	tst	r1, r3
100049ea:	d117      	bne.n	10004a1c <stdio_uart_in_chars+0x48>
100049ec:	3001      	adds	r0, #1
100049ee:	6993      	ldr	r3, [r2, #24]
100049f0:	4219      	tst	r1, r3
100049f2:	d1fc      	bne.n	100049ee <stdio_uart_in_chars+0x1a>
100049f4:	6813      	ldr	r3, [r2, #0]
100049f6:	5423      	strb	r3, [r4, r0]
100049f8:	4285      	cmp	r5, r0
100049fa:	d1f4      	bne.n	100049e6 <stdio_uart_in_chars+0x12>
100049fc:	4b14      	ldr	r3, [pc, #80]	; (10004a50 <stdio_uart_in_chars+0x7c>)
100049fe:	681b      	ldr	r3, [r3, #0]
10004a00:	2b00      	cmp	r3, #0
10004a02:	d00a      	beq.n	10004a1a <stdio_uart_in_chars+0x46>
10004a04:	2350      	movs	r3, #80	; 0x50
10004a06:	6393      	str	r3, [r2, #56]	; 0x38
10004a08:	6b51      	ldr	r1, [r2, #52]	; 0x34
10004a0a:	3b18      	subs	r3, #24
10004a0c:	400b      	ands	r3, r1
10004a0e:	4911      	ldr	r1, [pc, #68]	; (10004a54 <stdio_uart_in_chars+0x80>)
10004a10:	468c      	mov	ip, r1
10004a12:	4462      	add	r2, ip
10004a14:	6013      	str	r3, [r2, #0]
10004a16:	2800      	cmp	r0, #0
10004a18:	d014      	beq.n	10004a44 <stdio_uart_in_chars+0x70>
10004a1a:	bd30      	pop	{r4, r5, pc}
10004a1c:	4b0c      	ldr	r3, [pc, #48]	; (10004a50 <stdio_uart_in_chars+0x7c>)
10004a1e:	681b      	ldr	r3, [r3, #0]
10004a20:	2b00      	cmp	r3, #0
10004a22:	d1ef      	bne.n	10004a04 <stdio_uart_in_chars+0x30>
10004a24:	e7f7      	b.n	10004a16 <stdio_uart_in_chars+0x42>
10004a26:	4b0a      	ldr	r3, [pc, #40]	; (10004a50 <stdio_uart_in_chars+0x7c>)
10004a28:	681b      	ldr	r3, [r3, #0]
10004a2a:	2b00      	cmp	r3, #0
10004a2c:	d00a      	beq.n	10004a44 <stdio_uart_in_chars+0x70>
10004a2e:	2250      	movs	r2, #80	; 0x50
10004a30:	4b06      	ldr	r3, [pc, #24]	; (10004a4c <stdio_uart_in_chars+0x78>)
10004a32:	681b      	ldr	r3, [r3, #0]
10004a34:	639a      	str	r2, [r3, #56]	; 0x38
10004a36:	6b59      	ldr	r1, [r3, #52]	; 0x34
10004a38:	3a18      	subs	r2, #24
10004a3a:	400a      	ands	r2, r1
10004a3c:	4905      	ldr	r1, [pc, #20]	; (10004a54 <stdio_uart_in_chars+0x80>)
10004a3e:	468c      	mov	ip, r1
10004a40:	4463      	add	r3, ip
10004a42:	601a      	str	r2, [r3, #0]
10004a44:	2003      	movs	r0, #3
10004a46:	4240      	negs	r0, r0
10004a48:	e7e7      	b.n	10004a1a <stdio_uart_in_chars+0x46>
10004a4a:	46c0      	nop			; (mov r8, r8)
10004a4c:	200011d0 	.word	0x200011d0
10004a50:	2000110c 	.word	0x2000110c
10004a54:	00001034 	.word	0x00001034

10004a58 <on_uart_rx>:
10004a58:	4b06      	ldr	r3, [pc, #24]	; (10004a74 <on_uart_rx+0x1c>)
10004a5a:	b510      	push	{r4, lr}
10004a5c:	681b      	ldr	r3, [r3, #0]
10004a5e:	2b00      	cmp	r3, #0
10004a60:	d006      	beq.n	10004a70 <on_uart_rx+0x18>
10004a62:	2100      	movs	r1, #0
10004a64:	4a04      	ldr	r2, [pc, #16]	; (10004a78 <on_uart_rx+0x20>)
10004a66:	6812      	ldr	r2, [r2, #0]
10004a68:	6391      	str	r1, [r2, #56]	; 0x38
10004a6a:	4a04      	ldr	r2, [pc, #16]	; (10004a7c <on_uart_rx+0x24>)
10004a6c:	6810      	ldr	r0, [r2, #0]
10004a6e:	4798      	blx	r3
10004a70:	bd10      	pop	{r4, pc}
10004a72:	46c0      	nop			; (mov r8, r8)
10004a74:	2000110c 	.word	0x2000110c
10004a78:	200011d0 	.word	0x200011d0
10004a7c:	20001110 	.word	0x20001110

10004a80 <stdio_uart_out_flush>:
10004a80:	2208      	movs	r2, #8
10004a82:	4b03      	ldr	r3, [pc, #12]	; (10004a90 <stdio_uart_out_flush+0x10>)
10004a84:	6819      	ldr	r1, [r3, #0]
10004a86:	698b      	ldr	r3, [r1, #24]
10004a88:	421a      	tst	r2, r3
10004a8a:	d1fc      	bne.n	10004a86 <stdio_uart_out_flush+0x6>
10004a8c:	4770      	bx	lr
10004a8e:	46c0      	nop			; (mov r8, r8)
10004a90:	200011d0 	.word	0x200011d0

10004a94 <stdio_uart_set_chars_available_callback>:
10004a94:	b570      	push	{r4, r5, r6, lr}
10004a96:	4e1b      	ldr	r6, [pc, #108]	; (10004b04 <stdio_uart_set_chars_available_callback+0x70>)
10004a98:	4b1b      	ldr	r3, [pc, #108]	; (10004b08 <stdio_uart_set_chars_available_callback+0x74>)
10004a9a:	6832      	ldr	r2, [r6, #0]
10004a9c:	0005      	movs	r5, r0
10004a9e:	18d3      	adds	r3, r2, r3
10004aa0:	4258      	negs	r0, r3
10004aa2:	4143      	adcs	r3, r0
10004aa4:	3314      	adds	r3, #20
10004aa6:	001c      	movs	r4, r3
10004aa8:	2d00      	cmp	r5, #0
10004aaa:	d004      	beq.n	10004ab6 <stdio_uart_set_chars_available_callback+0x22>
10004aac:	4b17      	ldr	r3, [pc, #92]	; (10004b0c <stdio_uart_set_chars_available_callback+0x78>)
10004aae:	681a      	ldr	r2, [r3, #0]
10004ab0:	2a00      	cmp	r2, #0
10004ab2:	d011      	beq.n	10004ad8 <stdio_uart_set_chars_available_callback+0x44>
10004ab4:	bd70      	pop	{r4, r5, r6, pc}
10004ab6:	4e15      	ldr	r6, [pc, #84]	; (10004b0c <stdio_uart_set_chars_available_callback+0x78>)
10004ab8:	6833      	ldr	r3, [r6, #0]
10004aba:	2b00      	cmp	r3, #0
10004abc:	d0fa      	beq.n	10004ab4 <stdio_uart_set_chars_available_callback+0x20>
10004abe:	2100      	movs	r1, #0
10004ac0:	0020      	movs	r0, r4
10004ac2:	6395      	str	r5, [r2, #56]	; 0x38
10004ac4:	f7fb ffb8 	bl	10000a38 <irq_set_enabled>
10004ac8:	0020      	movs	r0, r4
10004aca:	4911      	ldr	r1, [pc, #68]	; (10004b10 <stdio_uart_set_chars_available_callback+0x7c>)
10004acc:	f7fc f920 	bl	10000d10 <irq_remove_handler>
10004ad0:	4b10      	ldr	r3, [pc, #64]	; (10004b14 <stdio_uart_set_chars_available_callback+0x80>)
10004ad2:	6035      	str	r5, [r6, #0]
10004ad4:	601d      	str	r5, [r3, #0]
10004ad6:	e7ed      	b.n	10004ab4 <stdio_uart_set_chars_available_callback+0x20>
10004ad8:	601d      	str	r5, [r3, #0]
10004ada:	4b0e      	ldr	r3, [pc, #56]	; (10004b14 <stdio_uart_set_chars_available_callback+0x80>)
10004adc:	0020      	movs	r0, r4
10004ade:	6019      	str	r1, [r3, #0]
10004ae0:	490b      	ldr	r1, [pc, #44]	; (10004b10 <stdio_uart_set_chars_available_callback+0x7c>)
10004ae2:	f7fb ffcf 	bl	10000a84 <irq_set_exclusive_handler>
10004ae6:	2101      	movs	r1, #1
10004ae8:	0020      	movs	r0, r4
10004aea:	f7fb ffa5 	bl	10000a38 <irq_set_enabled>
10004aee:	2250      	movs	r2, #80	; 0x50
10004af0:	6833      	ldr	r3, [r6, #0]
10004af2:	639a      	str	r2, [r3, #56]	; 0x38
10004af4:	6b59      	ldr	r1, [r3, #52]	; 0x34
10004af6:	3a18      	subs	r2, #24
10004af8:	400a      	ands	r2, r1
10004afa:	4907      	ldr	r1, [pc, #28]	; (10004b18 <stdio_uart_set_chars_available_callback+0x84>)
10004afc:	468c      	mov	ip, r1
10004afe:	4463      	add	r3, ip
10004b00:	601a      	str	r2, [r3, #0]
10004b02:	e7d7      	b.n	10004ab4 <stdio_uart_set_chars_available_callback+0x20>
10004b04:	200011d0 	.word	0x200011d0
10004b08:	bffc8000 	.word	0xbffc8000
10004b0c:	2000110c 	.word	0x2000110c
10004b10:	10004a59 	.word	0x10004a59
10004b14:	20001110 	.word	0x20001110
10004b18:	00001034 	.word	0x00001034

10004b1c <stdio_uart_init>:
10004b1c:	4b0d      	ldr	r3, [pc, #52]	; (10004b54 <stdio_uart_init+0x38>)
10004b1e:	b510      	push	{r4, lr}
10004b20:	781b      	ldrb	r3, [r3, #0]
10004b22:	4b0d      	ldr	r3, [pc, #52]	; (10004b58 <stdio_uart_init+0x3c>)
10004b24:	4c0d      	ldr	r4, [pc, #52]	; (10004b5c <stdio_uart_init+0x40>)
10004b26:	781b      	ldrb	r3, [r3, #0]
10004b28:	4b0d      	ldr	r3, [pc, #52]	; (10004b60 <stdio_uart_init+0x44>)
10004b2a:	2102      	movs	r1, #2
10004b2c:	781b      	ldrb	r3, [r3, #0]
10004b2e:	4b0d      	ldr	r3, [pc, #52]	; (10004b64 <stdio_uart_init+0x48>)
10004b30:	2000      	movs	r0, #0
10004b32:	6023      	str	r3, [r4, #0]
10004b34:	f7fb fe66 	bl	10000804 <gpio_set_function>
10004b38:	2102      	movs	r1, #2
10004b3a:	2001      	movs	r0, #1
10004b3c:	f7fb fe62 	bl	10000804 <gpio_set_function>
10004b40:	21e1      	movs	r1, #225	; 0xe1
10004b42:	6820      	ldr	r0, [r4, #0]
10004b44:	0249      	lsls	r1, r1, #9
10004b46:	f7fd f81b 	bl	10001b80 <uart_init>
10004b4a:	2101      	movs	r1, #1
10004b4c:	4806      	ldr	r0, [pc, #24]	; (10004b68 <stdio_uart_init+0x4c>)
10004b4e:	f7ff fe99 	bl	10004884 <stdio_set_driver_enabled>
10004b52:	bd10      	pop	{r4, pc}
10004b54:	100067d0 	.word	0x100067d0
10004b58:	100067d4 	.word	0x100067d4
10004b5c:	200011d0 	.word	0x200011d0
10004b60:	100067d8 	.word	0x100067d8
10004b64:	40034000 	.word	0x40034000
10004b68:	20000460 	.word	0x20000460

10004b6c <core1_trampoline>:
10004b6c:	bd03      	pop	{r0, r1, pc}
10004b6e:	46c0      	nop			; (mov r8, r8)

10004b70 <core1_wrapper>:
10004b70:	b510      	push	{r4, lr}
10004b72:	0004      	movs	r4, r0
10004b74:	f7fd fa52 	bl	1000201c <runtime_run_per_core_initializers>
10004b78:	47a0      	blx	r4
10004b7a:	bd10      	pop	{r4, pc}

10004b7c <multicore_launch_core1_raw>:
10004b7c:	b5f0      	push	{r4, r5, r6, r7, lr}
10004b7e:	0004      	movs	r4, r0
10004b80:	b087      	sub	sp, #28
10004b82:	200f      	movs	r0, #15
10004b84:	000e      	movs	r6, r1
10004b86:	0017      	movs	r7, r2
10004b88:	f7fb ff68 	bl	10000a5c <irq_is_enabled>
10004b8c:	2100      	movs	r1, #0
10004b8e:	0005      	movs	r5, r0
10004b90:	200f      	movs	r0, #15
10004b92:	f7fb ff51 	bl	10000a38 <irq_set_enabled>
10004b96:	2300      	movs	r3, #0
10004b98:	2200      	movs	r2, #0
10004b9a:	9200      	str	r2, [sp, #0]
10004b9c:	9301      	str	r3, [sp, #4]
10004b9e:	2301      	movs	r3, #1
10004ba0:	9302      	str	r3, [sp, #8]
10004ba2:	23d0      	movs	r3, #208	; 0xd0
10004ba4:	9604      	str	r6, [sp, #16]
10004ba6:	9405      	str	r4, [sp, #20]
10004ba8:	2600      	movs	r6, #0
10004baa:	2400      	movs	r4, #0
10004bac:	2101      	movs	r1, #1
10004bae:	2002      	movs	r0, #2
10004bb0:	9703      	str	r7, [sp, #12]
10004bb2:	061b      	lsls	r3, r3, #24
10004bb4:	2c00      	cmp	r4, #0
10004bb6:	d014      	beq.n	10004be2 <multicore_launch_core1_raw+0x66>
10004bb8:	6d1a      	ldr	r2, [r3, #80]	; 0x50
10004bba:	4210      	tst	r0, r2
10004bbc:	d0fc      	beq.n	10004bb8 <multicore_launch_core1_raw+0x3c>
10004bbe:	655c      	str	r4, [r3, #84]	; 0x54
10004bc0:	bf40      	sev
10004bc2:	6d1a      	ldr	r2, [r3, #80]	; 0x50
10004bc4:	4211      	tst	r1, r2
10004bc6:	d103      	bne.n	10004bd0 <multicore_launch_core1_raw+0x54>
10004bc8:	bf20      	wfe
10004bca:	6d1a      	ldr	r2, [r3, #80]	; 0x50
10004bcc:	4211      	tst	r1, r2
10004bce:	d0fb      	beq.n	10004bc8 <multicore_launch_core1_raw+0x4c>
10004bd0:	6d9a      	ldr	r2, [r3, #88]	; 0x58
10004bd2:	42a2      	cmp	r2, r4
10004bd4:	d00a      	beq.n	10004bec <multicore_launch_core1_raw+0x70>
10004bd6:	2600      	movs	r6, #0
10004bd8:	466c      	mov	r4, sp
10004bda:	00b2      	lsls	r2, r6, #2
10004bdc:	58a4      	ldr	r4, [r4, r2]
10004bde:	e7e9      	b.n	10004bb4 <multicore_launch_core1_raw+0x38>
10004be0:	6d9a      	ldr	r2, [r3, #88]	; 0x58
10004be2:	6d1a      	ldr	r2, [r3, #80]	; 0x50
10004be4:	4211      	tst	r1, r2
10004be6:	d1fb      	bne.n	10004be0 <multicore_launch_core1_raw+0x64>
10004be8:	bf40      	sev
10004bea:	e7e5      	b.n	10004bb8 <multicore_launch_core1_raw+0x3c>
10004bec:	3601      	adds	r6, #1
10004bee:	2e05      	cmp	r6, #5
10004bf0:	d9f2      	bls.n	10004bd8 <multicore_launch_core1_raw+0x5c>
10004bf2:	0029      	movs	r1, r5
10004bf4:	200f      	movs	r0, #15
10004bf6:	f7fb ff1f 	bl	10000a38 <irq_set_enabled>
10004bfa:	b007      	add	sp, #28
10004bfc:	bdf0      	pop	{r4, r5, r6, r7, pc}
10004bfe:	46c0      	nop			; (mov r8, r8)

10004c00 <multicore_launch_core1>:
10004c00:	4b0b      	ldr	r3, [pc, #44]	; (10004c30 <multicore_launch_core1+0x30>)
10004c02:	4a0c      	ldr	r2, [pc, #48]	; (10004c34 <multicore_launch_core1+0x34>)
10004c04:	b510      	push	{r4, lr}
10004c06:	4293      	cmp	r3, r2
10004c08:	d201      	bcs.n	10004c0e <multicore_launch_core1+0xe>
10004c0a:	2301      	movs	r3, #1
10004c0c:	425b      	negs	r3, r3
10004c0e:	4c0a      	ldr	r4, [pc, #40]	; (10004c38 <multicore_launch_core1+0x38>)
10004c10:	4a0a      	ldr	r2, [pc, #40]	; (10004c3c <multicore_launch_core1+0x3c>)
10004c12:	0019      	movs	r1, r3
10004c14:	6892      	ldr	r2, [r2, #8]
10004c16:	5118      	str	r0, [r3, r4]
10004c18:	20ff      	movs	r0, #255	; 0xff
10004c1a:	46a4      	mov	ip, r4
10004c1c:	00c0      	lsls	r0, r0, #3
10004c1e:	501b      	str	r3, [r3, r0]
10004c20:	4b07      	ldr	r3, [pc, #28]	; (10004c40 <multicore_launch_core1+0x40>)
10004c22:	4808      	ldr	r0, [pc, #32]	; (10004c44 <multicore_launch_core1+0x44>)
10004c24:	50c8      	str	r0, [r1, r3]
10004c26:	4808      	ldr	r0, [pc, #32]	; (10004c48 <multicore_launch_core1+0x48>)
10004c28:	4461      	add	r1, ip
10004c2a:	f7ff ffa7 	bl	10004b7c <multicore_launch_core1_raw>
10004c2e:	bd10      	pop	{r4, pc}
10004c30:	20040800 	.word	0x20040800
10004c34:	20040000 	.word	0x20040000
10004c38:	000007f4 	.word	0x000007f4
10004c3c:	e000ed00 	.word	0xe000ed00
10004c40:	000007fc 	.word	0x000007fc
10004c44:	10004b71 	.word	0x10004b71
10004c48:	10004b6d 	.word	0x10004b6d

10004c4c <pio_sm_set_consecutive_pindirs>:
10004c4c:	b5f0      	push	{r4, r5, r6, r7, lr}
10004c4e:	464e      	mov	r6, r9
10004c50:	4645      	mov	r5, r8
10004c52:	46de      	mov	lr, fp
10004c54:	4657      	mov	r7, sl
10004c56:	b5e0      	push	{r5, r6, r7, lr}
10004c58:	b083      	sub	sp, #12
10004c5a:	4689      	mov	r9, r1
10004c5c:	a90c      	add	r1, sp, #48	; 0x30
10004c5e:	780d      	ldrb	r5, [r1, #0]
10004c60:	9001      	str	r0, [sp, #4]
10004c62:	2a1f      	cmp	r2, #31
10004c64:	d848      	bhi.n	10004cf8 <pio_sm_set_consecutive_pindirs+0xac>
10004c66:	4649      	mov	r1, r9
10004c68:	0049      	lsls	r1, r1, #1
10004c6a:	4688      	mov	r8, r1
10004c6c:	4449      	add	r1, r9
10004c6e:	00c9      	lsls	r1, r1, #3
10004c70:	1846      	adds	r6, r0, r1
10004c72:	0037      	movs	r7, r6
10004c74:	0034      	movs	r4, r6
10004c76:	37dc      	adds	r7, #220	; 0xdc
10004c78:	6838      	ldr	r0, [r7, #0]
10004c7a:	34cc      	adds	r4, #204	; 0xcc
10004c7c:	4683      	mov	fp, r0
10004c7e:	6820      	ldr	r0, [r4, #0]
10004c80:	0031      	movs	r1, r6
10004c82:	4682      	mov	sl, r0
10004c84:	481e      	ldr	r0, [pc, #120]	; (10004d00 <pio_sm_set_consecutive_pindirs+0xb4>)
10004c86:	2480      	movs	r4, #128	; 0x80
10004c88:	4684      	mov	ip, r0
10004c8a:	02a4      	lsls	r4, r4, #10
10004c8c:	4461      	add	r1, ip
10004c8e:	600c      	str	r4, [r1, #0]
10004c90:	1e69      	subs	r1, r5, #1
10004c92:	418d      	sbcs	r5, r1
10004c94:	211f      	movs	r1, #31
10004c96:	426d      	negs	r5, r5
10004c98:	400d      	ands	r5, r1
10004c9a:	491a      	ldr	r1, [pc, #104]	; (10004d04 <pio_sm_set_consecutive_pindirs+0xb8>)
10004c9c:	468c      	mov	ip, r1
10004c9e:	4465      	add	r5, ip
10004ca0:	2b05      	cmp	r3, #5
10004ca2:	d90e      	bls.n	10004cc2 <pio_sm_set_consecutive_pindirs+0x76>
10004ca4:	21a0      	movs	r1, #160	; 0xa0
10004ca6:	0549      	lsls	r1, r1, #21
10004ca8:	468c      	mov	ip, r1
10004caa:	211f      	movs	r1, #31
10004cac:	36d8      	adds	r6, #216	; 0xd8
10004cae:	4660      	mov	r0, ip
10004cb0:	0154      	lsls	r4, r2, #5
10004cb2:	4304      	orrs	r4, r0
10004cb4:	3205      	adds	r2, #5
10004cb6:	3b05      	subs	r3, #5
10004cb8:	603c      	str	r4, [r7, #0]
10004cba:	400a      	ands	r2, r1
10004cbc:	6035      	str	r5, [r6, #0]
10004cbe:	2b05      	cmp	r3, #5
10004cc0:	d8f5      	bhi.n	10004cae <pio_sm_set_consecutive_pindirs+0x62>
10004cc2:	4641      	mov	r1, r8
10004cc4:	0152      	lsls	r2, r2, #5
10004cc6:	069b      	lsls	r3, r3, #26
10004cc8:	4313      	orrs	r3, r2
10004cca:	4449      	add	r1, r9
10004ccc:	9a01      	ldr	r2, [sp, #4]
10004cce:	00c9      	lsls	r1, r1, #3
10004cd0:	1850      	adds	r0, r2, r1
10004cd2:	0002      	movs	r2, r0
10004cd4:	32dc      	adds	r2, #220	; 0xdc
10004cd6:	6013      	str	r3, [r2, #0]
10004cd8:	0003      	movs	r3, r0
10004cda:	33d8      	adds	r3, #216	; 0xd8
10004cdc:	601d      	str	r5, [r3, #0]
10004cde:	465b      	mov	r3, fp
10004ce0:	6013      	str	r3, [r2, #0]
10004ce2:	4653      	mov	r3, sl
10004ce4:	30cc      	adds	r0, #204	; 0xcc
10004ce6:	6003      	str	r3, [r0, #0]
10004ce8:	2000      	movs	r0, #0
10004cea:	b003      	add	sp, #12
10004cec:	bcf0      	pop	{r4, r5, r6, r7}
10004cee:	46bb      	mov	fp, r7
10004cf0:	46b2      	mov	sl, r6
10004cf2:	46a9      	mov	r9, r5
10004cf4:	46a0      	mov	r8, r4
10004cf6:	bdf0      	pop	{r4, r5, r6, r7, pc}
10004cf8:	2005      	movs	r0, #5
10004cfa:	4240      	negs	r0, r0
10004cfc:	e7f5      	b.n	10004cea <pio_sm_set_consecutive_pindirs+0x9e>
10004cfe:	46c0      	nop			; (mov r8, r8)
10004d00:	000030cc 	.word	0x000030cc
10004d04:	0000e080 	.word	0x0000e080

10004d08 <pio_sm_init>:
10004d08:	b5f0      	push	{r4, r5, r6, r7, lr}
10004d0a:	2401      	movs	r4, #1
10004d0c:	408c      	lsls	r4, r1
10004d0e:	001d      	movs	r5, r3
10004d10:	6803      	ldr	r3, [r0, #0]
10004d12:	43a3      	bics	r3, r4
10004d14:	6003      	str	r3, [r0, #0]
10004d16:	004b      	lsls	r3, r1, #1
10004d18:	185c      	adds	r4, r3, r1
10004d1a:	00e4      	lsls	r4, r4, #3
10004d1c:	1904      	adds	r4, r0, r4
10004d1e:	0026      	movs	r6, r4
10004d20:	36c8      	adds	r6, #200	; 0xc8
10004d22:	2d00      	cmp	r5, #0
10004d24:	d028      	beq.n	10004d78 <pio_sm_init+0x70>
10004d26:	682f      	ldr	r7, [r5, #0]
10004d28:	34dc      	adds	r4, #220	; 0xdc
10004d2a:	6037      	str	r7, [r6, #0]
10004d2c:	68af      	ldr	r7, [r5, #8]
10004d2e:	3604      	adds	r6, #4
10004d30:	6077      	str	r7, [r6, #4]
10004d32:	686f      	ldr	r7, [r5, #4]
10004d34:	68ed      	ldr	r5, [r5, #12]
10004d36:	6037      	str	r7, [r6, #0]
10004d38:	6025      	str	r5, [r4, #0]
10004d3a:	4d16      	ldr	r5, [pc, #88]	; (10004d94 <pio_sm_init+0x8c>)
10004d3c:	185b      	adds	r3, r3, r1
10004d3e:	46ac      	mov	ip, r5
10004d40:	2580      	movs	r5, #128	; 0x80
10004d42:	00db      	lsls	r3, r3, #3
10004d44:	18c4      	adds	r4, r0, r3
10004d46:	4464      	add	r4, ip
10004d48:	062d      	lsls	r5, r5, #24
10004d4a:	6025      	str	r5, [r4, #0]
10004d4c:	6025      	str	r5, [r4, #0]
10004d4e:	4c12      	ldr	r4, [pc, #72]	; (10004d98 <pio_sm_init+0x90>)
10004d50:	1d0d      	adds	r5, r1, #4
10004d52:	408c      	lsls	r4, r1
10004d54:	6084      	str	r4, [r0, #8]
10004d56:	2401      	movs	r4, #1
10004d58:	0026      	movs	r6, r4
10004d5a:	40ae      	lsls	r6, r5
10004d5c:	2580      	movs	r5, #128	; 0x80
10004d5e:	3108      	adds	r1, #8
10004d60:	408c      	lsls	r4, r1
10004d62:	211f      	movs	r1, #31
10004d64:	01ad      	lsls	r5, r5, #6
10004d66:	1945      	adds	r5, r0, r5
10004d68:	18c0      	adds	r0, r0, r3
10004d6a:	400a      	ands	r2, r1
10004d6c:	30d8      	adds	r0, #216	; 0xd8
10004d6e:	602e      	str	r6, [r5, #0]
10004d70:	602c      	str	r4, [r5, #0]
10004d72:	6002      	str	r2, [r0, #0]
10004d74:	2000      	movs	r0, #0
10004d76:	bdf0      	pop	{r4, r5, r6, r7, pc}
10004d78:	2780      	movs	r7, #128	; 0x80
10004d7a:	027f      	lsls	r7, r7, #9
10004d7c:	6037      	str	r7, [r6, #0]
10004d7e:	27c0      	movs	r7, #192	; 0xc0
10004d80:	033f      	lsls	r7, r7, #12
10004d82:	60b7      	str	r7, [r6, #8]
10004d84:	27f8      	movs	r7, #248	; 0xf8
10004d86:	3604      	adds	r6, #4
10004d88:	027f      	lsls	r7, r7, #9
10004d8a:	34dc      	adds	r4, #220	; 0xdc
10004d8c:	6037      	str	r7, [r6, #0]
10004d8e:	6025      	str	r5, [r4, #0]
10004d90:	e7d3      	b.n	10004d3a <pio_sm_init+0x32>
10004d92:	46c0      	nop			; (mov r8, r8)
10004d94:	000010d0 	.word	0x000010d0
10004d98:	01010101 	.word	0x01010101

10004d9c <pio_claim_free_sm_and_add_program_for_gpio_range>:
10004d9c:	b5f0      	push	{r4, r5, r6, r7, lr}
10004d9e:	4657      	mov	r7, sl
10004da0:	4645      	mov	r5, r8
10004da2:	46de      	mov	lr, fp
10004da4:	464e      	mov	r6, r9
10004da6:	b5e0      	push	{r5, r6, r7, lr}
10004da8:	000d      	movs	r5, r1
10004daa:	b089      	sub	sp, #36	; 0x24
10004dac:	4c58      	ldr	r4, [pc, #352]	; (10004f10 <pio_claim_free_sm_and_add_program_for_gpio_range+0x174>)
10004dae:	4f59      	ldr	r7, [pc, #356]	; (10004f14 <pio_claim_free_sm_and_add_program_for_gpio_range+0x178>)
10004db0:	9003      	str	r0, [sp, #12]
10004db2:	9205      	str	r2, [sp, #20]
10004db4:	9306      	str	r3, [sp, #24]
10004db6:	4b58      	ldr	r3, [pc, #352]	; (10004f18 <pio_claim_free_sm_and_add_program_for_gpio_range+0x17c>)
10004db8:	4a58      	ldr	r2, [pc, #352]	; (10004f1c <pio_claim_free_sm_and_add_program_for_gpio_range+0x180>)
10004dba:	18e6      	adds	r6, r4, r3
10004dbc:	0d36      	lsrs	r6, r6, #20
10004dbe:	00b6      	lsls	r6, r6, #2
10004dc0:	602c      	str	r4, [r5, #0]
10004dc2:	2100      	movs	r1, #0
10004dc4:	9200      	str	r2, [sp, #0]
10004dc6:	0038      	movs	r0, r7
10004dc8:	0032      	movs	r2, r6
10004dca:	1cf3      	adds	r3, r6, #3
10004dcc:	f7fb fd9e 	bl	1000090c <hw_claim_unused_from_range>
10004dd0:	42b0      	cmp	r0, r6
10004dd2:	db38      	blt.n	10004e46 <pio_claim_free_sm_and_add_program_for_gpio_range+0xaa>
10004dd4:	1b80      	subs	r0, r0, r6
10004dd6:	b243      	sxtb	r3, r0
10004dd8:	4698      	mov	r8, r3
10004dda:	0603      	lsls	r3, r0, #24
10004ddc:	d433      	bmi.n	10004e46 <pio_claim_free_sm_and_add_program_for_gpio_range+0xaa>
10004dde:	f7fb fd5d 	bl	1000089c <hw_claim_lock>
10004de2:	682b      	ldr	r3, [r5, #0]
10004de4:	494e      	ldr	r1, [pc, #312]	; (10004f20 <pio_claim_free_sm_and_add_program_for_gpio_range+0x184>)
10004de6:	4699      	mov	r9, r3
10004de8:	9b03      	ldr	r3, [sp, #12]
10004dea:	2601      	movs	r6, #1
10004dec:	791a      	ldrb	r2, [r3, #4]
10004dee:	4694      	mov	ip, r2
10004df0:	2205      	movs	r2, #5
10004df2:	569a      	ldrsb	r2, [r3, r2]
10004df4:	4b48      	ldr	r3, [pc, #288]	; (10004f18 <pio_claim_free_sm_and_add_program_for_gpio_range+0x17c>)
10004df6:	444b      	add	r3, r9
10004df8:	0d1b      	lsrs	r3, r3, #20
10004dfa:	009b      	lsls	r3, r3, #2
10004dfc:	58c9      	ldr	r1, [r1, r3]
10004dfe:	468a      	mov	sl, r1
10004e00:	4661      	mov	r1, ip
10004e02:	408e      	lsls	r6, r1
10004e04:	1e71      	subs	r1, r6, #1
10004e06:	9104      	str	r1, [sp, #16]
10004e08:	2a00      	cmp	r2, #0
10004e0a:	db68      	blt.n	10004ede <pio_claim_free_sm_and_add_program_for_gpio_range+0x142>
10004e0c:	2120      	movs	r1, #32
10004e0e:	4666      	mov	r6, ip
10004e10:	1b89      	subs	r1, r1, r6
10004e12:	428a      	cmp	r2, r1
10004e14:	dc0b      	bgt.n	10004e2e <pio_claim_free_sm_and_add_program_for_gpio_range+0x92>
10004e16:	9904      	ldr	r1, [sp, #16]
10004e18:	4656      	mov	r6, sl
10004e1a:	4091      	lsls	r1, r2
10004e1c:	420e      	tst	r6, r1
10004e1e:	d106      	bne.n	10004e2e <pio_claim_free_sm_and_add_program_for_gpio_range+0x92>
10004e20:	9903      	ldr	r1, [sp, #12]
10004e22:	9207      	str	r2, [sp, #28]
10004e24:	680a      	ldr	r2, [r1, #0]
10004e26:	7989      	ldrb	r1, [r1, #6]
10004e28:	4693      	mov	fp, r2
10004e2a:	2900      	cmp	r1, #0
10004e2c:	d026      	beq.n	10004e7c <pio_claim_free_sm_and_add_program_for_gpio_range+0xe0>
10004e2e:	f7fb fd41 	bl	100008b4 <hw_claim_unlock>
10004e32:	4b39      	ldr	r3, [pc, #228]	; (10004f18 <pio_claim_free_sm_and_add_program_for_gpio_range+0x17c>)
10004e34:	6829      	ldr	r1, [r5, #0]
10004e36:	469c      	mov	ip, r3
10004e38:	4461      	add	r1, ip
10004e3a:	0d09      	lsrs	r1, r1, #20
10004e3c:	0089      	lsls	r1, r1, #2
10004e3e:	0038      	movs	r0, r7
10004e40:	4441      	add	r1, r8
10004e42:	f7fb fdb1 	bl	100009a8 <hw_claim_clear>
10004e46:	4b37      	ldr	r3, [pc, #220]	; (10004f24 <pio_claim_free_sm_and_add_program_for_gpio_range+0x188>)
10004e48:	469c      	mov	ip, r3
10004e4a:	4b37      	ldr	r3, [pc, #220]	; (10004f28 <pio_claim_free_sm_and_add_program_for_gpio_range+0x18c>)
10004e4c:	4464      	add	r4, ip
10004e4e:	429c      	cmp	r4, r3
10004e50:	d1b1      	bne.n	10004db6 <pio_claim_free_sm_and_add_program_for_gpio_range+0x1a>
10004e52:	2300      	movs	r3, #0
10004e54:	2000      	movs	r0, #0
10004e56:	602b      	str	r3, [r5, #0]
10004e58:	b009      	add	sp, #36	; 0x24
10004e5a:	bcf0      	pop	{r4, r5, r6, r7}
10004e5c:	46bb      	mov	fp, r7
10004e5e:	46b2      	mov	sl, r6
10004e60:	46a9      	mov	r9, r5
10004e62:	46a0      	mov	r8, r4
10004e64:	bdf0      	pop	{r4, r5, r6, r7, pc}
10004e66:	4650      	mov	r0, sl
10004e68:	469a      	mov	sl, r3
10004e6a:	465b      	mov	r3, fp
10004e6c:	9107      	str	r1, [sp, #28]
10004e6e:	9604      	str	r6, [sp, #16]
10004e70:	9a03      	ldr	r2, [sp, #12]
10004e72:	6811      	ldr	r1, [r2, #0]
10004e74:	468b      	mov	fp, r1
10004e76:	7991      	ldrb	r1, [r2, #6]
10004e78:	2900      	cmp	r1, #0
10004e7a:	d1d8      	bne.n	10004e2e <pio_claim_free_sm_and_add_program_for_gpio_range+0x92>
10004e7c:	9e04      	ldr	r6, [sp, #16]
10004e7e:	9a07      	ldr	r2, [sp, #28]
10004e80:	4651      	mov	r1, sl
10004e82:	4096      	lsls	r6, r2
10004e84:	4031      	ands	r1, r6
10004e86:	9104      	str	r1, [sp, #16]
10004e88:	4651      	mov	r1, sl
10004e8a:	420e      	tst	r6, r1
10004e8c:	d1cf      	bne.n	10004e2e <pio_claim_free_sm_and_add_program_for_gpio_range+0x92>
10004e8e:	4641      	mov	r1, r8
10004e90:	46e0      	mov	r8, ip
10004e92:	4644      	mov	r4, r8
10004e94:	9103      	str	r1, [sp, #12]
10004e96:	46b4      	mov	ip, r6
10004e98:	9904      	ldr	r1, [sp, #16]
10004e9a:	2c00      	cmp	r4, #0
10004e9c:	d011      	beq.n	10004ec2 <pio_claim_free_sm_and_add_program_for_gpio_range+0x126>
10004e9e:	001c      	movs	r4, r3
10004ea0:	464e      	mov	r6, r9
10004ea2:	4643      	mov	r3, r8
10004ea4:	465f      	mov	r7, fp
10004ea6:	46a0      	mov	r8, r4
10004ea8:	004c      	lsls	r4, r1, #1
10004eaa:	5b3d      	ldrh	r5, [r7, r4]
10004eac:	0b6c      	lsrs	r4, r5, #13
10004eae:	d100      	bne.n	10004eb2 <pio_claim_free_sm_and_add_program_for_gpio_range+0x116>
10004eb0:	18ad      	adds	r5, r5, r2
10004eb2:	1854      	adds	r4, r2, r1
10004eb4:	3412      	adds	r4, #18
10004eb6:	00a4      	lsls	r4, r4, #2
10004eb8:	3101      	adds	r1, #1
10004eba:	51a5      	str	r5, [r4, r6]
10004ebc:	4299      	cmp	r1, r3
10004ebe:	d3f3      	bcc.n	10004ea8 <pio_claim_free_sm_and_add_program_for_gpio_range+0x10c>
10004ec0:	4643      	mov	r3, r8
10004ec2:	4664      	mov	r4, ip
10004ec4:	4651      	mov	r1, sl
10004ec6:	4321      	orrs	r1, r4
10004ec8:	4c15      	ldr	r4, [pc, #84]	; (10004f20 <pio_claim_free_sm_and_add_program_for_gpio_range+0x184>)
10004eca:	50e1      	str	r1, [r4, r3]
10004ecc:	9b05      	ldr	r3, [sp, #20]
10004ece:	9903      	ldr	r1, [sp, #12]
10004ed0:	6019      	str	r1, [r3, #0]
10004ed2:	9b06      	ldr	r3, [sp, #24]
10004ed4:	601a      	str	r2, [r3, #0]
10004ed6:	f7fb fced 	bl	100008b4 <hw_claim_unlock>
10004eda:	2001      	movs	r0, #1
10004edc:	e7bc      	b.n	10004e58 <pio_claim_free_sm_and_add_program_for_gpio_range+0xbc>
10004ede:	2220      	movs	r2, #32
10004ee0:	4661      	mov	r1, ip
10004ee2:	1a51      	subs	r1, r2, r1
10004ee4:	d4a3      	bmi.n	10004e2e <pio_claim_free_sm_and_add_program_for_gpio_range+0x92>
10004ee6:	9e04      	ldr	r6, [sp, #16]
10004ee8:	9107      	str	r1, [sp, #28]
10004eea:	408e      	lsls	r6, r1
10004eec:	46b3      	mov	fp, r6
10004eee:	4656      	mov	r6, sl
10004ef0:	465a      	mov	r2, fp
10004ef2:	4216      	tst	r6, r2
10004ef4:	d0bc      	beq.n	10004e70 <pio_claim_free_sm_and_add_program_for_gpio_range+0xd4>
10004ef6:	469b      	mov	fp, r3
10004ef8:	9e04      	ldr	r6, [sp, #16]
10004efa:	4653      	mov	r3, sl
10004efc:	4682      	mov	sl, r0
10004efe:	e003      	b.n	10004f08 <pio_claim_free_sm_and_add_program_for_gpio_range+0x16c>
10004f00:	0032      	movs	r2, r6
10004f02:	408a      	lsls	r2, r1
10004f04:	4213      	tst	r3, r2
10004f06:	d0ae      	beq.n	10004e66 <pio_claim_free_sm_and_add_program_for_gpio_range+0xca>
10004f08:	3901      	subs	r1, #1
10004f0a:	d2f9      	bcs.n	10004f00 <pio_claim_free_sm_and_add_program_for_gpio_range+0x164>
10004f0c:	4650      	mov	r0, sl
10004f0e:	e78e      	b.n	10004e2e <pio_claim_free_sm_and_add_program_for_gpio_range+0x92>
10004f10:	50300000 	.word	0x50300000
10004f14:	20001118 	.word	0x20001118
10004f18:	afe00000 	.word	0xafe00000
10004f1c:	10006734 	.word	0x10006734
10004f20:	200010ec 	.word	0x200010ec
10004f24:	fff00000 	.word	0xfff00000
10004f28:	50100000 	.word	0x50100000

10004f2c <pio_remove_program_and_unclaim_sm>:
10004f2c:	b5e0      	push	{r5, r6, r7, lr}
10004f2e:	2601      	movs	r6, #1
10004f30:	0017      	movs	r7, r2
10004f32:	7902      	ldrb	r2, [r0, #4]
10004f34:	000d      	movs	r5, r1
10004f36:	4096      	lsls	r6, r2
10004f38:	3e01      	subs	r6, #1
10004f3a:	409e      	lsls	r6, r3
10004f3c:	f7fb fcae 	bl	1000089c <hw_claim_lock>
10004f40:	4b07      	ldr	r3, [pc, #28]	; (10004f60 <pio_remove_program_and_unclaim_sm+0x34>)
10004f42:	4a08      	ldr	r2, [pc, #32]	; (10004f64 <pio_remove_program_and_unclaim_sm+0x38>)
10004f44:	469c      	mov	ip, r3
10004f46:	4465      	add	r5, ip
10004f48:	0d2d      	lsrs	r5, r5, #20
10004f4a:	00ad      	lsls	r5, r5, #2
10004f4c:	58ab      	ldr	r3, [r5, r2]
10004f4e:	43b3      	bics	r3, r6
10004f50:	50ab      	str	r3, [r5, r2]
10004f52:	f7fb fcaf 	bl	100008b4 <hw_claim_unlock>
10004f56:	19e9      	adds	r1, r5, r7
10004f58:	4803      	ldr	r0, [pc, #12]	; (10004f68 <pio_remove_program_and_unclaim_sm+0x3c>)
10004f5a:	f7fb fd25 	bl	100009a8 <hw_claim_clear>
10004f5e:	bde0      	pop	{r5, r6, r7, pc}
10004f60:	afe00000 	.word	0xafe00000
10004f64:	200010ec 	.word	0x200010ec
10004f68:	20001118 	.word	0x20001118

10004f6c <handle_sync_func_call>:
10004f6c:	b570      	push	{r4, r5, r6, lr}
10004f6e:	698b      	ldr	r3, [r1, #24]
10004f70:	0005      	movs	r5, r0
10004f72:	69c8      	ldr	r0, [r1, #28]
10004f74:	000c      	movs	r4, r1
10004f76:	4798      	blx	r3
10004f78:	6220      	str	r0, [r4, #32]
10004f7a:	0020      	movs	r0, r4
10004f7c:	3010      	adds	r0, #16
10004f7e:	f001 f8f7 	bl	10006170 <__sem_release_veneer>
10004f82:	682b      	ldr	r3, [r5, #0]
10004f84:	0028      	movs	r0, r5
10004f86:	0021      	movs	r1, r4
10004f88:	6a1b      	ldr	r3, [r3, #32]
10004f8a:	4798      	blx	r3
10004f8c:	bd70      	pop	{r4, r5, r6, pc}
10004f8e:	46c0      	nop			; (mov r8, r8)

10004f90 <async_context_threadsafe_background_acquire_lock_blocking>:
10004f90:	b510      	push	{r4, lr}
10004f92:	3030      	adds	r0, #48	; 0x30
10004f94:	f001 f91c 	bl	100061d0 <__recursive_mutex_enter_blocking_veneer>
10004f98:	bd10      	pop	{r4, pc}
10004f9a:	46c0      	nop			; (mov r8, r8)

10004f9c <process_under_lock>:
10004f9c:	b5f0      	push	{r4, r5, r6, r7, lr}
10004f9e:	46ce      	mov	lr, r9
10004fa0:	4647      	mov	r7, r8
10004fa2:	b580      	push	{r7, lr}
10004fa4:	4b2d      	ldr	r3, [pc, #180]	; (1000505c <process_under_lock+0xc0>)
10004fa6:	b087      	sub	sp, #28
10004fa8:	681a      	ldr	r2, [r3, #0]
10004faa:	685b      	ldr	r3, [r3, #4]
10004fac:	0004      	movs	r4, r0
10004fae:	9305      	str	r3, [sp, #20]
10004fb0:	4b2b      	ldr	r3, [pc, #172]	; (10005060 <process_under_lock+0xc4>)
10004fb2:	4690      	mov	r8, r2
10004fb4:	254a      	movs	r5, #74	; 0x4a
10004fb6:	4699      	mov	r9, r3
10004fb8:	0020      	movs	r0, r4
10004fba:	f000 fb97 	bl	100056ec <async_context_base_execute_once>
10004fbe:	0006      	movs	r6, r0
10004fc0:	000f      	movs	r7, r1
10004fc2:	f7fc fd0f 	bl	100019e4 <time_us_64>
10004fc6:	0032      	movs	r2, r6
10004fc8:	003b      	movs	r3, r7
10004fca:	1a12      	subs	r2, r2, r0
10004fcc:	418b      	sbcs	r3, r1
10004fce:	2b00      	cmp	r3, #0
10004fd0:	dd29      	ble.n	10005026 <process_under_lock+0x8a>
10004fd2:	4546      	cmp	r6, r8
10004fd4:	d02d      	beq.n	10005032 <process_under_lock+0x96>
10004fd6:	5d63      	ldrb	r3, [r4, r5]
10004fd8:	2b00      	cmp	r3, #0
10004fda:	d008      	beq.n	10004fee <process_under_lock+0x52>
10004fdc:	6aa0      	ldr	r0, [r4, #40]	; 0x28
10004fde:	6ae1      	ldr	r1, [r4, #44]	; 0x2c
10004fe0:	0032      	movs	r2, r6
10004fe2:	003b      	movs	r3, r7
10004fe4:	1a12      	subs	r2, r2, r0
10004fe6:	418b      	sbcs	r3, r1
10004fe8:	2b00      	cmp	r3, #0
10004fea:	dc28      	bgt.n	1000503e <process_under_lock+0xa2>
10004fec:	d033      	beq.n	10005056 <process_under_lock+0xba>
10004fee:	6c23      	ldr	r3, [r4, #64]	; 0x40
10004ff0:	2b00      	cmp	r3, #0
10004ff2:	dd03      	ble.n	10004ffc <process_under_lock+0x60>
10004ff4:	6c21      	ldr	r1, [r4, #64]	; 0x40
10004ff6:	6a20      	ldr	r0, [r4, #32]
10004ff8:	f7fc fb94 	bl	10001724 <alarm_pool_cancel_alarm>
10004ffc:	2301      	movs	r3, #1
10004ffe:	62a6      	str	r6, [r4, #40]	; 0x28
10005000:	62e7      	str	r7, [r4, #44]	; 0x2c
10005002:	5563      	strb	r3, [r4, r5]
10005004:	2300      	movs	r3, #0
10005006:	9302      	str	r3, [sp, #8]
10005008:	464b      	mov	r3, r9
1000500a:	0032      	movs	r2, r6
1000500c:	9300      	str	r3, [sp, #0]
1000500e:	6a20      	ldr	r0, [r4, #32]
10005010:	003b      	movs	r3, r7
10005012:	9401      	str	r4, [sp, #4]
10005014:	f7fc faca 	bl	100015ac <alarm_pool_add_alarm_at>
10005018:	6420      	str	r0, [r4, #64]	; 0x40
1000501a:	6c23      	ldr	r3, [r4, #64]	; 0x40
1000501c:	2b00      	cmp	r3, #0
1000501e:	dc0e      	bgt.n	1000503e <process_under_lock+0xa2>
10005020:	2300      	movs	r3, #0
10005022:	5563      	strb	r3, [r4, r5]
10005024:	e7c8      	b.n	10004fb8 <process_under_lock+0x1c>
10005026:	2b00      	cmp	r3, #0
10005028:	d1c6      	bne.n	10004fb8 <process_under_lock+0x1c>
1000502a:	2a00      	cmp	r2, #0
1000502c:	d0c4      	beq.n	10004fb8 <process_under_lock+0x1c>
1000502e:	4546      	cmp	r6, r8
10005030:	d1d1      	bne.n	10004fd6 <process_under_lock+0x3a>
10005032:	9b05      	ldr	r3, [sp, #20]
10005034:	429f      	cmp	r7, r3
10005036:	d1ce      	bne.n	10004fd6 <process_under_lock+0x3a>
10005038:	6c23      	ldr	r3, [r4, #64]	; 0x40
1000503a:	2b00      	cmp	r3, #0
1000503c:	dc04      	bgt.n	10005048 <process_under_lock+0xac>
1000503e:	b007      	add	sp, #28
10005040:	bcc0      	pop	{r6, r7}
10005042:	46b9      	mov	r9, r7
10005044:	46b0      	mov	r8, r6
10005046:	bdf0      	pop	{r4, r5, r6, r7, pc}
10005048:	6c21      	ldr	r1, [r4, #64]	; 0x40
1000504a:	6a20      	ldr	r0, [r4, #32]
1000504c:	f7fc fb6a 	bl	10001724 <alarm_pool_cancel_alarm>
10005050:	2300      	movs	r3, #0
10005052:	6423      	str	r3, [r4, #64]	; 0x40
10005054:	e7f3      	b.n	1000503e <process_under_lock+0xa2>
10005056:	2a00      	cmp	r2, #0
10005058:	d0c9      	beq.n	10004fee <process_under_lock+0x52>
1000505a:	e7f0      	b.n	1000503e <process_under_lock+0xa2>
1000505c:	10006358 	.word	0x10006358
10005060:	10005289 	.word	0x10005289

10005064 <async_context_threadsafe_background_deinit>:
10005064:	b570      	push	{r4, r5, r6, lr}
10005066:	2549      	movs	r5, #73	; 0x49
10005068:	0004      	movs	r4, r0
1000506a:	5d40      	ldrb	r0, [r0, r5]
1000506c:	2800      	cmp	r0, #0
1000506e:	d118      	bne.n	100050a2 <async_context_threadsafe_background_deinit+0x3e>
10005070:	6c23      	ldr	r3, [r4, #64]	; 0x40
10005072:	2b00      	cmp	r3, #0
10005074:	dd03      	ble.n	1000507e <async_context_threadsafe_background_deinit+0x1a>
10005076:	6c21      	ldr	r1, [r4, #64]	; 0x40
10005078:	6a20      	ldr	r0, [r4, #32]
1000507a:	f7fc fb53 	bl	10001724 <alarm_pool_cancel_alarm>
1000507e:	2348      	movs	r3, #72	; 0x48
10005080:	5ce3      	ldrb	r3, [r4, r3]
10005082:	2b00      	cmp	r3, #0
10005084:	d11a      	bne.n	100050bc <async_context_threadsafe_background_deinit+0x58>
10005086:	0025      	movs	r5, r4
10005088:	3530      	adds	r5, #48	; 0x30
1000508a:	0028      	movs	r0, r5
1000508c:	f001 f8a0 	bl	100061d0 <__recursive_mutex_enter_blocking_veneer>
10005090:	0028      	movs	r0, r5
10005092:	f001 f8ad 	bl	100061f0 <__recursive_mutex_exit_veneer>
10005096:	2250      	movs	r2, #80	; 0x50
10005098:	2100      	movs	r1, #0
1000509a:	0020      	movs	r0, r4
1000509c:	f7fd ffec 	bl	10003078 <__wrap_memset>
100050a0:	bd70      	pop	{r4, r5, r6, pc}
100050a2:	2100      	movs	r1, #0
100050a4:	f7fb fcc8 	bl	10000a38 <irq_set_enabled>
100050a8:	5d60      	ldrb	r0, [r4, r5]
100050aa:	4906      	ldr	r1, [pc, #24]	; (100050c4 <async_context_threadsafe_background_deinit+0x60>)
100050ac:	f7fb fe30 	bl	10000d10 <irq_remove_handler>
100050b0:	5d60      	ldrb	r0, [r4, r5]
100050b2:	f7fb ff7d 	bl	10000fb0 <user_irq_unclaim>
100050b6:	2300      	movs	r3, #0
100050b8:	5563      	strb	r3, [r4, r5]
100050ba:	e7d9      	b.n	10005070 <async_context_threadsafe_background_deinit+0xc>
100050bc:	6a20      	ldr	r0, [r4, #32]
100050be:	f7fc fa49 	bl	10001554 <alarm_pool_destroy>
100050c2:	e7e0      	b.n	10005086 <async_context_threadsafe_background_deinit+0x22>
100050c4:	100050c9 	.word	0x100050c9

100050c8 <low_priority_irq_handler>:
100050c8:	b570      	push	{r4, r5, r6, lr}
100050ca:	f3ef 8305 	mrs	r3, IPSR
100050ce:	4a0c      	ldr	r2, [pc, #48]	; (10005100 <low_priority_irq_handler+0x38>)
100050d0:	3b2a      	subs	r3, #42	; 0x2a
100050d2:	009b      	lsls	r3, r3, #2
100050d4:	589c      	ldr	r4, [r3, r2]
100050d6:	2c00      	cmp	r4, #0
100050d8:	d00d      	beq.n	100050f6 <low_priority_irq_handler+0x2e>
100050da:	0025      	movs	r5, r4
100050dc:	3530      	adds	r5, #48	; 0x30
100050de:	2100      	movs	r1, #0
100050e0:	0028      	movs	r0, r5
100050e2:	f001 f85d 	bl	100061a0 <__recursive_mutex_try_enter_veneer>
100050e6:	2800      	cmp	r0, #0
100050e8:	d005      	beq.n	100050f6 <low_priority_irq_handler+0x2e>
100050ea:	796b      	ldrb	r3, [r5, #5]
100050ec:	2b01      	cmp	r3, #1
100050ee:	d003      	beq.n	100050f8 <low_priority_irq_handler+0x30>
100050f0:	0028      	movs	r0, r5
100050f2:	f001 f87d 	bl	100061f0 <__recursive_mutex_exit_veneer>
100050f6:	bd70      	pop	{r4, r5, r6, pc}
100050f8:	0020      	movs	r0, r4
100050fa:	f7ff ff4f 	bl	10004f9c <process_under_lock>
100050fe:	e7f7      	b.n	100050f0 <low_priority_irq_handler+0x28>
10005100:	200010f4 	.word	0x200010f4

10005104 <async_context_threadsafe_background_wait_for_work_until>:
10005104:	b510      	push	{r4, lr}
10005106:	3038      	adds	r0, #56	; 0x38
10005108:	f001 f882 	bl	10006210 <__sem_acquire_block_until_veneer>
1000510c:	bd10      	pop	{r4, pc}
1000510e:	46c0      	nop			; (mov r8, r8)

10005110 <async_context_threadsafe_background_wait_until>:
10005110:	0010      	movs	r0, r2
10005112:	0019      	movs	r1, r3
10005114:	b510      	push	{r4, lr}
10005116:	f3ef 8305 	mrs	r3, IPSR
1000511a:	2b00      	cmp	r3, #0
1000511c:	d002      	beq.n	10005124 <async_context_threadsafe_background_wait_until+0x14>
1000511e:	f7fc fc95 	bl	10001a4c <busy_wait_until>
10005122:	bd10      	pop	{r4, pc}
10005124:	f7fc fb3e 	bl	100017a4 <sleep_until>
10005128:	e7fb      	b.n	10005122 <async_context_threadsafe_background_wait_until+0x12>
1000512a:	46c0      	nop			; (mov r8, r8)

1000512c <async_context_threadsafe_background_lock_check>:
1000512c:	b510      	push	{r4, lr}
1000512e:	3030      	adds	r0, #48	; 0x30
10005130:	7943      	ldrb	r3, [r0, #5]
10005132:	2b00      	cmp	r3, #0
10005134:	d008      	beq.n	10005148 <async_context_threadsafe_background_lock_check+0x1c>
10005136:	23d0      	movs	r3, #208	; 0xd0
10005138:	2200      	movs	r2, #0
1000513a:	061b      	lsls	r3, r3, #24
1000513c:	569a      	ldrsb	r2, [r3, r2]
1000513e:	2304      	movs	r3, #4
10005140:	56c3      	ldrsb	r3, [r0, r3]
10005142:	429a      	cmp	r2, r3
10005144:	d100      	bne.n	10005148 <async_context_threadsafe_background_lock_check+0x1c>
10005146:	bd10      	pop	{r4, pc}
10005148:	4801      	ldr	r0, [pc, #4]	; (10005150 <async_context_threadsafe_background_lock_check+0x24>)
1000514a:	f7fb fb8f 	bl	1000086c <panic>
1000514e:	46c0      	nop			; (mov r8, r8)
10005150:	10006758 	.word	0x10006758

10005154 <async_context_threadsafe_background_execute_sync>:
10005154:	b5f0      	push	{r4, r5, r6, r7, lr}
10005156:	46c6      	mov	lr, r8
10005158:	27d0      	movs	r7, #208	; 0xd0
1000515a:	b500      	push	{lr}
1000515c:	063f      	lsls	r7, r7, #24
1000515e:	0016      	movs	r6, r2
10005160:	7e83      	ldrb	r3, [r0, #26]
10005162:	683a      	ldr	r2, [r7, #0]
10005164:	0004      	movs	r4, r0
10005166:	000d      	movs	r5, r1
10005168:	b08c      	sub	sp, #48	; 0x30
1000516a:	4293      	cmp	r3, r2
1000516c:	d023      	beq.n	100051b6 <async_context_threadsafe_background_execute_sync+0x62>
1000516e:	0003      	movs	r3, r0
10005170:	3330      	adds	r3, #48	; 0x30
10005172:	795b      	ldrb	r3, [r3, #5]
10005174:	2b00      	cmp	r3, #0
10005176:	d11b      	bne.n	100051b0 <async_context_threadsafe_background_execute_sync+0x5c>
10005178:	4b2d      	ldr	r3, [pc, #180]	; (10005230 <async_context_threadsafe_background_execute_sync+0xdc>)
1000517a:	2201      	movs	r2, #1
1000517c:	2100      	movs	r1, #0
1000517e:	a807      	add	r0, sp, #28
10005180:	9304      	str	r3, [sp, #16]
10005182:	9509      	str	r5, [sp, #36]	; 0x24
10005184:	960a      	str	r6, [sp, #40]	; 0x28
10005186:	f7fb ff31 	bl	10000fec <sem_init>
1000518a:	6823      	ldr	r3, [r4, #0]
1000518c:	a903      	add	r1, sp, #12
1000518e:	69db      	ldr	r3, [r3, #28]
10005190:	0020      	movs	r0, r4
10005192:	4798      	blx	r3
10005194:	6823      	ldr	r3, [r4, #0]
10005196:	0020      	movs	r0, r4
10005198:	6a5b      	ldr	r3, [r3, #36]	; 0x24
1000519a:	a903      	add	r1, sp, #12
1000519c:	4798      	blx	r3
1000519e:	a807      	add	r0, sp, #28
100051a0:	f001 f80e 	bl	100061c0 <__sem_acquire_blocking_veneer>
100051a4:	9d0b      	ldr	r5, [sp, #44]	; 0x2c
100051a6:	0028      	movs	r0, r5
100051a8:	b00c      	add	sp, #48	; 0x30
100051aa:	bc80      	pop	{r7}
100051ac:	46b8      	mov	r8, r7
100051ae:	bdf0      	pop	{r4, r5, r6, r7, pc}
100051b0:	f7fc ff1a 	bl	10001fe8 <hard_assertion_failure>
100051b4:	e7e0      	b.n	10005178 <async_context_threadsafe_background_execute_sync+0x24>
100051b6:	2330      	movs	r3, #48	; 0x30
100051b8:	4698      	mov	r8, r3
100051ba:	4480      	add	r8, r0
100051bc:	4640      	mov	r0, r8
100051be:	f001 f807 	bl	100061d0 <__recursive_mutex_enter_blocking_veneer>
100051c2:	0030      	movs	r0, r6
100051c4:	47a8      	blx	r5
100051c6:	4643      	mov	r3, r8
100051c8:	795b      	ldrb	r3, [r3, #5]
100051ca:	0005      	movs	r5, r0
100051cc:	2b01      	cmp	r3, #1
100051ce:	d003      	beq.n	100051d8 <async_context_threadsafe_background_execute_sync+0x84>
100051d0:	4640      	mov	r0, r8
100051d2:	f001 f80d 	bl	100061f0 <__recursive_mutex_exit_veneer>
100051d6:	e7e6      	b.n	100051a6 <async_context_threadsafe_background_execute_sync+0x52>
100051d8:	7ea3      	ldrb	r3, [r4, #26]
100051da:	683a      	ldr	r2, [r7, #0]
100051dc:	0020      	movs	r0, r4
100051de:	4293      	cmp	r3, r2
100051e0:	d01e      	beq.n	10005220 <async_context_threadsafe_background_execute_sync+0xcc>
100051e2:	f000 faf7 	bl	100057d4 <async_context_base_needs_servicing>
100051e6:	2800      	cmp	r0, #0
100051e8:	d0f2      	beq.n	100051d0 <async_context_threadsafe_background_execute_sync+0x7c>
100051ea:	4640      	mov	r0, r8
100051ec:	f001 f800 	bl	100061f0 <__recursive_mutex_exit_veneer>
100051f0:	7ea2      	ldrb	r2, [r4, #26]
100051f2:	683b      	ldr	r3, [r7, #0]
100051f4:	429a      	cmp	r2, r3
100051f6:	d016      	beq.n	10005226 <async_context_threadsafe_background_execute_sync+0xd2>
100051f8:	6c61      	ldr	r1, [r4, #68]	; 0x44
100051fa:	2900      	cmp	r1, #0
100051fc:	dd02      	ble.n	10005204 <async_context_threadsafe_background_execute_sync+0xb0>
100051fe:	6a20      	ldr	r0, [r4, #32]
10005200:	f7fc fa90 	bl	10001724 <alarm_pool_cancel_alarm>
10005204:	4b0b      	ldr	r3, [pc, #44]	; (10005234 <async_context_threadsafe_background_execute_sync+0xe0>)
10005206:	2200      	movs	r2, #0
10005208:	9300      	str	r3, [sp, #0]
1000520a:	6a20      	ldr	r0, [r4, #32]
1000520c:	2300      	movs	r3, #0
1000520e:	9401      	str	r4, [sp, #4]
10005210:	f7fc fa30 	bl	10001674 <alarm_pool_add_alarm_at_force_in_context>
10005214:	6460      	str	r0, [r4, #68]	; 0x44
10005216:	0020      	movs	r0, r4
10005218:	3038      	adds	r0, #56	; 0x38
1000521a:	f000 ffa9 	bl	10006170 <__sem_release_veneer>
1000521e:	e7c2      	b.n	100051a6 <async_context_threadsafe_background_execute_sync+0x52>
10005220:	f7ff febc 	bl	10004f9c <process_under_lock>
10005224:	e7d4      	b.n	100051d0 <async_context_threadsafe_background_execute_sync+0x7c>
10005226:	2349      	movs	r3, #73	; 0x49
10005228:	5ce0      	ldrb	r0, [r4, r3]
1000522a:	f7fb fc23 	bl	10000a74 <irq_set_pending>
1000522e:	e7f2      	b.n	10005216 <async_context_threadsafe_background_execute_sync+0xc2>
10005230:	10004f6d 	.word	0x10004f6d
10005234:	10005289 	.word	0x10005289

10005238 <async_context_threadsafe_background_set_work_pending>:
10005238:	2301      	movs	r3, #1
1000523a:	b510      	push	{r4, lr}
1000523c:	720b      	strb	r3, [r1, #8]
1000523e:	23d0      	movs	r3, #208	; 0xd0
10005240:	061b      	lsls	r3, r3, #24
10005242:	7e82      	ldrb	r2, [r0, #26]
10005244:	681b      	ldr	r3, [r3, #0]
10005246:	0004      	movs	r4, r0
10005248:	b082      	sub	sp, #8
1000524a:	429a      	cmp	r2, r3
1000524c:	d015      	beq.n	1000527a <async_context_threadsafe_background_set_work_pending+0x42>
1000524e:	6c41      	ldr	r1, [r0, #68]	; 0x44
10005250:	2900      	cmp	r1, #0
10005252:	dc0e      	bgt.n	10005272 <async_context_threadsafe_background_set_work_pending+0x3a>
10005254:	4b0b      	ldr	r3, [pc, #44]	; (10005284 <async_context_threadsafe_background_set_work_pending+0x4c>)
10005256:	2200      	movs	r2, #0
10005258:	9300      	str	r3, [sp, #0]
1000525a:	6a20      	ldr	r0, [r4, #32]
1000525c:	2300      	movs	r3, #0
1000525e:	9401      	str	r4, [sp, #4]
10005260:	f7fc fa08 	bl	10001674 <alarm_pool_add_alarm_at_force_in_context>
10005264:	6460      	str	r0, [r4, #68]	; 0x44
10005266:	0020      	movs	r0, r4
10005268:	3038      	adds	r0, #56	; 0x38
1000526a:	f000 ff81 	bl	10006170 <__sem_release_veneer>
1000526e:	b002      	add	sp, #8
10005270:	bd10      	pop	{r4, pc}
10005272:	6a00      	ldr	r0, [r0, #32]
10005274:	f7fc fa56 	bl	10001724 <alarm_pool_cancel_alarm>
10005278:	e7ec      	b.n	10005254 <async_context_threadsafe_background_set_work_pending+0x1c>
1000527a:	2349      	movs	r3, #73	; 0x49
1000527c:	5cc0      	ldrb	r0, [r0, r3]
1000527e:	f7fb fbf9 	bl	10000a74 <irq_set_pending>
10005282:	e7f0      	b.n	10005266 <async_context_threadsafe_background_set_work_pending+0x2e>
10005284:	10005289 	.word	0x10005289

10005288 <alarm_handler>:
10005288:	2300      	movs	r3, #0
1000528a:	224a      	movs	r2, #74	; 0x4a
1000528c:	b510      	push	{r4, lr}
1000528e:	644b      	str	r3, [r1, #68]	; 0x44
10005290:	548b      	strb	r3, [r1, r2]
10005292:	23d0      	movs	r3, #208	; 0xd0
10005294:	061b      	lsls	r3, r3, #24
10005296:	7e8a      	ldrb	r2, [r1, #26]
10005298:	681b      	ldr	r3, [r3, #0]
1000529a:	000c      	movs	r4, r1
1000529c:	b082      	sub	sp, #8
1000529e:	429a      	cmp	r2, r3
100052a0:	d017      	beq.n	100052d2 <alarm_handler+0x4a>
100052a2:	6c49      	ldr	r1, [r1, #68]	; 0x44
100052a4:	2900      	cmp	r1, #0
100052a6:	dc10      	bgt.n	100052ca <alarm_handler+0x42>
100052a8:	4b0c      	ldr	r3, [pc, #48]	; (100052dc <alarm_handler+0x54>)
100052aa:	2200      	movs	r2, #0
100052ac:	9300      	str	r3, [sp, #0]
100052ae:	6a20      	ldr	r0, [r4, #32]
100052b0:	2300      	movs	r3, #0
100052b2:	9401      	str	r4, [sp, #4]
100052b4:	f7fc f9de 	bl	10001674 <alarm_pool_add_alarm_at_force_in_context>
100052b8:	6460      	str	r0, [r4, #68]	; 0x44
100052ba:	0020      	movs	r0, r4
100052bc:	3038      	adds	r0, #56	; 0x38
100052be:	f000 ff57 	bl	10006170 <__sem_release_veneer>
100052c2:	2000      	movs	r0, #0
100052c4:	2100      	movs	r1, #0
100052c6:	b002      	add	sp, #8
100052c8:	bd10      	pop	{r4, pc}
100052ca:	6a20      	ldr	r0, [r4, #32]
100052cc:	f7fc fa2a 	bl	10001724 <alarm_pool_cancel_alarm>
100052d0:	e7ea      	b.n	100052a8 <alarm_handler+0x20>
100052d2:	2349      	movs	r3, #73	; 0x49
100052d4:	5cc8      	ldrb	r0, [r1, r3]
100052d6:	f7fb fbcd 	bl	10000a74 <irq_set_pending>
100052da:	e7ee      	b.n	100052ba <alarm_handler+0x32>
100052dc:	10005289 	.word	0x10005289

100052e0 <async_context_threadsafe_background_release_lock>:
100052e0:	b570      	push	{r4, r5, r6, lr}
100052e2:	0005      	movs	r5, r0
100052e4:	3530      	adds	r5, #48	; 0x30
100052e6:	796b      	ldrb	r3, [r5, #5]
100052e8:	0004      	movs	r4, r0
100052ea:	b082      	sub	sp, #8
100052ec:	2b01      	cmp	r3, #1
100052ee:	d004      	beq.n	100052fa <async_context_threadsafe_background_release_lock+0x1a>
100052f0:	0028      	movs	r0, r5
100052f2:	f000 ff7d 	bl	100061f0 <__recursive_mutex_exit_veneer>
100052f6:	b002      	add	sp, #8
100052f8:	bd70      	pop	{r4, r5, r6, pc}
100052fa:	26d0      	movs	r6, #208	; 0xd0
100052fc:	0636      	lsls	r6, r6, #24
100052fe:	7e83      	ldrb	r3, [r0, #26]
10005300:	6832      	ldr	r2, [r6, #0]
10005302:	4293      	cmp	r3, r2
10005304:	d01f      	beq.n	10005346 <async_context_threadsafe_background_release_lock+0x66>
10005306:	f000 fa65 	bl	100057d4 <async_context_base_needs_servicing>
1000530a:	2800      	cmp	r0, #0
1000530c:	d0f0      	beq.n	100052f0 <async_context_threadsafe_background_release_lock+0x10>
1000530e:	0028      	movs	r0, r5
10005310:	f000 ff6e 	bl	100061f0 <__recursive_mutex_exit_veneer>
10005314:	7ea2      	ldrb	r2, [r4, #26]
10005316:	6833      	ldr	r3, [r6, #0]
10005318:	429a      	cmp	r2, r3
1000531a:	d017      	beq.n	1000534c <async_context_threadsafe_background_release_lock+0x6c>
1000531c:	6c61      	ldr	r1, [r4, #68]	; 0x44
1000531e:	2900      	cmp	r1, #0
10005320:	dc0d      	bgt.n	1000533e <async_context_threadsafe_background_release_lock+0x5e>
10005322:	4b0d      	ldr	r3, [pc, #52]	; (10005358 <async_context_threadsafe_background_release_lock+0x78>)
10005324:	2200      	movs	r2, #0
10005326:	9300      	str	r3, [sp, #0]
10005328:	6a20      	ldr	r0, [r4, #32]
1000532a:	2300      	movs	r3, #0
1000532c:	9401      	str	r4, [sp, #4]
1000532e:	f7fc f9a1 	bl	10001674 <alarm_pool_add_alarm_at_force_in_context>
10005332:	6460      	str	r0, [r4, #68]	; 0x44
10005334:	0020      	movs	r0, r4
10005336:	3038      	adds	r0, #56	; 0x38
10005338:	f000 ff1a 	bl	10006170 <__sem_release_veneer>
1000533c:	e7db      	b.n	100052f6 <async_context_threadsafe_background_release_lock+0x16>
1000533e:	6a20      	ldr	r0, [r4, #32]
10005340:	f7fc f9f0 	bl	10001724 <alarm_pool_cancel_alarm>
10005344:	e7ed      	b.n	10005322 <async_context_threadsafe_background_release_lock+0x42>
10005346:	f7ff fe29 	bl	10004f9c <process_under_lock>
1000534a:	e7d1      	b.n	100052f0 <async_context_threadsafe_background_release_lock+0x10>
1000534c:	2349      	movs	r3, #73	; 0x49
1000534e:	5ce0      	ldrb	r0, [r4, r3]
10005350:	f7fb fb90 	bl	10000a74 <irq_set_pending>
10005354:	e7ee      	b.n	10005334 <async_context_threadsafe_background_release_lock+0x54>
10005356:	46c0      	nop			; (mov r8, r8)
10005358:	10005289 	.word	0x10005289

1000535c <async_context_threadsafe_background_when_pending_worker>:
1000535c:	b5f0      	push	{r4, r5, r6, r7, lr}
1000535e:	0005      	movs	r5, r0
10005360:	000e      	movs	r6, r1
10005362:	0004      	movs	r4, r0
10005364:	3530      	adds	r5, #48	; 0x30
10005366:	0028      	movs	r0, r5
10005368:	b083      	sub	sp, #12
1000536a:	f000 ff31 	bl	100061d0 <__recursive_mutex_enter_blocking_veneer>
1000536e:	0031      	movs	r1, r6
10005370:	0020      	movs	r0, r4
10005372:	f000 f9a7 	bl	100056c4 <async_context_base_remove_when_pending_worker>
10005376:	796b      	ldrb	r3, [r5, #5]
10005378:	0006      	movs	r6, r0
1000537a:	2b01      	cmp	r3, #1
1000537c:	d005      	beq.n	1000538a <async_context_threadsafe_background_when_pending_worker+0x2e>
1000537e:	0028      	movs	r0, r5
10005380:	f000 ff36 	bl	100061f0 <__recursive_mutex_exit_veneer>
10005384:	0030      	movs	r0, r6
10005386:	b003      	add	sp, #12
10005388:	bdf0      	pop	{r4, r5, r6, r7, pc}
1000538a:	27d0      	movs	r7, #208	; 0xd0
1000538c:	063f      	lsls	r7, r7, #24
1000538e:	7ea3      	ldrb	r3, [r4, #26]
10005390:	683a      	ldr	r2, [r7, #0]
10005392:	0020      	movs	r0, r4
10005394:	4293      	cmp	r3, r2
10005396:	d01f      	beq.n	100053d8 <async_context_threadsafe_background_when_pending_worker+0x7c>
10005398:	f000 fa1c 	bl	100057d4 <async_context_base_needs_servicing>
1000539c:	2800      	cmp	r0, #0
1000539e:	d0ee      	beq.n	1000537e <async_context_threadsafe_background_when_pending_worker+0x22>
100053a0:	0028      	movs	r0, r5
100053a2:	f000 ff25 	bl	100061f0 <__recursive_mutex_exit_veneer>
100053a6:	7ea2      	ldrb	r2, [r4, #26]
100053a8:	683b      	ldr	r3, [r7, #0]
100053aa:	429a      	cmp	r2, r3
100053ac:	d017      	beq.n	100053de <async_context_threadsafe_background_when_pending_worker+0x82>
100053ae:	6c61      	ldr	r1, [r4, #68]	; 0x44
100053b0:	2900      	cmp	r1, #0
100053b2:	dc0d      	bgt.n	100053d0 <async_context_threadsafe_background_when_pending_worker+0x74>
100053b4:	4b0c      	ldr	r3, [pc, #48]	; (100053e8 <async_context_threadsafe_background_when_pending_worker+0x8c>)
100053b6:	2200      	movs	r2, #0
100053b8:	9300      	str	r3, [sp, #0]
100053ba:	6a20      	ldr	r0, [r4, #32]
100053bc:	2300      	movs	r3, #0
100053be:	9401      	str	r4, [sp, #4]
100053c0:	f7fc f958 	bl	10001674 <alarm_pool_add_alarm_at_force_in_context>
100053c4:	6460      	str	r0, [r4, #68]	; 0x44
100053c6:	0020      	movs	r0, r4
100053c8:	3038      	adds	r0, #56	; 0x38
100053ca:	f000 fed1 	bl	10006170 <__sem_release_veneer>
100053ce:	e7d9      	b.n	10005384 <async_context_threadsafe_background_when_pending_worker+0x28>
100053d0:	6a20      	ldr	r0, [r4, #32]
100053d2:	f7fc f9a7 	bl	10001724 <alarm_pool_cancel_alarm>
100053d6:	e7ed      	b.n	100053b4 <async_context_threadsafe_background_when_pending_worker+0x58>
100053d8:	f7ff fde0 	bl	10004f9c <process_under_lock>
100053dc:	e7cf      	b.n	1000537e <async_context_threadsafe_background_when_pending_worker+0x22>
100053de:	2349      	movs	r3, #73	; 0x49
100053e0:	5ce0      	ldrb	r0, [r4, r3]
100053e2:	f7fb fb47 	bl	10000a74 <irq_set_pending>
100053e6:	e7ee      	b.n	100053c6 <async_context_threadsafe_background_when_pending_worker+0x6a>
100053e8:	10005289 	.word	0x10005289

100053ec <async_context_threadsafe_background_remove_at_time_worker>:
100053ec:	b5f0      	push	{r4, r5, r6, r7, lr}
100053ee:	0005      	movs	r5, r0
100053f0:	000e      	movs	r6, r1
100053f2:	0004      	movs	r4, r0
100053f4:	3530      	adds	r5, #48	; 0x30
100053f6:	0028      	movs	r0, r5
100053f8:	b083      	sub	sp, #12
100053fa:	f000 fee9 	bl	100061d0 <__recursive_mutex_enter_blocking_veneer>
100053fe:	0031      	movs	r1, r6
10005400:	0020      	movs	r0, r4
10005402:	f000 f939 	bl	10005678 <async_context_base_remove_at_time_worker>
10005406:	796b      	ldrb	r3, [r5, #5]
10005408:	0006      	movs	r6, r0
1000540a:	2b01      	cmp	r3, #1
1000540c:	d005      	beq.n	1000541a <async_context_threadsafe_background_remove_at_time_worker+0x2e>
1000540e:	0028      	movs	r0, r5
10005410:	f000 feee 	bl	100061f0 <__recursive_mutex_exit_veneer>
10005414:	0030      	movs	r0, r6
10005416:	b003      	add	sp, #12
10005418:	bdf0      	pop	{r4, r5, r6, r7, pc}
1000541a:	27d0      	movs	r7, #208	; 0xd0
1000541c:	063f      	lsls	r7, r7, #24
1000541e:	7ea3      	ldrb	r3, [r4, #26]
10005420:	683a      	ldr	r2, [r7, #0]
10005422:	0020      	movs	r0, r4
10005424:	4293      	cmp	r3, r2
10005426:	d01f      	beq.n	10005468 <async_context_threadsafe_background_remove_at_time_worker+0x7c>
10005428:	f000 f9d4 	bl	100057d4 <async_context_base_needs_servicing>
1000542c:	2800      	cmp	r0, #0
1000542e:	d0ee      	beq.n	1000540e <async_context_threadsafe_background_remove_at_time_worker+0x22>
10005430:	0028      	movs	r0, r5
10005432:	f000 fedd 	bl	100061f0 <__recursive_mutex_exit_veneer>
10005436:	7ea2      	ldrb	r2, [r4, #26]
10005438:	683b      	ldr	r3, [r7, #0]
1000543a:	429a      	cmp	r2, r3
1000543c:	d017      	beq.n	1000546e <async_context_threadsafe_background_remove_at_time_worker+0x82>
1000543e:	6c61      	ldr	r1, [r4, #68]	; 0x44
10005440:	2900      	cmp	r1, #0
10005442:	dc0d      	bgt.n	10005460 <async_context_threadsafe_background_remove_at_time_worker+0x74>
10005444:	4b0c      	ldr	r3, [pc, #48]	; (10005478 <async_context_threadsafe_background_remove_at_time_worker+0x8c>)
10005446:	2200      	movs	r2, #0
10005448:	9300      	str	r3, [sp, #0]
1000544a:	6a20      	ldr	r0, [r4, #32]
1000544c:	2300      	movs	r3, #0
1000544e:	9401      	str	r4, [sp, #4]
10005450:	f7fc f910 	bl	10001674 <alarm_pool_add_alarm_at_force_in_context>
10005454:	6460      	str	r0, [r4, #68]	; 0x44
10005456:	0020      	movs	r0, r4
10005458:	3038      	adds	r0, #56	; 0x38
1000545a:	f000 fe89 	bl	10006170 <__sem_release_veneer>
1000545e:	e7d9      	b.n	10005414 <async_context_threadsafe_background_remove_at_time_worker+0x28>
10005460:	6a20      	ldr	r0, [r4, #32]
10005462:	f7fc f95f 	bl	10001724 <alarm_pool_cancel_alarm>
10005466:	e7ed      	b.n	10005444 <async_context_threadsafe_background_remove_at_time_worker+0x58>
10005468:	f7ff fd98 	bl	10004f9c <process_under_lock>
1000546c:	e7cf      	b.n	1000540e <async_context_threadsafe_background_remove_at_time_worker+0x22>
1000546e:	2349      	movs	r3, #73	; 0x49
10005470:	5ce0      	ldrb	r0, [r4, r3]
10005472:	f7fb faff 	bl	10000a74 <irq_set_pending>
10005476:	e7ee      	b.n	10005456 <async_context_threadsafe_background_remove_at_time_worker+0x6a>
10005478:	10005289 	.word	0x10005289

1000547c <async_context_threadsafe_background_add_when_pending_worker>:
1000547c:	b5f0      	push	{r4, r5, r6, r7, lr}
1000547e:	0005      	movs	r5, r0
10005480:	000e      	movs	r6, r1
10005482:	0004      	movs	r4, r0
10005484:	3530      	adds	r5, #48	; 0x30
10005486:	0028      	movs	r0, r5
10005488:	b083      	sub	sp, #12
1000548a:	f000 fea1 	bl	100061d0 <__recursive_mutex_enter_blocking_veneer>
1000548e:	0031      	movs	r1, r6
10005490:	0020      	movs	r0, r4
10005492:	f000 f905 	bl	100056a0 <async_context_base_add_when_pending_worker>
10005496:	796b      	ldrb	r3, [r5, #5]
10005498:	0006      	movs	r6, r0
1000549a:	2b01      	cmp	r3, #1
1000549c:	d005      	beq.n	100054aa <async_context_threadsafe_background_add_when_pending_worker+0x2e>
1000549e:	0028      	movs	r0, r5
100054a0:	f000 fea6 	bl	100061f0 <__recursive_mutex_exit_veneer>
100054a4:	0030      	movs	r0, r6
100054a6:	b003      	add	sp, #12
100054a8:	bdf0      	pop	{r4, r5, r6, r7, pc}
100054aa:	27d0      	movs	r7, #208	; 0xd0
100054ac:	063f      	lsls	r7, r7, #24
100054ae:	7ea3      	ldrb	r3, [r4, #26]
100054b0:	683a      	ldr	r2, [r7, #0]
100054b2:	0020      	movs	r0, r4
100054b4:	4293      	cmp	r3, r2
100054b6:	d01f      	beq.n	100054f8 <async_context_threadsafe_background_add_when_pending_worker+0x7c>
100054b8:	f000 f98c 	bl	100057d4 <async_context_base_needs_servicing>
100054bc:	2800      	cmp	r0, #0
100054be:	d0ee      	beq.n	1000549e <async_context_threadsafe_background_add_when_pending_worker+0x22>
100054c0:	0028      	movs	r0, r5
100054c2:	f000 fe95 	bl	100061f0 <__recursive_mutex_exit_veneer>
100054c6:	7ea2      	ldrb	r2, [r4, #26]
100054c8:	683b      	ldr	r3, [r7, #0]
100054ca:	429a      	cmp	r2, r3
100054cc:	d017      	beq.n	100054fe <async_context_threadsafe_background_add_when_pending_worker+0x82>
100054ce:	6c61      	ldr	r1, [r4, #68]	; 0x44
100054d0:	2900      	cmp	r1, #0
100054d2:	dc0d      	bgt.n	100054f0 <async_context_threadsafe_background_add_when_pending_worker+0x74>
100054d4:	4b0c      	ldr	r3, [pc, #48]	; (10005508 <async_context_threadsafe_background_add_when_pending_worker+0x8c>)
100054d6:	2200      	movs	r2, #0
100054d8:	9300      	str	r3, [sp, #0]
100054da:	6a20      	ldr	r0, [r4, #32]
100054dc:	2300      	movs	r3, #0
100054de:	9401      	str	r4, [sp, #4]
100054e0:	f7fc f8c8 	bl	10001674 <alarm_pool_add_alarm_at_force_in_context>
100054e4:	6460      	str	r0, [r4, #68]	; 0x44
100054e6:	0020      	movs	r0, r4
100054e8:	3038      	adds	r0, #56	; 0x38
100054ea:	f000 fe41 	bl	10006170 <__sem_release_veneer>
100054ee:	e7d9      	b.n	100054a4 <async_context_threadsafe_background_add_when_pending_worker+0x28>
100054f0:	6a20      	ldr	r0, [r4, #32]
100054f2:	f7fc f917 	bl	10001724 <alarm_pool_cancel_alarm>
100054f6:	e7ed      	b.n	100054d4 <async_context_threadsafe_background_add_when_pending_worker+0x58>
100054f8:	f7ff fd50 	bl	10004f9c <process_under_lock>
100054fc:	e7cf      	b.n	1000549e <async_context_threadsafe_background_add_when_pending_worker+0x22>
100054fe:	2349      	movs	r3, #73	; 0x49
10005500:	5ce0      	ldrb	r0, [r4, r3]
10005502:	f7fb fab7 	bl	10000a74 <irq_set_pending>
10005506:	e7ee      	b.n	100054e6 <async_context_threadsafe_background_add_when_pending_worker+0x6a>
10005508:	10005289 	.word	0x10005289

1000550c <async_context_threadsafe_background_add_at_time_worker>:
1000550c:	b5f0      	push	{r4, r5, r6, r7, lr}
1000550e:	0005      	movs	r5, r0
10005510:	000e      	movs	r6, r1
10005512:	0004      	movs	r4, r0
10005514:	3530      	adds	r5, #48	; 0x30
10005516:	0028      	movs	r0, r5
10005518:	b083      	sub	sp, #12
1000551a:	f000 fe59 	bl	100061d0 <__recursive_mutex_enter_blocking_veneer>
1000551e:	0031      	movs	r1, r6
10005520:	0020      	movs	r0, r4
10005522:	f000 f895 	bl	10005650 <async_context_base_add_at_time_worker>
10005526:	796b      	ldrb	r3, [r5, #5]
10005528:	0006      	movs	r6, r0
1000552a:	2b01      	cmp	r3, #1
1000552c:	d005      	beq.n	1000553a <async_context_threadsafe_background_add_at_time_worker+0x2e>
1000552e:	0028      	movs	r0, r5
10005530:	f000 fe5e 	bl	100061f0 <__recursive_mutex_exit_veneer>
10005534:	0030      	movs	r0, r6
10005536:	b003      	add	sp, #12
10005538:	bdf0      	pop	{r4, r5, r6, r7, pc}
1000553a:	27d0      	movs	r7, #208	; 0xd0
1000553c:	063f      	lsls	r7, r7, #24
1000553e:	7ea3      	ldrb	r3, [r4, #26]
10005540:	683a      	ldr	r2, [r7, #0]
10005542:	0020      	movs	r0, r4
10005544:	4293      	cmp	r3, r2
10005546:	d01f      	beq.n	10005588 <async_context_threadsafe_background_add_at_time_worker+0x7c>
10005548:	f000 f944 	bl	100057d4 <async_context_base_needs_servicing>
1000554c:	2800      	cmp	r0, #0
1000554e:	d0ee      	beq.n	1000552e <async_context_threadsafe_background_add_at_time_worker+0x22>
10005550:	0028      	movs	r0, r5
10005552:	f000 fe4d 	bl	100061f0 <__recursive_mutex_exit_veneer>
10005556:	7ea2      	ldrb	r2, [r4, #26]
10005558:	683b      	ldr	r3, [r7, #0]
1000555a:	429a      	cmp	r2, r3
1000555c:	d017      	beq.n	1000558e <async_context_threadsafe_background_add_at_time_worker+0x82>
1000555e:	6c61      	ldr	r1, [r4, #68]	; 0x44
10005560:	2900      	cmp	r1, #0
10005562:	dc0d      	bgt.n	10005580 <async_context_threadsafe_background_add_at_time_worker+0x74>
10005564:	4b0c      	ldr	r3, [pc, #48]	; (10005598 <async_context_threadsafe_background_add_at_time_worker+0x8c>)
10005566:	2200      	movs	r2, #0
10005568:	9300      	str	r3, [sp, #0]
1000556a:	6a20      	ldr	r0, [r4, #32]
1000556c:	2300      	movs	r3, #0
1000556e:	9401      	str	r4, [sp, #4]
10005570:	f7fc f880 	bl	10001674 <alarm_pool_add_alarm_at_force_in_context>
10005574:	6460      	str	r0, [r4, #68]	; 0x44
10005576:	0020      	movs	r0, r4
10005578:	3038      	adds	r0, #56	; 0x38
1000557a:	f000 fdf9 	bl	10006170 <__sem_release_veneer>
1000557e:	e7d9      	b.n	10005534 <async_context_threadsafe_background_add_at_time_worker+0x28>
10005580:	6a20      	ldr	r0, [r4, #32]
10005582:	f7fc f8cf 	bl	10001724 <alarm_pool_cancel_alarm>
10005586:	e7ed      	b.n	10005564 <async_context_threadsafe_background_add_at_time_worker+0x58>
10005588:	f7ff fd08 	bl	10004f9c <process_under_lock>
1000558c:	e7cf      	b.n	1000552e <async_context_threadsafe_background_add_at_time_worker+0x22>
1000558e:	2349      	movs	r3, #73	; 0x49
10005590:	5ce0      	ldrb	r0, [r4, r3]
10005592:	f7fb fa6f 	bl	10000a74 <irq_set_pending>
10005596:	e7ee      	b.n	10005576 <async_context_threadsafe_background_add_at_time_worker+0x6a>
10005598:	10005289 	.word	0x10005289

1000559c <async_context_threadsafe_background_default_config>:
1000559c:	23ff      	movs	r3, #255	; 0xff
1000559e:	7003      	strb	r3, [r0, #0]
100055a0:	2300      	movs	r3, #0
100055a2:	6043      	str	r3, [r0, #4]
100055a4:	4770      	bx	lr
100055a6:	46c0      	nop			; (mov r8, r8)

100055a8 <async_context_threadsafe_background_init>:
100055a8:	b570      	push	{r4, r5, r6, lr}
100055aa:	0004      	movs	r4, r0
100055ac:	000d      	movs	r5, r1
100055ae:	224c      	movs	r2, #76	; 0x4c
100055b0:	2100      	movs	r1, #0
100055b2:	3004      	adds	r0, #4
100055b4:	f7fd fd60 	bl	10003078 <__wrap_memset>
100055b8:	4b22      	ldr	r3, [pc, #136]	; (10005644 <async_context_threadsafe_background_init+0x9c>)
100055ba:	6023      	str	r3, [r4, #0]
100055bc:	2303      	movs	r3, #3
100055be:	8323      	strh	r3, [r4, #24]
100055c0:	23d0      	movs	r3, #208	; 0xd0
100055c2:	061b      	lsls	r3, r3, #24
100055c4:	681b      	ldr	r3, [r3, #0]
100055c6:	76a3      	strb	r3, [r4, #26]
100055c8:	686b      	ldr	r3, [r5, #4]
100055ca:	2b00      	cmp	r3, #0
100055cc:	d028      	beq.n	10005620 <async_context_threadsafe_background_init+0x78>
100055ce:	6223      	str	r3, [r4, #32]
100055d0:	0020      	movs	r0, r4
100055d2:	2201      	movs	r2, #1
100055d4:	2101      	movs	r1, #1
100055d6:	3038      	adds	r0, #56	; 0x38
100055d8:	f7fb fd08 	bl	10000fec <sem_init>
100055dc:	0020      	movs	r0, r4
100055de:	3030      	adds	r0, #48	; 0x30
100055e0:	f7fb fd48 	bl	10001074 <recursive_mutex_init>
100055e4:	2000      	movs	r0, #0
100055e6:	782e      	ldrb	r6, [r5, #0]
100055e8:	f7fb fcec 	bl	10000fc4 <user_irq_claim_unused>
100055ec:	0003      	movs	r3, r0
100055ee:	2000      	movs	r0, #0
100055f0:	2b00      	cmp	r3, #0
100055f2:	db14      	blt.n	1000561e <async_context_threadsafe_background_init+0x76>
100055f4:	001a      	movs	r2, r3
100055f6:	2549      	movs	r5, #73	; 0x49
100055f8:	4913      	ldr	r1, [pc, #76]	; (10005648 <async_context_threadsafe_background_init+0xa0>)
100055fa:	3a1a      	subs	r2, #26
100055fc:	0092      	lsls	r2, r2, #2
100055fe:	30ff      	adds	r0, #255	; 0xff
10005600:	5054      	str	r4, [r2, r1]
10005602:	4018      	ands	r0, r3
10005604:	5563      	strb	r3, [r4, r5]
10005606:	4911      	ldr	r1, [pc, #68]	; (1000564c <async_context_threadsafe_background_init+0xa4>)
10005608:	f7fb fa3c 	bl	10000a84 <irq_set_exclusive_handler>
1000560c:	2101      	movs	r1, #1
1000560e:	5d60      	ldrb	r0, [r4, r5]
10005610:	f7fb fa12 	bl	10000a38 <irq_set_enabled>
10005614:	5d60      	ldrb	r0, [r4, r5]
10005616:	0031      	movs	r1, r6
10005618:	f7fb fc5c 	bl	10000ed4 <irq_set_priority>
1000561c:	2001      	movs	r0, #1
1000561e:	bd70      	pop	{r4, r5, r6, pc}
10005620:	f7fb ff40 	bl	100014a4 <alarm_pool_get_default>
10005624:	6220      	str	r0, [r4, #32]
10005626:	7ea6      	ldrb	r6, [r4, #26]
10005628:	f7fc f8ba 	bl	100017a0 <alarm_pool_core_num>
1000562c:	4286      	cmp	r6, r0
1000562e:	d0cf      	beq.n	100055d0 <async_context_threadsafe_background_init+0x28>
10005630:	f7fc f9aa 	bl	10001988 <alarm_pool_get_default_timer>
10005634:	2104      	movs	r1, #4
10005636:	f7fb ff39 	bl	100014ac <alarm_pool_create_on_timer_with_unused_hardware_alarm>
1000563a:	2348      	movs	r3, #72	; 0x48
1000563c:	2201      	movs	r2, #1
1000563e:	6220      	str	r0, [r4, #32]
10005640:	54e2      	strb	r2, [r4, r3]
10005642:	e7c5      	b.n	100055d0 <async_context_threadsafe_background_init+0x28>
10005644:	10006778 	.word	0x10006778
10005648:	200010f4 	.word	0x200010f4
1000564c:	100050c9 	.word	0x100050c9

10005650 <async_context_base_add_at_time_worker>:
10005650:	0002      	movs	r2, r0
10005652:	6883      	ldr	r3, [r0, #8]
10005654:	3208      	adds	r2, #8
10005656:	2b00      	cmp	r3, #0
10005658:	d104      	bne.n	10005664 <async_context_base_add_at_time_worker+0x14>
1000565a:	e007      	b.n	1000566c <async_context_base_add_at_time_worker+0x1c>
1000565c:	001a      	movs	r2, r3
1000565e:	681b      	ldr	r3, [r3, #0]
10005660:	2b00      	cmp	r3, #0
10005662:	d003      	beq.n	1000566c <async_context_base_add_at_time_worker+0x1c>
10005664:	4299      	cmp	r1, r3
10005666:	d1f9      	bne.n	1000565c <async_context_base_add_at_time_worker+0xc>
10005668:	2000      	movs	r0, #0
1000566a:	e003      	b.n	10005674 <async_context_base_add_at_time_worker+0x24>
1000566c:	2300      	movs	r3, #0
1000566e:	2001      	movs	r0, #1
10005670:	6011      	str	r1, [r2, #0]
10005672:	600b      	str	r3, [r1, #0]
10005674:	4770      	bx	lr
10005676:	46c0      	nop			; (mov r8, r8)

10005678 <async_context_base_remove_at_time_worker>:
10005678:	6883      	ldr	r3, [r0, #8]
1000567a:	2b00      	cmp	r3, #0
1000567c:	d008      	beq.n	10005690 <async_context_base_remove_at_time_worker+0x18>
1000567e:	4299      	cmp	r1, r3
10005680:	d102      	bne.n	10005688 <async_context_base_remove_at_time_worker+0x10>
10005682:	e007      	b.n	10005694 <async_context_base_remove_at_time_worker+0x1c>
10005684:	4299      	cmp	r1, r3
10005686:	d007      	beq.n	10005698 <async_context_base_remove_at_time_worker+0x20>
10005688:	001a      	movs	r2, r3
1000568a:	681b      	ldr	r3, [r3, #0]
1000568c:	2b00      	cmp	r3, #0
1000568e:	d1f9      	bne.n	10005684 <async_context_base_remove_at_time_worker+0xc>
10005690:	2000      	movs	r0, #0
10005692:	4770      	bx	lr
10005694:	0002      	movs	r2, r0
10005696:	3208      	adds	r2, #8
10005698:	680b      	ldr	r3, [r1, #0]
1000569a:	2001      	movs	r0, #1
1000569c:	6013      	str	r3, [r2, #0]
1000569e:	e7f8      	b.n	10005692 <async_context_base_remove_at_time_worker+0x1a>

100056a0 <async_context_base_add_when_pending_worker>:
100056a0:	6843      	ldr	r3, [r0, #4]
100056a2:	1d02      	adds	r2, r0, #4
100056a4:	2b00      	cmp	r3, #0
100056a6:	d104      	bne.n	100056b2 <async_context_base_add_when_pending_worker+0x12>
100056a8:	e007      	b.n	100056ba <async_context_base_add_when_pending_worker+0x1a>
100056aa:	001a      	movs	r2, r3
100056ac:	681b      	ldr	r3, [r3, #0]
100056ae:	2b00      	cmp	r3, #0
100056b0:	d003      	beq.n	100056ba <async_context_base_add_when_pending_worker+0x1a>
100056b2:	4299      	cmp	r1, r3
100056b4:	d1f9      	bne.n	100056aa <async_context_base_add_when_pending_worker+0xa>
100056b6:	2000      	movs	r0, #0
100056b8:	e003      	b.n	100056c2 <async_context_base_add_when_pending_worker+0x22>
100056ba:	2300      	movs	r3, #0
100056bc:	2001      	movs	r0, #1
100056be:	6011      	str	r1, [r2, #0]
100056c0:	600b      	str	r3, [r1, #0]
100056c2:	4770      	bx	lr

100056c4 <async_context_base_remove_when_pending_worker>:
100056c4:	6843      	ldr	r3, [r0, #4]
100056c6:	2b00      	cmp	r3, #0
100056c8:	d008      	beq.n	100056dc <async_context_base_remove_when_pending_worker+0x18>
100056ca:	4299      	cmp	r1, r3
100056cc:	d102      	bne.n	100056d4 <async_context_base_remove_when_pending_worker+0x10>
100056ce:	e007      	b.n	100056e0 <async_context_base_remove_when_pending_worker+0x1c>
100056d0:	4299      	cmp	r1, r3
100056d2:	d006      	beq.n	100056e2 <async_context_base_remove_when_pending_worker+0x1e>
100056d4:	001a      	movs	r2, r3
100056d6:	681b      	ldr	r3, [r3, #0]
100056d8:	2b00      	cmp	r3, #0
100056da:	d1f9      	bne.n	100056d0 <async_context_base_remove_when_pending_worker+0xc>
100056dc:	2000      	movs	r0, #0
100056de:	4770      	bx	lr
100056e0:	1d02      	adds	r2, r0, #4
100056e2:	680b      	ldr	r3, [r1, #0]
100056e4:	2001      	movs	r0, #1
100056e6:	6013      	str	r3, [r2, #0]
100056e8:	e7f9      	b.n	100056de <async_context_base_remove_when_pending_worker+0x1a>
100056ea:	46c0      	nop			; (mov r8, r8)

100056ec <async_context_base_execute_once>:
100056ec:	b5f8      	push	{r3, r4, r5, r6, r7, lr}
100056ee:	4647      	mov	r7, r8
100056f0:	46ce      	mov	lr, r9
100056f2:	6883      	ldr	r3, [r0, #8]
100056f4:	4680      	mov	r8, r0
100056f6:	b580      	push	{r7, lr}
100056f8:	2b00      	cmp	r3, #0
100056fa:	d029      	beq.n	10005750 <async_context_base_execute_once+0x64>
100056fc:	2308      	movs	r3, #8
100056fe:	4443      	add	r3, r8
10005700:	4699      	mov	r9, r3
10005702:	f7fc f96f 	bl	100019e4 <time_us_64>
10005706:	4643      	mov	r3, r8
10005708:	689e      	ldr	r6, [r3, #8]
1000570a:	0004      	movs	r4, r0
1000570c:	000d      	movs	r5, r1
1000570e:	2e00      	cmp	r6, #0
10005710:	d058      	beq.n	100057c4 <async_context_base_execute_once+0xd8>
10005712:	2300      	movs	r3, #0
10005714:	464f      	mov	r7, r9
10005716:	469c      	mov	ip, r3
10005718:	68b2      	ldr	r2, [r6, #8]
1000571a:	68f3      	ldr	r3, [r6, #12]
1000571c:	0020      	movs	r0, r4
1000571e:	0029      	movs	r1, r5
10005720:	1a80      	subs	r0, r0, r2
10005722:	4199      	sbcs	r1, r3
10005724:	2900      	cmp	r1, #0
10005726:	db02      	blt.n	1000572e <async_context_base_execute_once+0x42>
10005728:	0014      	movs	r4, r2
1000572a:	001d      	movs	r5, r3
1000572c:	46bc      	mov	ip, r7
1000572e:	0037      	movs	r7, r6
10005730:	6836      	ldr	r6, [r6, #0]
10005732:	2e00      	cmp	r6, #0
10005734:	d1f0      	bne.n	10005718 <async_context_base_execute_once+0x2c>
10005736:	4663      	mov	r3, ip
10005738:	2b00      	cmp	r3, #0
1000573a:	d043      	beq.n	100057c4 <async_context_base_execute_once+0xd8>
1000573c:	6819      	ldr	r1, [r3, #0]
1000573e:	4640      	mov	r0, r8
10005740:	680a      	ldr	r2, [r1, #0]
10005742:	601a      	str	r2, [r3, #0]
10005744:	684b      	ldr	r3, [r1, #4]
10005746:	4798      	blx	r3
10005748:	4643      	mov	r3, r8
1000574a:	689b      	ldr	r3, [r3, #8]
1000574c:	2b00      	cmp	r3, #0
1000574e:	d1d8      	bne.n	10005702 <async_context_base_execute_once+0x16>
10005750:	4643      	mov	r3, r8
10005752:	685c      	ldr	r4, [r3, #4]
10005754:	2c00      	cmp	r4, #0
10005756:	d031      	beq.n	100057bc <async_context_base_execute_once+0xd0>
10005758:	2500      	movs	r5, #0
1000575a:	7a23      	ldrb	r3, [r4, #8]
1000575c:	2b00      	cmp	r3, #0
1000575e:	d029      	beq.n	100057b4 <async_context_base_execute_once+0xc8>
10005760:	0021      	movs	r1, r4
10005762:	6863      	ldr	r3, [r4, #4]
10005764:	7225      	strb	r5, [r4, #8]
10005766:	4640      	mov	r0, r8
10005768:	4798      	blx	r3
1000576a:	6824      	ldr	r4, [r4, #0]
1000576c:	2c00      	cmp	r4, #0
1000576e:	d1f4      	bne.n	1000575a <async_context_base_execute_once+0x6e>
10005770:	4b17      	ldr	r3, [pc, #92]	; (100057d0 <async_context_base_execute_once+0xe4>)
10005772:	6818      	ldr	r0, [r3, #0]
10005774:	6859      	ldr	r1, [r3, #4]
10005776:	4643      	mov	r3, r8
10005778:	689e      	ldr	r6, [r3, #8]
1000577a:	2e00      	cmp	r6, #0
1000577c:	d104      	bne.n	10005788 <async_context_base_execute_once+0x9c>
1000577e:	e012      	b.n	100057a6 <async_context_base_execute_once+0xba>
10005780:	0020      	movs	r0, r4
10005782:	0029      	movs	r1, r5
10005784:	2e00      	cmp	r6, #0
10005786:	d00e      	beq.n	100057a6 <async_context_base_execute_once+0xba>
10005788:	0033      	movs	r3, r6
1000578a:	0002      	movs	r2, r0
1000578c:	689c      	ldr	r4, [r3, #8]
1000578e:	68dd      	ldr	r5, [r3, #12]
10005790:	000b      	movs	r3, r1
10005792:	1b12      	subs	r2, r2, r4
10005794:	41ab      	sbcs	r3, r5
10005796:	6836      	ldr	r6, [r6, #0]
10005798:	2b00      	cmp	r3, #0
1000579a:	dcf1      	bgt.n	10005780 <async_context_base_execute_once+0x94>
1000579c:	d1f2      	bne.n	10005784 <async_context_base_execute_once+0x98>
1000579e:	2a00      	cmp	r2, #0
100057a0:	d1ee      	bne.n	10005780 <async_context_base_execute_once+0x94>
100057a2:	2e00      	cmp	r6, #0
100057a4:	d1f0      	bne.n	10005788 <async_context_base_execute_once+0x9c>
100057a6:	4643      	mov	r3, r8
100057a8:	6118      	str	r0, [r3, #16]
100057aa:	6159      	str	r1, [r3, #20]
100057ac:	bcc0      	pop	{r6, r7}
100057ae:	46b9      	mov	r9, r7
100057b0:	46b0      	mov	r8, r6
100057b2:	bdf8      	pop	{r3, r4, r5, r6, r7, pc}
100057b4:	6824      	ldr	r4, [r4, #0]
100057b6:	2c00      	cmp	r4, #0
100057b8:	d1cf      	bne.n	1000575a <async_context_base_execute_once+0x6e>
100057ba:	e7d9      	b.n	10005770 <async_context_base_execute_once+0x84>
100057bc:	4b04      	ldr	r3, [pc, #16]	; (100057d0 <async_context_base_execute_once+0xe4>)
100057be:	6818      	ldr	r0, [r3, #0]
100057c0:	6859      	ldr	r1, [r3, #4]
100057c2:	e7f0      	b.n	100057a6 <async_context_base_execute_once+0xba>
100057c4:	4643      	mov	r3, r8
100057c6:	685c      	ldr	r4, [r3, #4]
100057c8:	2c00      	cmp	r4, #0
100057ca:	d1c5      	bne.n	10005758 <async_context_base_execute_once+0x6c>
100057cc:	e7d0      	b.n	10005770 <async_context_base_execute_once+0x84>
100057ce:	46c0      	nop			; (mov r8, r8)
100057d0:	10006358 	.word	0x10006358

100057d4 <async_context_base_needs_servicing>:
100057d4:	b5f0      	push	{r4, r5, r6, r7, lr}
100057d6:	46c6      	mov	lr, r8
100057d8:	4680      	mov	r8, r0
100057da:	b500      	push	{lr}
100057dc:	f7fc f902 	bl	100019e4 <time_us_64>
100057e0:	4643      	mov	r3, r8
100057e2:	689b      	ldr	r3, [r3, #8]
100057e4:	0006      	movs	r6, r0
100057e6:	000f      	movs	r7, r1
100057e8:	2b00      	cmp	r3, #0
100057ea:	d00a      	beq.n	10005802 <async_context_base_needs_servicing+0x2e>
100057ec:	6899      	ldr	r1, [r3, #8]
100057ee:	68da      	ldr	r2, [r3, #12]
100057f0:	0034      	movs	r4, r6
100057f2:	003d      	movs	r5, r7
100057f4:	1a64      	subs	r4, r4, r1
100057f6:	4195      	sbcs	r5, r2
100057f8:	2d00      	cmp	r5, #0
100057fa:	da10      	bge.n	1000581e <async_context_base_needs_servicing+0x4a>
100057fc:	681b      	ldr	r3, [r3, #0]
100057fe:	2b00      	cmp	r3, #0
10005800:	d1f4      	bne.n	100057ec <async_context_base_needs_servicing+0x18>
10005802:	4643      	mov	r3, r8
10005804:	685b      	ldr	r3, [r3, #4]
10005806:	2b00      	cmp	r3, #0
10005808:	d103      	bne.n	10005812 <async_context_base_needs_servicing+0x3e>
1000580a:	e00a      	b.n	10005822 <async_context_base_needs_servicing+0x4e>
1000580c:	681b      	ldr	r3, [r3, #0]
1000580e:	2b00      	cmp	r3, #0
10005810:	d002      	beq.n	10005818 <async_context_base_needs_servicing+0x44>
10005812:	7a18      	ldrb	r0, [r3, #8]
10005814:	2800      	cmp	r0, #0
10005816:	d0f9      	beq.n	1000580c <async_context_base_needs_servicing+0x38>
10005818:	bc80      	pop	{r7}
1000581a:	46b8      	mov	r8, r7
1000581c:	bdf0      	pop	{r4, r5, r6, r7, pc}
1000581e:	2001      	movs	r0, #1
10005820:	e7fa      	b.n	10005818 <async_context_base_needs_servicing+0x44>
10005822:	2000      	movs	r0, #0
10005824:	e7f8      	b.n	10005818 <async_context_base_needs_servicing+0x44>
10005826:	46c0      	nop			; (mov r8, r8)

10005828 <calloc>:
10005828:	0003      	movs	r3, r0
1000582a:	b510      	push	{r4, lr}
1000582c:	000a      	movs	r2, r1
1000582e:	4903      	ldr	r1, [pc, #12]	; (1000583c <calloc+0x14>)
10005830:	6808      	ldr	r0, [r1, #0]
10005832:	0019      	movs	r1, r3
10005834:	f000 f804 	bl	10005840 <_calloc_r>
10005838:	bd10      	pop	{r4, pc}
1000583a:	46c0      	nop			; (mov r8, r8)
1000583c:	20000478 	.word	0x20000478

10005840 <_calloc_r>:
10005840:	b510      	push	{r4, lr}
10005842:	4351      	muls	r1, r2
10005844:	f000 f83e 	bl	100058c4 <_malloc_r>
10005848:	1e04      	subs	r4, r0, #0
1000584a:	d00e      	beq.n	1000586a <_calloc_r+0x2a>
1000584c:	0003      	movs	r3, r0
1000584e:	3b08      	subs	r3, #8
10005850:	685a      	ldr	r2, [r3, #4]
10005852:	2303      	movs	r3, #3
10005854:	439a      	bics	r2, r3
10005856:	3a04      	subs	r2, #4
10005858:	2a24      	cmp	r2, #36	; 0x24
1000585a:	d815      	bhi.n	10005888 <_calloc_r+0x48>
1000585c:	0003      	movs	r3, r0
1000585e:	2a13      	cmp	r2, #19
10005860:	d805      	bhi.n	1000586e <_calloc_r+0x2e>
10005862:	2200      	movs	r2, #0
10005864:	601a      	str	r2, [r3, #0]
10005866:	605a      	str	r2, [r3, #4]
10005868:	609a      	str	r2, [r3, #8]
1000586a:	0020      	movs	r0, r4
1000586c:	bd10      	pop	{r4, pc}
1000586e:	2100      	movs	r1, #0
10005870:	3308      	adds	r3, #8
10005872:	6001      	str	r1, [r0, #0]
10005874:	6041      	str	r1, [r0, #4]
10005876:	2a1b      	cmp	r2, #27
10005878:	d9f3      	bls.n	10005862 <_calloc_r+0x22>
1000587a:	6081      	str	r1, [r0, #8]
1000587c:	60c1      	str	r1, [r0, #12]
1000587e:	2a24      	cmp	r2, #36	; 0x24
10005880:	d006      	beq.n	10005890 <_calloc_r+0x50>
10005882:	0003      	movs	r3, r0
10005884:	3310      	adds	r3, #16
10005886:	e7ec      	b.n	10005862 <_calloc_r+0x22>
10005888:	2100      	movs	r1, #0
1000588a:	f7fd fbf5 	bl	10003078 <__wrap_memset>
1000588e:	e7ec      	b.n	1000586a <_calloc_r+0x2a>
10005890:	0003      	movs	r3, r0
10005892:	6101      	str	r1, [r0, #16]
10005894:	3318      	adds	r3, #24
10005896:	6141      	str	r1, [r0, #20]
10005898:	e7e3      	b.n	10005862 <_calloc_r+0x22>
1000589a:	46c0      	nop			; (mov r8, r8)

1000589c <malloc>:
1000589c:	b510      	push	{r4, lr}
1000589e:	4b03      	ldr	r3, [pc, #12]	; (100058ac <malloc+0x10>)
100058a0:	0001      	movs	r1, r0
100058a2:	6818      	ldr	r0, [r3, #0]
100058a4:	f000 f80e 	bl	100058c4 <_malloc_r>
100058a8:	bd10      	pop	{r4, pc}
100058aa:	46c0      	nop			; (mov r8, r8)
100058ac:	20000478 	.word	0x20000478

100058b0 <free>:
100058b0:	b510      	push	{r4, lr}
100058b2:	4b03      	ldr	r3, [pc, #12]	; (100058c0 <free+0x10>)
100058b4:	0001      	movs	r1, r0
100058b6:	6818      	ldr	r0, [r3, #0]
100058b8:	f000 fb74 	bl	10005fa4 <_free_r>
100058bc:	bd10      	pop	{r4, pc}
100058be:	46c0      	nop			; (mov r8, r8)
100058c0:	20000478 	.word	0x20000478

100058c4 <_malloc_r>:
100058c4:	b5f0      	push	{r4, r5, r6, r7, lr}
100058c6:	464e      	mov	r6, r9
100058c8:	4645      	mov	r5, r8
100058ca:	46de      	mov	lr, fp
100058cc:	4657      	mov	r7, sl
100058ce:	b5e0      	push	{r5, r6, r7, lr}
100058d0:	000d      	movs	r5, r1
100058d2:	350b      	adds	r5, #11
100058d4:	0006      	movs	r6, r0
100058d6:	b083      	sub	sp, #12
100058d8:	2d16      	cmp	r5, #22
100058da:	d822      	bhi.n	10005922 <_malloc_r+0x5e>
100058dc:	2910      	cmp	r1, #16
100058de:	d900      	bls.n	100058e2 <_malloc_r+0x1e>
100058e0:	e0b2      	b.n	10005a48 <_malloc_r+0x184>
100058e2:	f000 faa9 	bl	10005e38 <__malloc_lock>
100058e6:	2510      	movs	r5, #16
100058e8:	2318      	movs	r3, #24
100058ea:	2002      	movs	r0, #2
100058ec:	4fcc      	ldr	r7, [pc, #816]	; (10005c20 <_malloc_r+0x35c>)
100058ee:	18fb      	adds	r3, r7, r3
100058f0:	001a      	movs	r2, r3
100058f2:	685c      	ldr	r4, [r3, #4]
100058f4:	3a08      	subs	r2, #8
100058f6:	4294      	cmp	r4, r2
100058f8:	d100      	bne.n	100058fc <_malloc_r+0x38>
100058fa:	e0b5      	b.n	10005a68 <_malloc_r+0x1a4>
100058fc:	2303      	movs	r3, #3
100058fe:	6862      	ldr	r2, [r4, #4]
10005900:	439a      	bics	r2, r3
10005902:	0013      	movs	r3, r2
10005904:	68e2      	ldr	r2, [r4, #12]
10005906:	68a1      	ldr	r1, [r4, #8]
10005908:	60ca      	str	r2, [r1, #12]
1000590a:	6091      	str	r1, [r2, #8]
1000590c:	2201      	movs	r2, #1
1000590e:	18e3      	adds	r3, r4, r3
10005910:	6859      	ldr	r1, [r3, #4]
10005912:	0030      	movs	r0, r6
10005914:	430a      	orrs	r2, r1
10005916:	605a      	str	r2, [r3, #4]
10005918:	f000 fa90 	bl	10005e3c <__malloc_unlock>
1000591c:	0020      	movs	r0, r4
1000591e:	3008      	adds	r0, #8
10005920:	e095      	b.n	10005a4e <_malloc_r+0x18a>
10005922:	2307      	movs	r3, #7
10005924:	439d      	bics	r5, r3
10005926:	d500      	bpl.n	1000592a <_malloc_r+0x66>
10005928:	e08e      	b.n	10005a48 <_malloc_r+0x184>
1000592a:	42a9      	cmp	r1, r5
1000592c:	d900      	bls.n	10005930 <_malloc_r+0x6c>
1000592e:	e08b      	b.n	10005a48 <_malloc_r+0x184>
10005930:	f000 fa82 	bl	10005e38 <__malloc_lock>
10005934:	23fc      	movs	r3, #252	; 0xfc
10005936:	005b      	lsls	r3, r3, #1
10005938:	429d      	cmp	r5, r3
1000593a:	d200      	bcs.n	1000593e <_malloc_r+0x7a>
1000593c:	e1a1      	b.n	10005c82 <_malloc_r+0x3be>
1000593e:	0a68      	lsrs	r0, r5, #9
10005940:	d100      	bne.n	10005944 <_malloc_r+0x80>
10005942:	e08b      	b.n	10005a5c <_malloc_r+0x198>
10005944:	2804      	cmp	r0, #4
10005946:	d900      	bls.n	1000594a <_malloc_r+0x86>
10005948:	e174      	b.n	10005c34 <_malloc_r+0x370>
1000594a:	2338      	movs	r3, #56	; 0x38
1000594c:	4698      	mov	r8, r3
1000594e:	09a8      	lsrs	r0, r5, #6
10005950:	4480      	add	r8, r0
10005952:	3039      	adds	r0, #57	; 0x39
10005954:	00c1      	lsls	r1, r0, #3
10005956:	4fb2      	ldr	r7, [pc, #712]	; (10005c20 <_malloc_r+0x35c>)
10005958:	1879      	adds	r1, r7, r1
1000595a:	684c      	ldr	r4, [r1, #4]
1000595c:	3908      	subs	r1, #8
1000595e:	42a1      	cmp	r1, r4
10005960:	d00e      	beq.n	10005980 <_malloc_r+0xbc>
10005962:	2303      	movs	r3, #3
10005964:	469c      	mov	ip, r3
10005966:	e004      	b.n	10005972 <_malloc_r+0xae>
10005968:	2a00      	cmp	r2, #0
1000596a:	dacb      	bge.n	10005904 <_malloc_r+0x40>
1000596c:	68e4      	ldr	r4, [r4, #12]
1000596e:	42a1      	cmp	r1, r4
10005970:	d006      	beq.n	10005980 <_malloc_r+0xbc>
10005972:	4662      	mov	r2, ip
10005974:	6863      	ldr	r3, [r4, #4]
10005976:	4393      	bics	r3, r2
10005978:	1b5a      	subs	r2, r3, r5
1000597a:	2a0f      	cmp	r2, #15
1000597c:	ddf4      	ble.n	10005968 <_malloc_r+0xa4>
1000597e:	4640      	mov	r0, r8
10005980:	003a      	movs	r2, r7
10005982:	693c      	ldr	r4, [r7, #16]
10005984:	3208      	adds	r2, #8
10005986:	4294      	cmp	r4, r2
10005988:	d100      	bne.n	1000598c <_malloc_r+0xc8>
1000598a:	e078      	b.n	10005a7e <_malloc_r+0x1ba>
1000598c:	2303      	movs	r3, #3
1000598e:	6861      	ldr	r1, [r4, #4]
10005990:	4399      	bics	r1, r3
10005992:	4689      	mov	r9, r1
10005994:	000b      	movs	r3, r1
10005996:	1b49      	subs	r1, r1, r5
10005998:	290f      	cmp	r1, #15
1000599a:	dd00      	ble.n	1000599e <_malloc_r+0xda>
1000599c:	e175      	b.n	10005c8a <_malloc_r+0x3c6>
1000599e:	617a      	str	r2, [r7, #20]
100059a0:	613a      	str	r2, [r7, #16]
100059a2:	2900      	cmp	r1, #0
100059a4:	dab2      	bge.n	1000590c <_malloc_r+0x48>
100059a6:	2280      	movs	r2, #128	; 0x80
100059a8:	0092      	lsls	r2, r2, #2
100059aa:	4591      	cmp	r9, r2
100059ac:	d300      	bcc.n	100059b0 <_malloc_r+0xec>
100059ae:	e110      	b.n	10005bd2 <_malloc_r+0x30e>
100059b0:	0959      	lsrs	r1, r3, #5
100059b2:	08da      	lsrs	r2, r3, #3
100059b4:	2301      	movs	r3, #1
100059b6:	408b      	lsls	r3, r1
100059b8:	00d2      	lsls	r2, r2, #3
100059ba:	6879      	ldr	r1, [r7, #4]
100059bc:	19d2      	adds	r2, r2, r7
100059be:	430b      	orrs	r3, r1
100059c0:	6891      	ldr	r1, [r2, #8]
100059c2:	607b      	str	r3, [r7, #4]
100059c4:	60e2      	str	r2, [r4, #12]
100059c6:	60a1      	str	r1, [r4, #8]
100059c8:	6094      	str	r4, [r2, #8]
100059ca:	60cc      	str	r4, [r1, #12]
100059cc:	2101      	movs	r1, #1
100059ce:	1082      	asrs	r2, r0, #2
100059d0:	4091      	lsls	r1, r2
100059d2:	4299      	cmp	r1, r3
100059d4:	d859      	bhi.n	10005a8a <_malloc_r+0x1c6>
100059d6:	420b      	tst	r3, r1
100059d8:	d105      	bne.n	100059e6 <_malloc_r+0x122>
100059da:	2203      	movs	r2, #3
100059dc:	4390      	bics	r0, r2
100059de:	0049      	lsls	r1, r1, #1
100059e0:	3004      	adds	r0, #4
100059e2:	420b      	tst	r3, r1
100059e4:	d0fb      	beq.n	100059de <_malloc_r+0x11a>
100059e6:	2303      	movs	r3, #3
100059e8:	4698      	mov	r8, r3
100059ea:	00c3      	lsls	r3, r0, #3
100059ec:	4699      	mov	r9, r3
100059ee:	44b9      	add	r9, r7
100059f0:	46cc      	mov	ip, r9
100059f2:	4682      	mov	sl, r0
100059f4:	4663      	mov	r3, ip
100059f6:	68dc      	ldr	r4, [r3, #12]
100059f8:	45a4      	cmp	ip, r4
100059fa:	d107      	bne.n	10005a0c <_malloc_r+0x148>
100059fc:	e126      	b.n	10005c4c <_malloc_r+0x388>
100059fe:	2a00      	cmp	r2, #0
10005a00:	db00      	blt.n	10005a04 <_malloc_r+0x140>
10005a02:	e12f      	b.n	10005c64 <_malloc_r+0x3a0>
10005a04:	68e4      	ldr	r4, [r4, #12]
10005a06:	45a4      	cmp	ip, r4
10005a08:	d100      	bne.n	10005a0c <_malloc_r+0x148>
10005a0a:	e11f      	b.n	10005c4c <_malloc_r+0x388>
10005a0c:	4642      	mov	r2, r8
10005a0e:	6863      	ldr	r3, [r4, #4]
10005a10:	4393      	bics	r3, r2
10005a12:	1b5a      	subs	r2, r3, r5
10005a14:	2a0f      	cmp	r2, #15
10005a16:	ddf2      	ble.n	100059fe <_malloc_r+0x13a>
10005a18:	2001      	movs	r0, #1
10005a1a:	4680      	mov	r8, r0
10005a1c:	1961      	adds	r1, r4, r5
10005a1e:	4305      	orrs	r5, r0
10005a20:	6065      	str	r5, [r4, #4]
10005a22:	68a0      	ldr	r0, [r4, #8]
10005a24:	68e5      	ldr	r5, [r4, #12]
10005a26:	3708      	adds	r7, #8
10005a28:	60c5      	str	r5, [r0, #12]
10005a2a:	60a8      	str	r0, [r5, #8]
10005a2c:	4640      	mov	r0, r8
10005a2e:	4310      	orrs	r0, r2
10005a30:	60f9      	str	r1, [r7, #12]
10005a32:	60b9      	str	r1, [r7, #8]
10005a34:	6048      	str	r0, [r1, #4]
10005a36:	60cf      	str	r7, [r1, #12]
10005a38:	0030      	movs	r0, r6
10005a3a:	608f      	str	r7, [r1, #8]
10005a3c:	50e2      	str	r2, [r4, r3]
10005a3e:	f000 f9fd 	bl	10005e3c <__malloc_unlock>
10005a42:	0020      	movs	r0, r4
10005a44:	3008      	adds	r0, #8
10005a46:	e002      	b.n	10005a4e <_malloc_r+0x18a>
10005a48:	230c      	movs	r3, #12
10005a4a:	2000      	movs	r0, #0
10005a4c:	6033      	str	r3, [r6, #0]
10005a4e:	b003      	add	sp, #12
10005a50:	bcf0      	pop	{r4, r5, r6, r7}
10005a52:	46bb      	mov	fp, r7
10005a54:	46b2      	mov	sl, r6
10005a56:	46a9      	mov	r9, r5
10005a58:	46a0      	mov	r8, r4
10005a5a:	bdf0      	pop	{r4, r5, r6, r7, pc}
10005a5c:	2180      	movs	r1, #128	; 0x80
10005a5e:	233f      	movs	r3, #63	; 0x3f
10005a60:	2040      	movs	r0, #64	; 0x40
10005a62:	4698      	mov	r8, r3
10005a64:	0089      	lsls	r1, r1, #2
10005a66:	e776      	b.n	10005956 <_malloc_r+0x92>
10005a68:	68dc      	ldr	r4, [r3, #12]
10005a6a:	3002      	adds	r0, #2
10005a6c:	42a3      	cmp	r3, r4
10005a6e:	d000      	beq.n	10005a72 <_malloc_r+0x1ae>
10005a70:	e744      	b.n	100058fc <_malloc_r+0x38>
10005a72:	003a      	movs	r2, r7
10005a74:	693c      	ldr	r4, [r7, #16]
10005a76:	3208      	adds	r2, #8
10005a78:	4294      	cmp	r4, r2
10005a7a:	d000      	beq.n	10005a7e <_malloc_r+0x1ba>
10005a7c:	e786      	b.n	1000598c <_malloc_r+0xc8>
10005a7e:	2101      	movs	r1, #1
10005a80:	687b      	ldr	r3, [r7, #4]
10005a82:	1082      	asrs	r2, r0, #2
10005a84:	4091      	lsls	r1, r2
10005a86:	4299      	cmp	r1, r3
10005a88:	d9a5      	bls.n	100059d6 <_malloc_r+0x112>
10005a8a:	2303      	movs	r3, #3
10005a8c:	68bc      	ldr	r4, [r7, #8]
10005a8e:	6862      	ldr	r2, [r4, #4]
10005a90:	439a      	bics	r2, r3
10005a92:	4691      	mov	r9, r2
10005a94:	4295      	cmp	r5, r2
10005a96:	d803      	bhi.n	10005aa0 <_malloc_r+0x1dc>
10005a98:	1b53      	subs	r3, r2, r5
10005a9a:	2b0f      	cmp	r3, #15
10005a9c:	dd00      	ble.n	10005aa0 <_malloc_r+0x1dc>
10005a9e:	e08a      	b.n	10005bb6 <_malloc_r+0x2f2>
10005aa0:	0023      	movs	r3, r4
10005aa2:	444b      	add	r3, r9
10005aa4:	4a5f      	ldr	r2, [pc, #380]	; (10005c24 <_malloc_r+0x360>)
10005aa6:	9301      	str	r3, [sp, #4]
10005aa8:	4b5f      	ldr	r3, [pc, #380]	; (10005c28 <_malloc_r+0x364>)
10005aaa:	4693      	mov	fp, r2
10005aac:	469a      	mov	sl, r3
10005aae:	6812      	ldr	r2, [r2, #0]
10005ab0:	681b      	ldr	r3, [r3, #0]
10005ab2:	18eb      	adds	r3, r5, r3
10005ab4:	3201      	adds	r2, #1
10005ab6:	d100      	bne.n	10005aba <_malloc_r+0x1f6>
10005ab8:	e136      	b.n	10005d28 <_malloc_r+0x464>
10005aba:	4a5c      	ldr	r2, [pc, #368]	; (10005c2c <_malloc_r+0x368>)
10005abc:	4694      	mov	ip, r2
10005abe:	4463      	add	r3, ip
10005ac0:	0b1b      	lsrs	r3, r3, #12
10005ac2:	031b      	lsls	r3, r3, #12
10005ac4:	9300      	str	r3, [sp, #0]
10005ac6:	0030      	movs	r0, r6
10005ac8:	9900      	ldr	r1, [sp, #0]
10005aca:	f000 f9dd 	bl	10005e88 <_sbrk_r>
10005ace:	0003      	movs	r3, r0
10005ad0:	4680      	mov	r8, r0
10005ad2:	3301      	adds	r3, #1
10005ad4:	d100      	bne.n	10005ad8 <_malloc_r+0x214>
10005ad6:	e0f3      	b.n	10005cc0 <_malloc_r+0x3fc>
10005ad8:	9b01      	ldr	r3, [sp, #4]
10005ada:	4283      	cmp	r3, r0
10005adc:	d900      	bls.n	10005ae0 <_malloc_r+0x21c>
10005ade:	e0ed      	b.n	10005cbc <_malloc_r+0x3f8>
10005ae0:	4652      	mov	r2, sl
10005ae2:	9800      	ldr	r0, [sp, #0]
10005ae4:	6852      	ldr	r2, [r2, #4]
10005ae6:	0003      	movs	r3, r0
10005ae8:	4694      	mov	ip, r2
10005aea:	4651      	mov	r1, sl
10005aec:	4463      	add	r3, ip
10005aee:	604b      	str	r3, [r1, #4]
10005af0:	9901      	ldr	r1, [sp, #4]
10005af2:	001a      	movs	r2, r3
10005af4:	4541      	cmp	r1, r8
10005af6:	d100      	bne.n	10005afa <_malloc_r+0x236>
10005af8:	e14b      	b.n	10005d92 <_malloc_r+0x4ce>
10005afa:	465b      	mov	r3, fp
10005afc:	681b      	ldr	r3, [r3, #0]
10005afe:	3301      	adds	r3, #1
10005b00:	d100      	bne.n	10005b04 <_malloc_r+0x240>
10005b02:	e150      	b.n	10005da6 <_malloc_r+0x4e2>
10005b04:	4643      	mov	r3, r8
10005b06:	9901      	ldr	r1, [sp, #4]
10005b08:	1a5b      	subs	r3, r3, r1
10005b0a:	189a      	adds	r2, r3, r2
10005b0c:	4653      	mov	r3, sl
10005b0e:	605a      	str	r2, [r3, #4]
10005b10:	2307      	movs	r3, #7
10005b12:	4642      	mov	r2, r8
10005b14:	4641      	mov	r1, r8
10005b16:	401a      	ands	r2, r3
10005b18:	9201      	str	r2, [sp, #4]
10005b1a:	4219      	tst	r1, r3
10005b1c:	d100      	bne.n	10005b20 <_malloc_r+0x25c>
10005b1e:	e10d      	b.n	10005d3c <_malloc_r+0x478>
10005b20:	2308      	movs	r3, #8
10005b22:	4698      	mov	r8, r3
10005b24:	1a88      	subs	r0, r1, r2
10005b26:	4b42      	ldr	r3, [pc, #264]	; (10005c30 <_malloc_r+0x36c>)
10005b28:	9900      	ldr	r1, [sp, #0]
10005b2a:	4480      	add	r8, r0
10005b2c:	4441      	add	r1, r8
10005b2e:	1a9b      	subs	r3, r3, r2
10005b30:	1a5b      	subs	r3, r3, r1
10005b32:	051b      	lsls	r3, r3, #20
10005b34:	0d1b      	lsrs	r3, r3, #20
10005b36:	9100      	str	r1, [sp, #0]
10005b38:	0030      	movs	r0, r6
10005b3a:	0019      	movs	r1, r3
10005b3c:	469b      	mov	fp, r3
10005b3e:	f000 f9a3 	bl	10005e88 <_sbrk_r>
10005b42:	1c43      	adds	r3, r0, #1
10005b44:	d100      	bne.n	10005b48 <_malloc_r+0x284>
10005b46:	e14a      	b.n	10005dde <_malloc_r+0x51a>
10005b48:	4643      	mov	r3, r8
10005b4a:	1ac0      	subs	r0, r0, r3
10005b4c:	0003      	movs	r3, r0
10005b4e:	445b      	add	r3, fp
10005b50:	9300      	str	r3, [sp, #0]
10005b52:	4653      	mov	r3, sl
10005b54:	4652      	mov	r2, sl
10005b56:	685b      	ldr	r3, [r3, #4]
10005b58:	2101      	movs	r1, #1
10005b5a:	445b      	add	r3, fp
10005b5c:	6053      	str	r3, [r2, #4]
10005b5e:	4642      	mov	r2, r8
10005b60:	4640      	mov	r0, r8
10005b62:	60ba      	str	r2, [r7, #8]
10005b64:	9a00      	ldr	r2, [sp, #0]
10005b66:	430a      	orrs	r2, r1
10005b68:	6042      	str	r2, [r0, #4]
10005b6a:	42bc      	cmp	r4, r7
10005b6c:	d100      	bne.n	10005b70 <_malloc_r+0x2ac>
10005b6e:	e11e      	b.n	10005dae <_malloc_r+0x4ea>
10005b70:	464a      	mov	r2, r9
10005b72:	2a0f      	cmp	r2, #15
10005b74:	d800      	bhi.n	10005b78 <_malloc_r+0x2b4>
10005b76:	e11c      	b.n	10005db2 <_malloc_r+0x4ee>
10005b78:	2007      	movs	r0, #7
10005b7a:	3a0c      	subs	r2, #12
10005b7c:	4382      	bics	r2, r0
10005b7e:	6860      	ldr	r0, [r4, #4]
10005b80:	4001      	ands	r1, r0
10005b82:	2005      	movs	r0, #5
10005b84:	4311      	orrs	r1, r2
10005b86:	6061      	str	r1, [r4, #4]
10005b88:	18a1      	adds	r1, r4, r2
10005b8a:	6048      	str	r0, [r1, #4]
10005b8c:	6088      	str	r0, [r1, #8]
10005b8e:	2a0f      	cmp	r2, #15
10005b90:	d900      	bls.n	10005b94 <_malloc_r+0x2d0>
10005b92:	e12f      	b.n	10005df4 <_malloc_r+0x530>
10005b94:	4642      	mov	r2, r8
10005b96:	4644      	mov	r4, r8
10005b98:	6852      	ldr	r2, [r2, #4]
10005b9a:	4651      	mov	r1, sl
10005b9c:	6ac9      	ldr	r1, [r1, #44]	; 0x2c
10005b9e:	4299      	cmp	r1, r3
10005ba0:	d201      	bcs.n	10005ba6 <_malloc_r+0x2e2>
10005ba2:	4651      	mov	r1, sl
10005ba4:	62cb      	str	r3, [r1, #44]	; 0x2c
10005ba6:	4651      	mov	r1, sl
10005ba8:	6b09      	ldr	r1, [r1, #48]	; 0x30
10005baa:	4299      	cmp	r1, r3
10005bac:	d300      	bcc.n	10005bb0 <_malloc_r+0x2ec>
10005bae:	e089      	b.n	10005cc4 <_malloc_r+0x400>
10005bb0:	4651      	mov	r1, sl
10005bb2:	630b      	str	r3, [r1, #48]	; 0x30
10005bb4:	e086      	b.n	10005cc4 <_malloc_r+0x400>
10005bb6:	2201      	movs	r2, #1
10005bb8:	0029      	movs	r1, r5
10005bba:	4313      	orrs	r3, r2
10005bbc:	4311      	orrs	r1, r2
10005bbe:	1965      	adds	r5, r4, r5
10005bc0:	6061      	str	r1, [r4, #4]
10005bc2:	0030      	movs	r0, r6
10005bc4:	60bd      	str	r5, [r7, #8]
10005bc6:	606b      	str	r3, [r5, #4]
10005bc8:	f000 f938 	bl	10005e3c <__malloc_unlock>
10005bcc:	0020      	movs	r0, r4
10005bce:	3008      	adds	r0, #8
10005bd0:	e73d      	b.n	10005a4e <_malloc_r+0x18a>
10005bd2:	0a5a      	lsrs	r2, r3, #9
10005bd4:	2a04      	cmp	r2, #4
10005bd6:	d96b      	bls.n	10005cb0 <_malloc_r+0x3ec>
10005bd8:	2a14      	cmp	r2, #20
10005bda:	d900      	bls.n	10005bde <_malloc_r+0x31a>
10005bdc:	e0be      	b.n	10005d5c <_malloc_r+0x498>
10005bde:	0011      	movs	r1, r2
10005be0:	325c      	adds	r2, #92	; 0x5c
10005be2:	315b      	adds	r1, #91	; 0x5b
10005be4:	00d2      	lsls	r2, r2, #3
10005be6:	2308      	movs	r3, #8
10005be8:	425b      	negs	r3, r3
10005bea:	469c      	mov	ip, r3
10005bec:	18ba      	adds	r2, r7, r2
10005bee:	4494      	add	ip, r2
10005bf0:	4663      	mov	r3, ip
10005bf2:	689a      	ldr	r2, [r3, #8]
10005bf4:	2303      	movs	r3, #3
10005bf6:	4698      	mov	r8, r3
10005bf8:	4594      	cmp	ip, r2
10005bfa:	d100      	bne.n	10005bfe <_malloc_r+0x33a>
10005bfc:	e097      	b.n	10005d2e <_malloc_r+0x46a>
10005bfe:	4643      	mov	r3, r8
10005c00:	6851      	ldr	r1, [r2, #4]
10005c02:	4399      	bics	r1, r3
10005c04:	4549      	cmp	r1, r9
10005c06:	d902      	bls.n	10005c0e <_malloc_r+0x34a>
10005c08:	6892      	ldr	r2, [r2, #8]
10005c0a:	4594      	cmp	ip, r2
10005c0c:	d1f7      	bne.n	10005bfe <_malloc_r+0x33a>
10005c0e:	68d3      	ldr	r3, [r2, #12]
10005c10:	469c      	mov	ip, r3
10005c12:	687b      	ldr	r3, [r7, #4]
10005c14:	4661      	mov	r1, ip
10005c16:	60a2      	str	r2, [r4, #8]
10005c18:	60e1      	str	r1, [r4, #12]
10005c1a:	608c      	str	r4, [r1, #8]
10005c1c:	60d4      	str	r4, [r2, #12]
10005c1e:	e6d5      	b.n	100059cc <_malloc_r+0x108>
10005c20:	200008b0 	.word	0x200008b0
10005c24:	200008a8 	.word	0x200008a8
10005c28:	200010b4 	.word	0x200010b4
10005c2c:	0000100f 	.word	0x0000100f
10005c30:	00001008 	.word	0x00001008
10005c34:	2814      	cmp	r0, #20
10005c36:	d952      	bls.n	10005cde <_malloc_r+0x41a>
10005c38:	2854      	cmp	r0, #84	; 0x54
10005c3a:	d900      	bls.n	10005c3e <_malloc_r+0x37a>
10005c3c:	e096      	b.n	10005d6c <_malloc_r+0x4a8>
10005c3e:	236e      	movs	r3, #110	; 0x6e
10005c40:	4698      	mov	r8, r3
10005c42:	0b28      	lsrs	r0, r5, #12
10005c44:	4480      	add	r8, r0
10005c46:	306f      	adds	r0, #111	; 0x6f
10005c48:	00c1      	lsls	r1, r0, #3
10005c4a:	e684      	b.n	10005956 <_malloc_r+0x92>
10005c4c:	2308      	movs	r3, #8
10005c4e:	469b      	mov	fp, r3
10005c50:	3b07      	subs	r3, #7
10005c52:	44dc      	add	ip, fp
10005c54:	469b      	mov	fp, r3
10005c56:	44da      	add	sl, fp
10005c58:	4643      	mov	r3, r8
10005c5a:	4652      	mov	r2, sl
10005c5c:	4213      	tst	r3, r2
10005c5e:	d000      	beq.n	10005c62 <_malloc_r+0x39e>
10005c60:	e6c8      	b.n	100059f4 <_malloc_r+0x130>
10005c62:	e04c      	b.n	10005cfe <_malloc_r+0x43a>
10005c64:	2201      	movs	r2, #1
10005c66:	18e3      	adds	r3, r4, r3
10005c68:	6859      	ldr	r1, [r3, #4]
10005c6a:	0030      	movs	r0, r6
10005c6c:	430a      	orrs	r2, r1
10005c6e:	605a      	str	r2, [r3, #4]
10005c70:	68e3      	ldr	r3, [r4, #12]
10005c72:	68a2      	ldr	r2, [r4, #8]
10005c74:	60d3      	str	r3, [r2, #12]
10005c76:	609a      	str	r2, [r3, #8]
10005c78:	f000 f8e0 	bl	10005e3c <__malloc_unlock>
10005c7c:	0020      	movs	r0, r4
10005c7e:	3008      	adds	r0, #8
10005c80:	e6e5      	b.n	10005a4e <_malloc_r+0x18a>
10005c82:	002b      	movs	r3, r5
10005c84:	08e8      	lsrs	r0, r5, #3
10005c86:	3308      	adds	r3, #8
10005c88:	e630      	b.n	100058ec <_malloc_r+0x28>
10005c8a:	2301      	movs	r3, #1
10005c8c:	1960      	adds	r0, r4, r5
10005c8e:	431d      	orrs	r5, r3
10005c90:	6065      	str	r5, [r4, #4]
10005c92:	6178      	str	r0, [r7, #20]
10005c94:	6138      	str	r0, [r7, #16]
10005c96:	60c2      	str	r2, [r0, #12]
10005c98:	6082      	str	r2, [r0, #8]
10005c9a:	001a      	movs	r2, r3
10005c9c:	464b      	mov	r3, r9
10005c9e:	430a      	orrs	r2, r1
10005ca0:	6042      	str	r2, [r0, #4]
10005ca2:	0030      	movs	r0, r6
10005ca4:	50e1      	str	r1, [r4, r3]
10005ca6:	f000 f8c9 	bl	10005e3c <__malloc_unlock>
10005caa:	0020      	movs	r0, r4
10005cac:	3008      	adds	r0, #8
10005cae:	e6ce      	b.n	10005a4e <_malloc_r+0x18a>
10005cb0:	099a      	lsrs	r2, r3, #6
10005cb2:	0011      	movs	r1, r2
10005cb4:	3239      	adds	r2, #57	; 0x39
10005cb6:	3138      	adds	r1, #56	; 0x38
10005cb8:	00d2      	lsls	r2, r2, #3
10005cba:	e794      	b.n	10005be6 <_malloc_r+0x322>
10005cbc:	42bc      	cmp	r4, r7
10005cbe:	d060      	beq.n	10005d82 <_malloc_r+0x4be>
10005cc0:	68bc      	ldr	r4, [r7, #8]
10005cc2:	6862      	ldr	r2, [r4, #4]
10005cc4:	2303      	movs	r3, #3
10005cc6:	439a      	bics	r2, r3
10005cc8:	1b53      	subs	r3, r2, r5
10005cca:	4295      	cmp	r5, r2
10005ccc:	d802      	bhi.n	10005cd4 <_malloc_r+0x410>
10005cce:	2b0f      	cmp	r3, #15
10005cd0:	dd00      	ble.n	10005cd4 <_malloc_r+0x410>
10005cd2:	e770      	b.n	10005bb6 <_malloc_r+0x2f2>
10005cd4:	0030      	movs	r0, r6
10005cd6:	f000 f8b1 	bl	10005e3c <__malloc_unlock>
10005cda:	2000      	movs	r0, #0
10005cdc:	e6b7      	b.n	10005a4e <_malloc_r+0x18a>
10005cde:	235b      	movs	r3, #91	; 0x5b
10005ce0:	4698      	mov	r8, r3
10005ce2:	4480      	add	r8, r0
10005ce4:	305c      	adds	r0, #92	; 0x5c
10005ce6:	00c1      	lsls	r1, r0, #3
10005ce8:	e635      	b.n	10005956 <_malloc_r+0x92>
10005cea:	2308      	movs	r3, #8
10005cec:	425b      	negs	r3, r3
10005cee:	469c      	mov	ip, r3
10005cf0:	44e1      	add	r9, ip
10005cf2:	464b      	mov	r3, r9
10005cf4:	689b      	ldr	r3, [r3, #8]
10005cf6:	3801      	subs	r0, #1
10005cf8:	454b      	cmp	r3, r9
10005cfa:	d000      	beq.n	10005cfe <_malloc_r+0x43a>
10005cfc:	e097      	b.n	10005e2e <_malloc_r+0x56a>
10005cfe:	4643      	mov	r3, r8
10005d00:	4203      	tst	r3, r0
10005d02:	d1f2      	bne.n	10005cea <_malloc_r+0x426>
10005d04:	687b      	ldr	r3, [r7, #4]
10005d06:	438b      	bics	r3, r1
10005d08:	607b      	str	r3, [r7, #4]
10005d0a:	0049      	lsls	r1, r1, #1
10005d0c:	4299      	cmp	r1, r3
10005d0e:	d900      	bls.n	10005d12 <_malloc_r+0x44e>
10005d10:	e6bb      	b.n	10005a8a <_malloc_r+0x1c6>
10005d12:	2900      	cmp	r1, #0
10005d14:	d104      	bne.n	10005d20 <_malloc_r+0x45c>
10005d16:	e6b8      	b.n	10005a8a <_malloc_r+0x1c6>
10005d18:	2204      	movs	r2, #4
10005d1a:	4694      	mov	ip, r2
10005d1c:	0049      	lsls	r1, r1, #1
10005d1e:	44e2      	add	sl, ip
10005d20:	420b      	tst	r3, r1
10005d22:	d0f9      	beq.n	10005d18 <_malloc_r+0x454>
10005d24:	4650      	mov	r0, sl
10005d26:	e660      	b.n	100059ea <_malloc_r+0x126>
10005d28:	3310      	adds	r3, #16
10005d2a:	9300      	str	r3, [sp, #0]
10005d2c:	e6cb      	b.n	10005ac6 <_malloc_r+0x202>
10005d2e:	1089      	asrs	r1, r1, #2
10005d30:	3b02      	subs	r3, #2
10005d32:	408b      	lsls	r3, r1
10005d34:	6879      	ldr	r1, [r7, #4]
10005d36:	430b      	orrs	r3, r1
10005d38:	607b      	str	r3, [r7, #4]
10005d3a:	e76b      	b.n	10005c14 <_malloc_r+0x350>
10005d3c:	9b00      	ldr	r3, [sp, #0]
10005d3e:	0030      	movs	r0, r6
10005d40:	4443      	add	r3, r8
10005d42:	425b      	negs	r3, r3
10005d44:	051b      	lsls	r3, r3, #20
10005d46:	0d1b      	lsrs	r3, r3, #20
10005d48:	0019      	movs	r1, r3
10005d4a:	469b      	mov	fp, r3
10005d4c:	f000 f89c 	bl	10005e88 <_sbrk_r>
10005d50:	1c43      	adds	r3, r0, #1
10005d52:	d000      	beq.n	10005d56 <_malloc_r+0x492>
10005d54:	e6f8      	b.n	10005b48 <_malloc_r+0x284>
10005d56:	2300      	movs	r3, #0
10005d58:	469b      	mov	fp, r3
10005d5a:	e6fa      	b.n	10005b52 <_malloc_r+0x28e>
10005d5c:	2a54      	cmp	r2, #84	; 0x54
10005d5e:	d82a      	bhi.n	10005db6 <_malloc_r+0x4f2>
10005d60:	0b1a      	lsrs	r2, r3, #12
10005d62:	0011      	movs	r1, r2
10005d64:	326f      	adds	r2, #111	; 0x6f
10005d66:	316e      	adds	r1, #110	; 0x6e
10005d68:	00d2      	lsls	r2, r2, #3
10005d6a:	e73c      	b.n	10005be6 <_malloc_r+0x322>
10005d6c:	23aa      	movs	r3, #170	; 0xaa
10005d6e:	005b      	lsls	r3, r3, #1
10005d70:	4298      	cmp	r0, r3
10005d72:	d82a      	bhi.n	10005dca <_malloc_r+0x506>
10005d74:	3bdd      	subs	r3, #221	; 0xdd
10005d76:	4698      	mov	r8, r3
10005d78:	0be8      	lsrs	r0, r5, #15
10005d7a:	4480      	add	r8, r0
10005d7c:	3078      	adds	r0, #120	; 0x78
10005d7e:	00c1      	lsls	r1, r0, #3
10005d80:	e5e9      	b.n	10005956 <_malloc_r+0x92>
10005d82:	4653      	mov	r3, sl
10005d84:	685b      	ldr	r3, [r3, #4]
10005d86:	9a00      	ldr	r2, [sp, #0]
10005d88:	469c      	mov	ip, r3
10005d8a:	4653      	mov	r3, sl
10005d8c:	4462      	add	r2, ip
10005d8e:	605a      	str	r2, [r3, #4]
10005d90:	e6b3      	b.n	10005afa <_malloc_r+0x236>
10005d92:	0509      	lsls	r1, r1, #20
10005d94:	d000      	beq.n	10005d98 <_malloc_r+0x4d4>
10005d96:	e6b0      	b.n	10005afa <_malloc_r+0x236>
10005d98:	0002      	movs	r2, r0
10005d9a:	68bc      	ldr	r4, [r7, #8]
10005d9c:	444a      	add	r2, r9
10005d9e:	3101      	adds	r1, #1
10005da0:	430a      	orrs	r2, r1
10005da2:	6062      	str	r2, [r4, #4]
10005da4:	e6f9      	b.n	10005b9a <_malloc_r+0x2d6>
10005da6:	465b      	mov	r3, fp
10005da8:	4642      	mov	r2, r8
10005daa:	601a      	str	r2, [r3, #0]
10005dac:	e6b0      	b.n	10005b10 <_malloc_r+0x24c>
10005dae:	4644      	mov	r4, r8
10005db0:	e6f3      	b.n	10005b9a <_malloc_r+0x2d6>
10005db2:	6041      	str	r1, [r0, #4]
10005db4:	e78e      	b.n	10005cd4 <_malloc_r+0x410>
10005db6:	21aa      	movs	r1, #170	; 0xaa
10005db8:	0049      	lsls	r1, r1, #1
10005dba:	428a      	cmp	r2, r1
10005dbc:	d824      	bhi.n	10005e08 <_malloc_r+0x544>
10005dbe:	0bda      	lsrs	r2, r3, #15
10005dc0:	0011      	movs	r1, r2
10005dc2:	3278      	adds	r2, #120	; 0x78
10005dc4:	3177      	adds	r1, #119	; 0x77
10005dc6:	00d2      	lsls	r2, r2, #3
10005dc8:	e70d      	b.n	10005be6 <_malloc_r+0x322>
10005dca:	4b1a      	ldr	r3, [pc, #104]	; (10005e34 <_malloc_r+0x570>)
10005dcc:	4298      	cmp	r0, r3
10005dce:	d824      	bhi.n	10005e1a <_malloc_r+0x556>
10005dd0:	237c      	movs	r3, #124	; 0x7c
10005dd2:	4698      	mov	r8, r3
10005dd4:	0ca8      	lsrs	r0, r5, #18
10005dd6:	4480      	add	r8, r0
10005dd8:	307d      	adds	r0, #125	; 0x7d
10005dda:	00c1      	lsls	r1, r0, #3
10005ddc:	e5bb      	b.n	10005956 <_malloc_r+0x92>
10005dde:	9a00      	ldr	r2, [sp, #0]
10005de0:	9b01      	ldr	r3, [sp, #4]
10005de2:	4694      	mov	ip, r2
10005de4:	4642      	mov	r2, r8
10005de6:	3b08      	subs	r3, #8
10005de8:	4463      	add	r3, ip
10005dea:	1a9b      	subs	r3, r3, r2
10005dec:	9300      	str	r3, [sp, #0]
10005dee:	2300      	movs	r3, #0
10005df0:	469b      	mov	fp, r3
10005df2:	e6ae      	b.n	10005b52 <_malloc_r+0x28e>
10005df4:	0021      	movs	r1, r4
10005df6:	0030      	movs	r0, r6
10005df8:	3108      	adds	r1, #8
10005dfa:	f000 f8d3 	bl	10005fa4 <_free_r>
10005dfe:	4653      	mov	r3, sl
10005e00:	68bc      	ldr	r4, [r7, #8]
10005e02:	685b      	ldr	r3, [r3, #4]
10005e04:	6862      	ldr	r2, [r4, #4]
10005e06:	e6c8      	b.n	10005b9a <_malloc_r+0x2d6>
10005e08:	490a      	ldr	r1, [pc, #40]	; (10005e34 <_malloc_r+0x570>)
10005e0a:	428a      	cmp	r2, r1
10005e0c:	d80b      	bhi.n	10005e26 <_malloc_r+0x562>
10005e0e:	0c9a      	lsrs	r2, r3, #18
10005e10:	0011      	movs	r1, r2
10005e12:	327d      	adds	r2, #125	; 0x7d
10005e14:	317c      	adds	r1, #124	; 0x7c
10005e16:	00d2      	lsls	r2, r2, #3
10005e18:	e6e5      	b.n	10005be6 <_malloc_r+0x322>
10005e1a:	21fe      	movs	r1, #254	; 0xfe
10005e1c:	237e      	movs	r3, #126	; 0x7e
10005e1e:	207f      	movs	r0, #127	; 0x7f
10005e20:	4698      	mov	r8, r3
10005e22:	0089      	lsls	r1, r1, #2
10005e24:	e597      	b.n	10005956 <_malloc_r+0x92>
10005e26:	22fe      	movs	r2, #254	; 0xfe
10005e28:	217e      	movs	r1, #126	; 0x7e
10005e2a:	0092      	lsls	r2, r2, #2
10005e2c:	e6db      	b.n	10005be6 <_malloc_r+0x322>
10005e2e:	687b      	ldr	r3, [r7, #4]
10005e30:	e76b      	b.n	10005d0a <_malloc_r+0x446>
10005e32:	46c0      	nop			; (mov r8, r8)
10005e34:	00000554 	.word	0x00000554

10005e38 <__malloc_lock>:
10005e38:	4770      	bx	lr
10005e3a:	46c0      	nop			; (mov r8, r8)

10005e3c <__malloc_unlock>:
10005e3c:	4770      	bx	lr
10005e3e:	46c0      	nop			; (mov r8, r8)

10005e40 <srand>:
10005e40:	2200      	movs	r2, #0
10005e42:	4b03      	ldr	r3, [pc, #12]	; (10005e50 <srand+0x10>)
10005e44:	681b      	ldr	r3, [r3, #0]
10005e46:	33a8      	adds	r3, #168	; 0xa8
10005e48:	6018      	str	r0, [r3, #0]
10005e4a:	605a      	str	r2, [r3, #4]
10005e4c:	4770      	bx	lr
10005e4e:	46c0      	nop			; (mov r8, r8)
10005e50:	20000478 	.word	0x20000478

10005e54 <rand>:
10005e54:	4b09      	ldr	r3, [pc, #36]	; (10005e7c <rand+0x28>)
10005e56:	b510      	push	{r4, lr}
10005e58:	681c      	ldr	r4, [r3, #0]
10005e5a:	4a09      	ldr	r2, [pc, #36]	; (10005e80 <rand+0x2c>)
10005e5c:	34a8      	adds	r4, #168	; 0xa8
10005e5e:	6820      	ldr	r0, [r4, #0]
10005e60:	6861      	ldr	r1, [r4, #4]
10005e62:	4b08      	ldr	r3, [pc, #32]	; (10005e84 <rand+0x30>)
10005e64:	f7fc fffc 	bl	10002e60 <__wrap___aeabi_lmul>
10005e68:	2201      	movs	r2, #1
10005e6a:	2300      	movs	r3, #0
10005e6c:	1880      	adds	r0, r0, r2
10005e6e:	4159      	adcs	r1, r3
10005e70:	6020      	str	r0, [r4, #0]
10005e72:	6061      	str	r1, [r4, #4]
10005e74:	0048      	lsls	r0, r1, #1
10005e76:	0840      	lsrs	r0, r0, #1
10005e78:	bd10      	pop	{r4, pc}
10005e7a:	46c0      	nop			; (mov r8, r8)
10005e7c:	20000478 	.word	0x20000478
10005e80:	4c957f2d 	.word	0x4c957f2d
10005e84:	5851f42d 	.word	0x5851f42d

10005e88 <_sbrk_r>:
10005e88:	2300      	movs	r3, #0
10005e8a:	b570      	push	{r4, r5, r6, lr}
10005e8c:	4d06      	ldr	r5, [pc, #24]	; (10005ea8 <_sbrk_r+0x20>)
10005e8e:	0004      	movs	r4, r0
10005e90:	0008      	movs	r0, r1
10005e92:	602b      	str	r3, [r5, #0]
10005e94:	f7fe fbe0 	bl	10004658 <_sbrk>
10005e98:	1c43      	adds	r3, r0, #1
10005e9a:	d000      	beq.n	10005e9e <_sbrk_r+0x16>
10005e9c:	bd70      	pop	{r4, r5, r6, pc}
10005e9e:	682b      	ldr	r3, [r5, #0]
10005ea0:	2b00      	cmp	r3, #0
10005ea2:	d0fb      	beq.n	10005e9c <_sbrk_r+0x14>
10005ea4:	6023      	str	r3, [r4, #0]
10005ea6:	e7f9      	b.n	10005e9c <_sbrk_r+0x14>
10005ea8:	200010e8 	.word	0x200010e8

10005eac <strlen>:
10005eac:	b510      	push	{r4, lr}
10005eae:	0783      	lsls	r3, r0, #30
10005eb0:	d00a      	beq.n	10005ec8 <strlen+0x1c>
10005eb2:	0003      	movs	r3, r0
10005eb4:	2103      	movs	r1, #3
10005eb6:	e002      	b.n	10005ebe <strlen+0x12>
10005eb8:	3301      	adds	r3, #1
10005eba:	420b      	tst	r3, r1
10005ebc:	d005      	beq.n	10005eca <strlen+0x1e>
10005ebe:	781a      	ldrb	r2, [r3, #0]
10005ec0:	2a00      	cmp	r2, #0
10005ec2:	d1f9      	bne.n	10005eb8 <strlen+0xc>
10005ec4:	1a18      	subs	r0, r3, r0
10005ec6:	bd10      	pop	{r4, pc}
10005ec8:	0003      	movs	r3, r0
10005eca:	6819      	ldr	r1, [r3, #0]
10005ecc:	4a0c      	ldr	r2, [pc, #48]	; (10005f00 <strlen+0x54>)
10005ece:	4c0d      	ldr	r4, [pc, #52]	; (10005f04 <strlen+0x58>)
10005ed0:	188a      	adds	r2, r1, r2
10005ed2:	438a      	bics	r2, r1
10005ed4:	4222      	tst	r2, r4
10005ed6:	d10f      	bne.n	10005ef8 <strlen+0x4c>
10005ed8:	6859      	ldr	r1, [r3, #4]
10005eda:	4a09      	ldr	r2, [pc, #36]	; (10005f00 <strlen+0x54>)
10005edc:	3304      	adds	r3, #4
10005ede:	188a      	adds	r2, r1, r2
10005ee0:	438a      	bics	r2, r1
10005ee2:	4222      	tst	r2, r4
10005ee4:	d108      	bne.n	10005ef8 <strlen+0x4c>
10005ee6:	6859      	ldr	r1, [r3, #4]
10005ee8:	4a05      	ldr	r2, [pc, #20]	; (10005f00 <strlen+0x54>)
10005eea:	3304      	adds	r3, #4
10005eec:	188a      	adds	r2, r1, r2
10005eee:	438a      	bics	r2, r1
10005ef0:	4222      	tst	r2, r4
10005ef2:	d0f1      	beq.n	10005ed8 <strlen+0x2c>
10005ef4:	e000      	b.n	10005ef8 <strlen+0x4c>
10005ef6:	3301      	adds	r3, #1
10005ef8:	781a      	ldrb	r2, [r3, #0]
10005efa:	2a00      	cmp	r2, #0
10005efc:	d1fb      	bne.n	10005ef6 <strlen+0x4a>
10005efe:	e7e1      	b.n	10005ec4 <strlen+0x18>
10005f00:	fefefeff 	.word	0xfefefeff
10005f04:	80808080 	.word	0x80808080

10005f08 <_malloc_trim_r>:
10005f08:	b5f8      	push	{r3, r4, r5, r6, r7, lr}
10005f0a:	000c      	movs	r4, r1
10005f0c:	0005      	movs	r5, r0
10005f0e:	f7ff ff93 	bl	10005e38 <__malloc_lock>
10005f12:	4f20      	ldr	r7, [pc, #128]	; (10005f94 <_malloc_trim_r+0x8c>)
10005f14:	68bb      	ldr	r3, [r7, #8]
10005f16:	685e      	ldr	r6, [r3, #4]
10005f18:	2303      	movs	r3, #3
10005f1a:	439e      	bics	r6, r3
10005f1c:	4b1e      	ldr	r3, [pc, #120]	; (10005f98 <_malloc_trim_r+0x90>)
10005f1e:	1b34      	subs	r4, r6, r4
10005f20:	469c      	mov	ip, r3
10005f22:	4464      	add	r4, ip
10005f24:	0b24      	lsrs	r4, r4, #12
10005f26:	3c01      	subs	r4, #1
10005f28:	3311      	adds	r3, #17
10005f2a:	0324      	lsls	r4, r4, #12
10005f2c:	429c      	cmp	r4, r3
10005f2e:	db07      	blt.n	10005f40 <_malloc_trim_r+0x38>
10005f30:	2100      	movs	r1, #0
10005f32:	0028      	movs	r0, r5
10005f34:	f7ff ffa8 	bl	10005e88 <_sbrk_r>
10005f38:	68bb      	ldr	r3, [r7, #8]
10005f3a:	199b      	adds	r3, r3, r6
10005f3c:	4298      	cmp	r0, r3
10005f3e:	d004      	beq.n	10005f4a <_malloc_trim_r+0x42>
10005f40:	0028      	movs	r0, r5
10005f42:	f7ff ff7b 	bl	10005e3c <__malloc_unlock>
10005f46:	2000      	movs	r0, #0
10005f48:	bdf8      	pop	{r3, r4, r5, r6, r7, pc}
10005f4a:	0028      	movs	r0, r5
10005f4c:	4261      	negs	r1, r4
10005f4e:	f7ff ff9b 	bl	10005e88 <_sbrk_r>
10005f52:	1c43      	adds	r3, r0, #1
10005f54:	d00d      	beq.n	10005f72 <_malloc_trim_r+0x6a>
10005f56:	2201      	movs	r2, #1
10005f58:	68bb      	ldr	r3, [r7, #8]
10005f5a:	1b36      	subs	r6, r6, r4
10005f5c:	4316      	orrs	r6, r2
10005f5e:	605e      	str	r6, [r3, #4]
10005f60:	4b0e      	ldr	r3, [pc, #56]	; (10005f9c <_malloc_trim_r+0x94>)
10005f62:	0028      	movs	r0, r5
10005f64:	681a      	ldr	r2, [r3, #0]
10005f66:	1b14      	subs	r4, r2, r4
10005f68:	601c      	str	r4, [r3, #0]
10005f6a:	f7ff ff67 	bl	10005e3c <__malloc_unlock>
10005f6e:	2001      	movs	r0, #1
10005f70:	e7ea      	b.n	10005f48 <_malloc_trim_r+0x40>
10005f72:	2100      	movs	r1, #0
10005f74:	0028      	movs	r0, r5
10005f76:	f7ff ff87 	bl	10005e88 <_sbrk_r>
10005f7a:	68ba      	ldr	r2, [r7, #8]
10005f7c:	1a83      	subs	r3, r0, r2
10005f7e:	2b0f      	cmp	r3, #15
10005f80:	ddde      	ble.n	10005f40 <_malloc_trim_r+0x38>
10005f82:	4907      	ldr	r1, [pc, #28]	; (10005fa0 <_malloc_trim_r+0x98>)
10005f84:	6809      	ldr	r1, [r1, #0]
10005f86:	1a40      	subs	r0, r0, r1
10005f88:	4904      	ldr	r1, [pc, #16]	; (10005f9c <_malloc_trim_r+0x94>)
10005f8a:	6008      	str	r0, [r1, #0]
10005f8c:	2101      	movs	r1, #1
10005f8e:	430b      	orrs	r3, r1
10005f90:	6053      	str	r3, [r2, #4]
10005f92:	e7d5      	b.n	10005f40 <_malloc_trim_r+0x38>
10005f94:	200008b0 	.word	0x200008b0
10005f98:	00000fef 	.word	0x00000fef
10005f9c:	200010b8 	.word	0x200010b8
10005fa0:	200008a8 	.word	0x200008a8

10005fa4 <_free_r>:
10005fa4:	b5f0      	push	{r4, r5, r6, r7, lr}
10005fa6:	46c6      	mov	lr, r8
10005fa8:	0005      	movs	r5, r0
10005faa:	000c      	movs	r4, r1
10005fac:	b500      	push	{lr}
10005fae:	2900      	cmp	r1, #0
10005fb0:	d04f      	beq.n	10006052 <_free_r+0xae>
10005fb2:	f7ff ff41 	bl	10005e38 <__malloc_lock>
10005fb6:	0021      	movs	r1, r4
10005fb8:	3908      	subs	r1, #8
10005fba:	684c      	ldr	r4, [r1, #4]
10005fbc:	2601      	movs	r6, #1
10005fbe:	0022      	movs	r2, r4
10005fc0:	2003      	movs	r0, #3
10005fc2:	43b2      	bics	r2, r6
10005fc4:	188f      	adds	r7, r1, r2
10005fc6:	687b      	ldr	r3, [r7, #4]
10005fc8:	4383      	bics	r3, r0
10005fca:	4862      	ldr	r0, [pc, #392]	; (10006154 <_free_r+0x1b0>)
10005fcc:	4698      	mov	r8, r3
10005fce:	6883      	ldr	r3, [r0, #8]
10005fd0:	42bb      	cmp	r3, r7
10005fd2:	d06a      	beq.n	100060aa <_free_r+0x106>
10005fd4:	4643      	mov	r3, r8
10005fd6:	607b      	str	r3, [r7, #4]
10005fd8:	4226      	tst	r6, r4
10005fda:	d11e      	bne.n	1000601a <_free_r+0x76>
10005fdc:	2308      	movs	r3, #8
10005fde:	469c      	mov	ip, r3
10005fe0:	680c      	ldr	r4, [r1, #0]
10005fe2:	4484      	add	ip, r0
10005fe4:	1b09      	subs	r1, r1, r4
10005fe6:	1912      	adds	r2, r2, r4
10005fe8:	688c      	ldr	r4, [r1, #8]
10005fea:	4564      	cmp	r4, ip
10005fec:	d04f      	beq.n	1000608e <_free_r+0xea>
10005fee:	68cb      	ldr	r3, [r1, #12]
10005ff0:	60e3      	str	r3, [r4, #12]
10005ff2:	609c      	str	r4, [r3, #8]
10005ff4:	4643      	mov	r3, r8
10005ff6:	18fc      	adds	r4, r7, r3
10005ff8:	6864      	ldr	r4, [r4, #4]
10005ffa:	4234      	tst	r4, r6
10005ffc:	d111      	bne.n	10006022 <_free_r+0x7e>
10005ffe:	68bb      	ldr	r3, [r7, #8]
10006000:	4c55      	ldr	r4, [pc, #340]	; (10006158 <_free_r+0x1b4>)
10006002:	4442      	add	r2, r8
10006004:	42a3      	cmp	r3, r4
10006006:	d100      	bne.n	1000600a <_free_r+0x66>
10006008:	e07e      	b.n	10006108 <_free_r+0x164>
1000600a:	68fc      	ldr	r4, [r7, #12]
1000600c:	60dc      	str	r4, [r3, #12]
1000600e:	60a3      	str	r3, [r4, #8]
10006010:	2301      	movs	r3, #1
10006012:	4313      	orrs	r3, r2
10006014:	604b      	str	r3, [r1, #4]
10006016:	508a      	str	r2, [r1, r2]
10006018:	e006      	b.n	10006028 <_free_r+0x84>
1000601a:	18fc      	adds	r4, r7, r3
1000601c:	6864      	ldr	r4, [r4, #4]
1000601e:	4234      	tst	r4, r6
10006020:	d0ed      	beq.n	10005ffe <_free_r+0x5a>
10006022:	4316      	orrs	r6, r2
10006024:	604e      	str	r6, [r1, #4]
10006026:	603a      	str	r2, [r7, #0]
10006028:	2380      	movs	r3, #128	; 0x80
1000602a:	009b      	lsls	r3, r3, #2
1000602c:	429a      	cmp	r2, r3
1000602e:	d213      	bcs.n	10006058 <_free_r+0xb4>
10006030:	0954      	lsrs	r4, r2, #5
10006032:	08d3      	lsrs	r3, r2, #3
10006034:	2201      	movs	r2, #1
10006036:	40a2      	lsls	r2, r4
10006038:	6844      	ldr	r4, [r0, #4]
1000603a:	00db      	lsls	r3, r3, #3
1000603c:	4322      	orrs	r2, r4
1000603e:	6042      	str	r2, [r0, #4]
10006040:	1818      	adds	r0, r3, r0
10006042:	6883      	ldr	r3, [r0, #8]
10006044:	60c8      	str	r0, [r1, #12]
10006046:	608b      	str	r3, [r1, #8]
10006048:	6081      	str	r1, [r0, #8]
1000604a:	60d9      	str	r1, [r3, #12]
1000604c:	0028      	movs	r0, r5
1000604e:	f7ff fef5 	bl	10005e3c <__malloc_unlock>
10006052:	bc80      	pop	{r7}
10006054:	46b8      	mov	r8, r7
10006056:	bdf0      	pop	{r4, r5, r6, r7, pc}
10006058:	0a53      	lsrs	r3, r2, #9
1000605a:	2b04      	cmp	r3, #4
1000605c:	d83e      	bhi.n	100060dc <_free_r+0x138>
1000605e:	0994      	lsrs	r4, r2, #6
10006060:	0026      	movs	r6, r4
10006062:	3439      	adds	r4, #57	; 0x39
10006064:	3638      	adds	r6, #56	; 0x38
10006066:	00e4      	lsls	r4, r4, #3
10006068:	1904      	adds	r4, r0, r4
1000606a:	6823      	ldr	r3, [r4, #0]
1000606c:	3c08      	subs	r4, #8
1000606e:	2703      	movs	r7, #3
10006070:	429c      	cmp	r4, r3
10006072:	d042      	beq.n	100060fa <_free_r+0x156>
10006074:	6858      	ldr	r0, [r3, #4]
10006076:	43b8      	bics	r0, r7
10006078:	4290      	cmp	r0, r2
1000607a:	d902      	bls.n	10006082 <_free_r+0xde>
1000607c:	689b      	ldr	r3, [r3, #8]
1000607e:	429c      	cmp	r4, r3
10006080:	d1f8      	bne.n	10006074 <_free_r+0xd0>
10006082:	68dc      	ldr	r4, [r3, #12]
10006084:	60cc      	str	r4, [r1, #12]
10006086:	608b      	str	r3, [r1, #8]
10006088:	60a1      	str	r1, [r4, #8]
1000608a:	60d9      	str	r1, [r3, #12]
1000608c:	e7de      	b.n	1000604c <_free_r+0xa8>
1000608e:	4643      	mov	r3, r8
10006090:	18f8      	adds	r0, r7, r3
10006092:	6840      	ldr	r0, [r0, #4]
10006094:	4230      	tst	r0, r6
10006096:	d157      	bne.n	10006148 <_free_r+0x1a4>
10006098:	68fb      	ldr	r3, [r7, #12]
1000609a:	68b8      	ldr	r0, [r7, #8]
1000609c:	4442      	add	r2, r8
1000609e:	4316      	orrs	r6, r2
100060a0:	60c3      	str	r3, [r0, #12]
100060a2:	6098      	str	r0, [r3, #8]
100060a4:	604e      	str	r6, [r1, #4]
100060a6:	508a      	str	r2, [r1, r2]
100060a8:	e7d0      	b.n	1000604c <_free_r+0xa8>
100060aa:	0013      	movs	r3, r2
100060ac:	4443      	add	r3, r8
100060ae:	4226      	tst	r6, r4
100060b0:	d106      	bne.n	100060c0 <_free_r+0x11c>
100060b2:	680a      	ldr	r2, [r1, #0]
100060b4:	1a89      	subs	r1, r1, r2
100060b6:	688c      	ldr	r4, [r1, #8]
100060b8:	189b      	adds	r3, r3, r2
100060ba:	68ca      	ldr	r2, [r1, #12]
100060bc:	60e2      	str	r2, [r4, #12]
100060be:	6094      	str	r4, [r2, #8]
100060c0:	2201      	movs	r2, #1
100060c2:	431a      	orrs	r2, r3
100060c4:	604a      	str	r2, [r1, #4]
100060c6:	4a25      	ldr	r2, [pc, #148]	; (1000615c <_free_r+0x1b8>)
100060c8:	6081      	str	r1, [r0, #8]
100060ca:	6812      	ldr	r2, [r2, #0]
100060cc:	429a      	cmp	r2, r3
100060ce:	d8bd      	bhi.n	1000604c <_free_r+0xa8>
100060d0:	4b23      	ldr	r3, [pc, #140]	; (10006160 <_free_r+0x1bc>)
100060d2:	0028      	movs	r0, r5
100060d4:	6819      	ldr	r1, [r3, #0]
100060d6:	f7ff ff17 	bl	10005f08 <_malloc_trim_r>
100060da:	e7b7      	b.n	1000604c <_free_r+0xa8>
100060dc:	2b14      	cmp	r3, #20
100060de:	d907      	bls.n	100060f0 <_free_r+0x14c>
100060e0:	2b54      	cmp	r3, #84	; 0x54
100060e2:	d81a      	bhi.n	1000611a <_free_r+0x176>
100060e4:	0b14      	lsrs	r4, r2, #12
100060e6:	0026      	movs	r6, r4
100060e8:	346f      	adds	r4, #111	; 0x6f
100060ea:	366e      	adds	r6, #110	; 0x6e
100060ec:	00e4      	lsls	r4, r4, #3
100060ee:	e7bb      	b.n	10006068 <_free_r+0xc4>
100060f0:	001e      	movs	r6, r3
100060f2:	335c      	adds	r3, #92	; 0x5c
100060f4:	365b      	adds	r6, #91	; 0x5b
100060f6:	00dc      	lsls	r4, r3, #3
100060f8:	e7b6      	b.n	10006068 <_free_r+0xc4>
100060fa:	2201      	movs	r2, #1
100060fc:	10b6      	asrs	r6, r6, #2
100060fe:	40b2      	lsls	r2, r6
10006100:	6846      	ldr	r6, [r0, #4]
10006102:	4332      	orrs	r2, r6
10006104:	6042      	str	r2, [r0, #4]
10006106:	e7bd      	b.n	10006084 <_free_r+0xe0>
10006108:	60d9      	str	r1, [r3, #12]
1000610a:	6099      	str	r1, [r3, #8]
1000610c:	60cb      	str	r3, [r1, #12]
1000610e:	608b      	str	r3, [r1, #8]
10006110:	2301      	movs	r3, #1
10006112:	4313      	orrs	r3, r2
10006114:	604b      	str	r3, [r1, #4]
10006116:	508a      	str	r2, [r1, r2]
10006118:	e798      	b.n	1000604c <_free_r+0xa8>
1000611a:	24aa      	movs	r4, #170	; 0xaa
1000611c:	0064      	lsls	r4, r4, #1
1000611e:	42a3      	cmp	r3, r4
10006120:	d805      	bhi.n	1000612e <_free_r+0x18a>
10006122:	0bd4      	lsrs	r4, r2, #15
10006124:	0026      	movs	r6, r4
10006126:	3478      	adds	r4, #120	; 0x78
10006128:	3677      	adds	r6, #119	; 0x77
1000612a:	00e4      	lsls	r4, r4, #3
1000612c:	e79c      	b.n	10006068 <_free_r+0xc4>
1000612e:	4c0d      	ldr	r4, [pc, #52]	; (10006164 <_free_r+0x1c0>)
10006130:	42a3      	cmp	r3, r4
10006132:	d805      	bhi.n	10006140 <_free_r+0x19c>
10006134:	0c94      	lsrs	r4, r2, #18
10006136:	0026      	movs	r6, r4
10006138:	347d      	adds	r4, #125	; 0x7d
1000613a:	367c      	adds	r6, #124	; 0x7c
1000613c:	00e4      	lsls	r4, r4, #3
1000613e:	e793      	b.n	10006068 <_free_r+0xc4>
10006140:	24fe      	movs	r4, #254	; 0xfe
10006142:	267e      	movs	r6, #126	; 0x7e
10006144:	00a4      	lsls	r4, r4, #2
10006146:	e78f      	b.n	10006068 <_free_r+0xc4>
10006148:	0033      	movs	r3, r6
1000614a:	4313      	orrs	r3, r2
1000614c:	604b      	str	r3, [r1, #4]
1000614e:	603a      	str	r2, [r7, #0]
10006150:	e77c      	b.n	1000604c <_free_r+0xa8>
10006152:	46c0      	nop			; (mov r8, r8)
10006154:	200008b0 	.word	0x200008b0
10006158:	200008b8 	.word	0x200008b8
1000615c:	200008ac 	.word	0x200008ac
10006160:	200010b4 	.word	0x200010b4
10006164:	00000554 	.word	0x00000554

10006168 <_fini>:
10006168:	b5f8      	push	{r3, r4, r5, r6, r7, lr}
1000616a:	46c0      	nop			; (mov r8, r8)
1000616c:	0000      	movs	r0, r0
	...

10006170 <__sem_release_veneer>:
10006170:	b401      	push	{r0}
10006172:	4802      	ldr	r0, [pc, #8]	; (1000617c <__sem_release_veneer+0xc>)
10006174:	4684      	mov	ip, r0
10006176:	bc01      	pop	{r0}
10006178:	4760      	bx	ip
1000617a:	bf00      	nop
1000617c:	2000016d 	.word	0x2000016d

10006180 <__mutex_exit_veneer>:
10006180:	b401      	push	{r0}
10006182:	4802      	ldr	r0, [pc, #8]	; (1000618c <__mutex_exit_veneer+0xc>)
10006184:	4684      	mov	ip, r0
10006186:	bc01      	pop	{r0}
10006188:	4760      	bx	ip
1000618a:	bf00      	nop
1000618c:	20000345 	.word	0x20000345

10006190 <____aeabi_ldiv0_veneer>:
10006190:	b401      	push	{r0}
10006192:	4802      	ldr	r0, [pc, #8]	; (1000619c <____aeabi_ldiv0_veneer+0xc>)
10006194:	4684      	mov	ip, r0
10006196:	bc01      	pop	{r0}
10006198:	4760      	bx	ip
1000619a:	bf00      	nop
1000619c:	200003b1 	.word	0x200003b1

100061a0 <__recursive_mutex_try_enter_veneer>:
100061a0:	b401      	push	{r0}
100061a2:	4802      	ldr	r0, [pc, #8]	; (100061ac <__recursive_mutex_try_enter_veneer+0xc>)
100061a4:	4684      	mov	ip, r0
100061a6:	bc01      	pop	{r0}
100061a8:	4760      	bx	ip
100061aa:	bf00      	nop
100061ac:	200002f1 	.word	0x200002f1

100061b0 <____aeabi_idiv0_veneer>:
100061b0:	b401      	push	{r0}
100061b2:	4802      	ldr	r0, [pc, #8]	; (100061bc <____aeabi_idiv0_veneer+0xc>)
100061b4:	4684      	mov	ip, r0
100061b6:	bc01      	pop	{r0}
100061b8:	4760      	bx	ip
100061ba:	bf00      	nop
100061bc:	200003b1 	.word	0x200003b1

100061c0 <__sem_acquire_blocking_veneer>:
100061c0:	b401      	push	{r0}
100061c2:	4802      	ldr	r0, [pc, #8]	; (100061cc <__sem_acquire_blocking_veneer+0xc>)
100061c4:	4684      	mov	ip, r0
100061c6:	bc01      	pop	{r0}
100061c8:	4760      	bx	ip
100061ca:	bf00      	nop
100061cc:	200000c1 	.word	0x200000c1

100061d0 <__recursive_mutex_enter_blocking_veneer>:
100061d0:	b401      	push	{r0}
100061d2:	4802      	ldr	r0, [pc, #8]	; (100061dc <__recursive_mutex_enter_blocking_veneer+0xc>)
100061d4:	4684      	mov	ip, r0
100061d6:	bc01      	pop	{r0}
100061d8:	4760      	bx	ip
100061da:	bf00      	nop
100061dc:	20000201 	.word	0x20000201

100061e0 <__mutex_try_enter_block_until_veneer>:
100061e0:	b401      	push	{r0}
100061e2:	4802      	ldr	r0, [pc, #8]	; (100061ec <__mutex_try_enter_block_until_veneer+0xc>)
100061e4:	4684      	mov	ip, r0
100061e6:	bc01      	pop	{r0}
100061e8:	4760      	bx	ip
100061ea:	bf00      	nop
100061ec:	20000255 	.word	0x20000255

100061f0 <__recursive_mutex_exit_veneer>:
100061f0:	b401      	push	{r0}
100061f2:	4802      	ldr	r0, [pc, #8]	; (100061fc <__recursive_mutex_exit_veneer+0xc>)
100061f4:	4684      	mov	ip, r0
100061f6:	bc01      	pop	{r0}
100061f8:	4760      	bx	ip
100061fa:	bf00      	nop
100061fc:	2000036d 	.word	0x2000036d

10006200 <__mutex_enter_blocking_veneer>:
10006200:	b401      	push	{r0}
10006202:	4802      	ldr	r0, [pc, #8]	; (1000620c <__mutex_enter_blocking_veneer+0xc>)
10006204:	4684      	mov	ip, r0
10006206:	bc01      	pop	{r0}
10006208:	4760      	bx	ip
1000620a:	bf00      	nop
1000620c:	200001b9 	.word	0x200001b9

10006210 <__sem_acquire_block_until_veneer>:
10006210:	b401      	push	{r0}
10006212:	4802      	ldr	r0, [pc, #8]	; (1000621c <__sem_acquire_block_until_veneer+0xc>)
10006214:	4684      	mov	ip, r0
10006216:	bc01      	pop	{r0}
10006218:	4760      	bx	ip
1000621a:	bf00      	nop
1000621c:	20000105 	.word	0x20000105

10006220 <__pre_init_runtime_init_early_resets>:
10006220:	10002045                                E ..

10006224 <__pre_init_runtime_init_usb_power_down>:
10006224:	10002071 100021bd 10003069 10002861     q ...!..i0..a(..
10006234:	10002f39                                9/..

10006238 <__pre_init_runtime_init_clocks>:
10006238:	100020e5                                . ..

1000623c <__pre_init_runtime_init_post_clock_resets>:
1000623c:	1000208d                                . ..

10006240 <__pre_init_runtime_init_rp2040_gpio_ie_disable>:
10006240:	100020ad                                . ..

10006244 <__pre_init_runtime_init_spin_locks_reset>:
10006244:	100020c1                                . ..

10006248 <__pre_init_runtime_init_mutex>:
10006248:	1000101d                                ....

1000624c <__pre_init_runtime_init_install_ram_vector_table>:
1000624c:	100020c9                                . ..

10006250 <__pre_init_runtime_init_default_alarm_pool>:
10006250:	100013c9                                ....

10006254 <__pre_init_first_per_core_initializer>:
10006254:	10001fe5                                ....

10006258 <__pre_init_runtime_init_per_core_irq_priorities>:
10006258:	10000a15                                ....

1000625c <__frame_dummy_init_array_entry>:
1000625c:	100002fd                                ....

Disassembly of section .data:

200000c0 <sem_acquire_blocking>:
200000c0:	b510      	push	{r4, lr}
200000c2:	2400      	movs	r4, #0
200000c4:	e006      	b.n	200000d4 <sem_acquire_blocking+0x14>
200000c6:	6803      	ldr	r3, [r0, #0]
200000c8:	f3bf 8f5f 	dmb	sy
200000cc:	601c      	str	r4, [r3, #0]
200000ce:	f381 8810 	msr	PRIMASK, r1
200000d2:	bf20      	wfe
200000d4:	6802      	ldr	r2, [r0, #0]
200000d6:	f3ef 8110 	mrs	r1, PRIMASK
200000da:	b672      	cpsid	i
200000dc:	6813      	ldr	r3, [r2, #0]
200000de:	2b00      	cmp	r3, #0
200000e0:	d0fc      	beq.n	200000dc <sem_acquire_blocking+0x1c>
200000e2:	f3bf 8f5f 	dmb	sy
200000e6:	2204      	movs	r2, #4
200000e8:	5e83      	ldrsh	r3, [r0, r2]
200000ea:	2b00      	cmp	r3, #0
200000ec:	ddeb      	ble.n	200000c6 <sem_acquire_blocking+0x6>
200000ee:	3b01      	subs	r3, #1
200000f0:	8083      	strh	r3, [r0, #4]
200000f2:	6803      	ldr	r3, [r0, #0]
200000f4:	f3bf 8f5f 	dmb	sy
200000f8:	2200      	movs	r2, #0
200000fa:	601a      	str	r2, [r3, #0]
200000fc:	f381 8810 	msr	PRIMASK, r1
20000100:	bd10      	pop	{r4, pc}
20000102:	46c0      	nop			; (mov r8, r8)

20000104 <sem_acquire_block_until>:
20000104:	b5f8      	push	{r3, r4, r5, r6, r7, lr}
20000106:	4647      	mov	r7, r8
20000108:	46ce      	mov	lr, r9
2000010a:	b580      	push	{r7, lr}
2000010c:	001f      	movs	r7, r3
2000010e:	2300      	movs	r3, #0
20000110:	0004      	movs	r4, r0
20000112:	4690      	mov	r8, r2
20000114:	4699      	mov	r9, r3
20000116:	e00c      	b.n	20000132 <sem_acquire_block_until+0x2e>
20000118:	6823      	ldr	r3, [r4, #0]
2000011a:	f3bf 8f5f 	dmb	sy
2000011e:	464a      	mov	r2, r9
20000120:	601a      	str	r2, [r3, #0]
20000122:	f38c 8810 	msr	PRIMASK, ip
20000126:	4640      	mov	r0, r8
20000128:	0039      	movs	r1, r7
2000012a:	f000 f945 	bl	200003b8 <__best_effort_wfe_or_timeout_veneer>
2000012e:	2800      	cmp	r0, #0
20000130:	d11a      	bne.n	20000168 <sem_acquire_block_until+0x64>
20000132:	6826      	ldr	r6, [r4, #0]
20000134:	f3ef 8c10 	mrs	ip, PRIMASK
20000138:	b672      	cpsid	i
2000013a:	6835      	ldr	r5, [r6, #0]
2000013c:	2d00      	cmp	r5, #0
2000013e:	d0fc      	beq.n	2000013a <sem_acquire_block_until+0x36>
20000140:	f3bf 8f5f 	dmb	sy
20000144:	2304      	movs	r3, #4
20000146:	5ee5      	ldrsh	r5, [r4, r3]
20000148:	2d00      	cmp	r5, #0
2000014a:	dde5      	ble.n	20000118 <sem_acquire_block_until+0x14>
2000014c:	3d01      	subs	r5, #1
2000014e:	80a5      	strh	r5, [r4, #4]
20000150:	6823      	ldr	r3, [r4, #0]
20000152:	f3bf 8f5f 	dmb	sy
20000156:	2200      	movs	r2, #0
20000158:	601a      	str	r2, [r3, #0]
2000015a:	f38c 8810 	msr	PRIMASK, ip
2000015e:	2001      	movs	r0, #1
20000160:	bcc0      	pop	{r6, r7}
20000162:	46b9      	mov	r9, r7
20000164:	46b0      	mov	r8, r6
20000166:	bdf8      	pop	{r3, r4, r5, r6, r7, pc}
20000168:	2000      	movs	r0, #0
2000016a:	e7f9      	b.n	20000160 <sem_acquire_block_until+0x5c>

2000016c <sem_release>:
2000016c:	b510      	push	{r4, lr}
2000016e:	6802      	ldr	r2, [r0, #0]
20000170:	f3ef 8110 	mrs	r1, PRIMASK
20000174:	b672      	cpsid	i
20000176:	6813      	ldr	r3, [r2, #0]
20000178:	2b00      	cmp	r3, #0
2000017a:	d0fc      	beq.n	20000176 <sem_release+0xa>
2000017c:	f3bf 8f5f 	dmb	sy
20000180:	2204      	movs	r2, #4
20000182:	5e83      	ldrsh	r3, [r0, r2]
20000184:	2406      	movs	r4, #6
20000186:	5f02      	ldrsh	r2, [r0, r4]
20000188:	429a      	cmp	r2, r3
2000018a:	dd0b      	ble.n	200001a4 <sem_release+0x38>
2000018c:	3301      	adds	r3, #1
2000018e:	8083      	strh	r3, [r0, #4]
20000190:	6803      	ldr	r3, [r0, #0]
20000192:	f3bf 8f5f 	dmb	sy
20000196:	2200      	movs	r2, #0
20000198:	601a      	str	r2, [r3, #0]
2000019a:	f381 8810 	msr	PRIMASK, r1
2000019e:	bf40      	sev
200001a0:	2001      	movs	r0, #1
200001a2:	bd10      	pop	{r4, pc}
200001a4:	6803      	ldr	r3, [r0, #0]
200001a6:	f3bf 8f5f 	dmb	sy
200001aa:	2200      	movs	r2, #0
200001ac:	601a      	str	r2, [r3, #0]
200001ae:	f381 8810 	msr	PRIMASK, r1
200001b2:	2000      	movs	r0, #0
200001b4:	e7f5      	b.n	200001a2 <sem_release+0x36>
200001b6:	46c0      	nop			; (mov r8, r8)

200001b8 <mutex_enter_blocking>:
200001b8:	23d0      	movs	r3, #208	; 0xd0
200001ba:	b530      	push	{r4, r5, lr}
200001bc:	2500      	movs	r5, #0
200001be:	061b      	lsls	r3, r3, #24
200001c0:	2400      	movs	r4, #0
200001c2:	575d      	ldrsb	r5, [r3, r5]
200001c4:	e006      	b.n	200001d4 <mutex_enter_blocking+0x1c>
200001c6:	6803      	ldr	r3, [r0, #0]
200001c8:	f3bf 8f5f 	dmb	sy
200001cc:	601c      	str	r4, [r3, #0]
200001ce:	f381 8810 	msr	PRIMASK, r1
200001d2:	bf20      	wfe
200001d4:	6802      	ldr	r2, [r0, #0]
200001d6:	f3ef 8110 	mrs	r1, PRIMASK
200001da:	b672      	cpsid	i
200001dc:	6813      	ldr	r3, [r2, #0]
200001de:	2b00      	cmp	r3, #0
200001e0:	d0fc      	beq.n	200001dc <mutex_enter_blocking+0x24>
200001e2:	f3bf 8f5f 	dmb	sy
200001e6:	7903      	ldrb	r3, [r0, #4]
200001e8:	2b7f      	cmp	r3, #127	; 0x7f
200001ea:	d9ec      	bls.n	200001c6 <mutex_enter_blocking+0xe>
200001ec:	7105      	strb	r5, [r0, #4]
200001ee:	6803      	ldr	r3, [r0, #0]
200001f0:	f3bf 8f5f 	dmb	sy
200001f4:	2200      	movs	r2, #0
200001f6:	601a      	str	r2, [r3, #0]
200001f8:	f381 8810 	msr	PRIMASK, r1
200001fc:	bd30      	pop	{r4, r5, pc}
200001fe:	46c0      	nop			; (mov r8, r8)

20000200 <recursive_mutex_enter_blocking>:
20000200:	23d0      	movs	r3, #208	; 0xd0
20000202:	b530      	push	{r4, r5, lr}
20000204:	2400      	movs	r4, #0
20000206:	061b      	lsls	r3, r3, #24
20000208:	2500      	movs	r5, #0
2000020a:	571c      	ldrsb	r4, [r3, r4]
2000020c:	e008      	b.n	20000220 <recursive_mutex_enter_blocking+0x20>
2000020e:	2b00      	cmp	r3, #0
20000210:	db13      	blt.n	2000023a <recursive_mutex_enter_blocking+0x3a>
20000212:	6803      	ldr	r3, [r0, #0]
20000214:	f3bf 8f5f 	dmb	sy
20000218:	601d      	str	r5, [r3, #0]
2000021a:	f381 8810 	msr	PRIMASK, r1
2000021e:	bf20      	wfe
20000220:	6802      	ldr	r2, [r0, #0]
20000222:	f3ef 8110 	mrs	r1, PRIMASK
20000226:	b672      	cpsid	i
20000228:	6813      	ldr	r3, [r2, #0]
2000022a:	2b00      	cmp	r3, #0
2000022c:	d0fc      	beq.n	20000228 <recursive_mutex_enter_blocking+0x28>
2000022e:	f3bf 8f5f 	dmb	sy
20000232:	2304      	movs	r3, #4
20000234:	56c3      	ldrsb	r3, [r0, r3]
20000236:	42a3      	cmp	r3, r4
20000238:	d1e9      	bne.n	2000020e <recursive_mutex_enter_blocking+0xe>
2000023a:	7943      	ldrb	r3, [r0, #5]
2000023c:	7104      	strb	r4, [r0, #4]
2000023e:	3301      	adds	r3, #1
20000240:	7143      	strb	r3, [r0, #5]
20000242:	6803      	ldr	r3, [r0, #0]
20000244:	f3bf 8f5f 	dmb	sy
20000248:	2200      	movs	r2, #0
2000024a:	601a      	str	r2, [r3, #0]
2000024c:	f381 8810 	msr	PRIMASK, r1
20000250:	bd30      	pop	{r4, r5, pc}
20000252:	46c0      	nop			; (mov r8, r8)

20000254 <mutex_try_enter_block_until>:
20000254:	b5f0      	push	{r4, r5, r6, r7, lr}
20000256:	46c6      	mov	lr, r8
20000258:	0015      	movs	r5, r2
2000025a:	b500      	push	{lr}
2000025c:	0004      	movs	r4, r0
2000025e:	001e      	movs	r6, r3
20000260:	6802      	ldr	r2, [r0, #0]
20000262:	f3ef 8110 	mrs	r1, PRIMASK
20000266:	b672      	cpsid	i
20000268:	6813      	ldr	r3, [r2, #0]
2000026a:	2b00      	cmp	r3, #0
2000026c:	d0fc      	beq.n	20000268 <mutex_try_enter_block_until+0x14>
2000026e:	f3bf 8f5f 	dmb	sy
20000272:	2304      	movs	r3, #4
20000274:	56e3      	ldrsb	r3, [r4, r3]
20000276:	2b00      	cmp	r3, #0
20000278:	db2d      	blt.n	200002d6 <mutex_try_enter_block_until+0x82>
2000027a:	6822      	ldr	r2, [r4, #0]
2000027c:	f3bf 8f5f 	dmb	sy
20000280:	2000      	movs	r0, #0
20000282:	6010      	str	r0, [r2, #0]
20000284:	f381 8810 	msr	PRIMASK, r1
20000288:	22d0      	movs	r2, #208	; 0xd0
2000028a:	0612      	lsls	r2, r2, #24
2000028c:	7812      	ldrb	r2, [r2, #0]
2000028e:	b252      	sxtb	r2, r2
20000290:	4690      	mov	r8, r2
20000292:	429a      	cmp	r2, r3
20000294:	d103      	bne.n	2000029e <mutex_try_enter_block_until+0x4a>
20000296:	2000      	movs	r0, #0
20000298:	bc80      	pop	{r7}
2000029a:	46b8      	mov	r8, r7
2000029c:	bdf0      	pop	{r4, r5, r6, r7, pc}
2000029e:	2700      	movs	r7, #0
200002a0:	e00b      	b.n	200002ba <mutex_try_enter_block_until+0x66>
200002a2:	6823      	ldr	r3, [r4, #0]
200002a4:	f3bf 8f5f 	dmb	sy
200002a8:	601f      	str	r7, [r3, #0]
200002aa:	f381 8810 	msr	PRIMASK, r1
200002ae:	0028      	movs	r0, r5
200002b0:	0031      	movs	r1, r6
200002b2:	f000 f881 	bl	200003b8 <__best_effort_wfe_or_timeout_veneer>
200002b6:	2800      	cmp	r0, #0
200002b8:	d1ed      	bne.n	20000296 <mutex_try_enter_block_until+0x42>
200002ba:	6822      	ldr	r2, [r4, #0]
200002bc:	f3ef 8110 	mrs	r1, PRIMASK
200002c0:	b672      	cpsid	i
200002c2:	6813      	ldr	r3, [r2, #0]
200002c4:	2b00      	cmp	r3, #0
200002c6:	d0fc      	beq.n	200002c2 <mutex_try_enter_block_until+0x6e>
200002c8:	f3bf 8f5f 	dmb	sy
200002cc:	7923      	ldrb	r3, [r4, #4]
200002ce:	2b7f      	cmp	r3, #127	; 0x7f
200002d0:	d9e7      	bls.n	200002a2 <mutex_try_enter_block_until+0x4e>
200002d2:	4643      	mov	r3, r8
200002d4:	e002      	b.n	200002dc <mutex_try_enter_block_until+0x88>
200002d6:	23d0      	movs	r3, #208	; 0xd0
200002d8:	061b      	lsls	r3, r3, #24
200002da:	681b      	ldr	r3, [r3, #0]
200002dc:	7123      	strb	r3, [r4, #4]
200002de:	6823      	ldr	r3, [r4, #0]
200002e0:	f3bf 8f5f 	dmb	sy
200002e4:	2200      	movs	r2, #0
200002e6:	601a      	str	r2, [r3, #0]
200002e8:	f381 8810 	msr	PRIMASK, r1
200002ec:	2001      	movs	r0, #1
200002ee:	e7d3      	b.n	20000298 <mutex_try_enter_block_until+0x44>

200002f0 <recursive_mutex_try_enter>:
200002f0:	22d0      	movs	r2, #208	; 0xd0
200002f2:	0003      	movs	r3, r0
200002f4:	2000      	movs	r0, #0
200002f6:	0612      	lsls	r2, r2, #24
200002f8:	b510      	push	{r4, lr}
200002fa:	5610      	ldrsb	r0, [r2, r0]
200002fc:	681c      	ldr	r4, [r3, #0]
200002fe:	f3ef 8c10 	mrs	ip, PRIMASK
20000302:	b672      	cpsid	i
20000304:	6822      	ldr	r2, [r4, #0]
20000306:	2a00      	cmp	r2, #0
20000308:	d0fc      	beq.n	20000304 <recursive_mutex_try_enter+0x14>
2000030a:	f3bf 8f5f 	dmb	sy
2000030e:	2204      	movs	r2, #4
20000310:	569a      	ldrsb	r2, [r3, r2]
20000312:	2a00      	cmp	r2, #0
20000314:	db06      	blt.n	20000324 <recursive_mutex_try_enter+0x34>
20000316:	4282      	cmp	r2, r0
20000318:	d004      	beq.n	20000324 <recursive_mutex_try_enter+0x34>
2000031a:	2900      	cmp	r1, #0
2000031c:	d00f      	beq.n	2000033e <recursive_mutex_try_enter+0x4e>
2000031e:	2000      	movs	r0, #0
20000320:	600a      	str	r2, [r1, #0]
20000322:	e004      	b.n	2000032e <recursive_mutex_try_enter+0x3e>
20000324:	7118      	strb	r0, [r3, #4]
20000326:	2001      	movs	r0, #1
20000328:	795a      	ldrb	r2, [r3, #5]
2000032a:	3201      	adds	r2, #1
2000032c:	715a      	strb	r2, [r3, #5]
2000032e:	681b      	ldr	r3, [r3, #0]
20000330:	f3bf 8f5f 	dmb	sy
20000334:	2200      	movs	r2, #0
20000336:	601a      	str	r2, [r3, #0]
20000338:	f38c 8810 	msr	PRIMASK, ip
2000033c:	bd10      	pop	{r4, pc}
2000033e:	2000      	movs	r0, #0
20000340:	e7f5      	b.n	2000032e <recursive_mutex_try_enter+0x3e>
20000342:	46c0      	nop			; (mov r8, r8)

20000344 <mutex_exit>:
20000344:	6802      	ldr	r2, [r0, #0]
20000346:	f3ef 8110 	mrs	r1, PRIMASK
2000034a:	b672      	cpsid	i
2000034c:	6813      	ldr	r3, [r2, #0]
2000034e:	2b00      	cmp	r3, #0
20000350:	d0fc      	beq.n	2000034c <mutex_exit+0x8>
20000352:	f3bf 8f5f 	dmb	sy
20000356:	23ff      	movs	r3, #255	; 0xff
20000358:	7103      	strb	r3, [r0, #4]
2000035a:	6803      	ldr	r3, [r0, #0]
2000035c:	f3bf 8f5f 	dmb	sy
20000360:	2200      	movs	r2, #0
20000362:	601a      	str	r2, [r3, #0]
20000364:	f381 8810 	msr	PRIMASK, r1
20000368:	bf40      	sev
2000036a:	4770      	bx	lr

2000036c <recursive_mutex_exit>:
2000036c:	6802      	ldr	r2, [r0, #0]
2000036e:	f3ef 8110 	mrs	r1, PRIMASK
20000372:	b672      	cpsid	i
20000374:	6813      	ldr	r3, [r2, #0]
20000376:	2b00      	cmp	r3, #0
20000378:	d0fc      	beq.n	20000374 <recursive_mutex_exit+0x8>
2000037a:	f3bf 8f5f 	dmb	sy
2000037e:	7943      	ldrb	r3, [r0, #5]
20000380:	3b01      	subs	r3, #1
20000382:	b2db      	uxtb	r3, r3
20000384:	7143      	strb	r3, [r0, #5]
20000386:	2b00      	cmp	r3, #0
20000388:	d109      	bne.n	2000039e <recursive_mutex_exit+0x32>
2000038a:	22ff      	movs	r2, #255	; 0xff
2000038c:	7102      	strb	r2, [r0, #4]
2000038e:	6802      	ldr	r2, [r0, #0]
20000390:	f3bf 8f5f 	dmb	sy
20000394:	6013      	str	r3, [r2, #0]
20000396:	f381 8810 	msr	PRIMASK, r1
2000039a:	bf40      	sev
2000039c:	4770      	bx	lr
2000039e:	6803      	ldr	r3, [r0, #0]
200003a0:	f3bf 8f5f 	dmb	sy
200003a4:	2200      	movs	r2, #0
200003a6:	601a      	str	r2, [r3, #0]
200003a8:	f381 8810 	msr	PRIMASK, r1
200003ac:	e7f6      	b.n	2000039c <recursive_mutex_exit+0x30>
200003ae:	46c0      	nop			; (mov r8, r8)

200003b0 <__aeabi_idiv0>:
200003b0:	4770      	bx	lr
200003b2:	46c0      	nop			; (mov r8, r8)
200003b4:	0000      	movs	r0, r0
	...

200003b8 <__best_effort_wfe_or_timeout_veneer>:
200003b8:	b401      	push	{r0}
200003ba:	4802      	ldr	r0, [pc, #8]	; (200003c4 <__best_effort_wfe_or_timeout_veneer+0xc>)
200003bc:	4684      	mov	ip, r0
200003be:	bc01      	pop	{r0}
200003c0:	4760      	bx	ip
200003c2:	bf00      	nop
200003c4:	100018a9 	.word	0x100018a9

200003c8 <worker>:
200003c8:	00000000 100003a1 00000000 00000000     ................

200003d8 <striped_spin_lock_num>:
200003d8:	00000010                                ....

200003dc <irq_handler_chain_slots>:
200003dc:	00000000 	.word	0x00000000
200003e0:	00010000 	.word	0x00010000
	...
200003ec:	00020000 	.word	0x00020000
	...
200003f8:	00030000 	.word	0x00030000
	...
20000404:	00ff0000 	.word	0x00ff0000
20000408:	00000000 	.word	0x00000000

2000040c <irq_handler_chain_first_slot>:
2000040c:	b501      	push	{r0, lr}
2000040e:	6848      	ldr	r0, [r1, #4]
20000410:	3101      	adds	r1, #1
20000412:	468e      	mov	lr, r1
20000414:	4700      	bx	r0

20000416 <irq_handler_chain_remove_tail>:
20000416:	4670      	mov	r0, lr
20000418:	3809      	subs	r0, #9
2000041a:	4901      	ldr	r1, [pc, #4]	; (20000420 <irq_handler_chain_remove_tail+0xa>)
2000041c:	4788      	blx	r1
2000041e:	bd01      	pop	{r0, pc}
20000420:	10000efd 	.word	0x10000efd

20000424 <default_alarm_pool>:
	...
20000438:	20000d18 00000000                       ... ....

20000440 <aeabi_bits_funcs>:
20000440:	00003350 	.word	0x00003350
20000444:	0000334c 	.word	0x0000334c
20000448:	00003354 	.word	0x00003354
2000044c:	00003352 	.word	0x00003352

20000450 <aeabi_bits_funcs_end>:
20000450:	0000534d 	.word	0x0000534d
20000454:	0000434d 	.word	0x0000434d
20000458:	00003453 	.word	0x00003453
2000045c:	00003443 	.word	0x00003443

20000460 <stdio_uart>:
20000460:	10004989 10004a81 100049d5 10004a95     .I...J...I...J..
20000470:	00000000 00000100                       ........

20000478 <_impure_ptr>:
20000478:	20000480 00000000                       ... ....

20000480 <impure_data>:
20000480:	00000000 2000076c 200007d4 2000083c     ....l.. ... <.. 
	...
20000528:	00000001 00000000 abcd330e e66d1234     .........3..4.m.
20000538:	0005deec 0000000b 00000000 00000000     ................
	...

200008a8 <__malloc_sbrk_base>:
200008a8:	ffffffff                                ....

200008ac <__malloc_trim_threshold>:
200008ac:	00020000                                ....

200008b0 <__malloc_av_>:
	...
200008b8:	200008b0 200008b0 200008b8 200008b8     ... ... ... ... 
200008c8:	200008c0 200008c0 200008c8 200008c8     ... ... ... ... 
200008d8:	200008d0 200008d0 200008d8 200008d8     ... ... ... ... 
200008e8:	200008e0 200008e0 200008e8 200008e8     ... ... ... ... 
200008f8:	200008f0 200008f0 200008f8 200008f8     ... ... ... ... 
20000908:	20000900 20000900 20000908 20000908     ... ... ... ... 
20000918:	20000910 20000910 20000918 20000918     ... ... ... ... 
20000928:	20000920 20000920 20000928 20000928      ..  .. (.. (.. 
20000938:	20000930 20000930 20000938 20000938     0.. 0.. 8.. 8.. 
20000948:	20000940 20000940 20000948 20000948     @.. @.. H.. H.. 
20000958:	20000950 20000950 20000958 20000958     P.. P.. X.. X.. 
20000968:	20000960 20000960 20000968 20000968     `.. `.. h.. h.. 
20000978:	20000970 20000970 20000978 20000978     p.. p.. x.. x.. 
20000988:	20000980 20000980 20000988 20000988     ... ... ... ... 
20000998:	20000990 20000990 20000998 20000998     ... ... ... ... 
200009a8:	200009a0 200009a0 200009a8 200009a8     ... ... ... ... 
200009b8:	200009b0 200009b0 200009b8 200009b8     ... ... ... ... 
200009c8:	200009c0 200009c0 200009c8 200009c8     ... ... ... ... 
200009d8:	200009d0 200009d0 200009d8 200009d8     ... ... ... ... 
200009e8:	200009e0 200009e0 200009e8 200009e8     ... ... ... ... 
200009f8:	200009f0 200009f0 200009f8 200009f8     ... ... ... ... 
20000a08:	20000a00 20000a00 20000a08 20000a08     ... ... ... ... 
20000a18:	20000a10 20000a10 20000a18 20000a18     ... ... ... ... 
20000a28:	20000a20 20000a20 20000a28 20000a28      ..  .. (.. (.. 
20000a38:	20000a30 20000a30 20000a38 20000a38     0.. 0.. 8.. 8.. 
20000a48:	20000a40 20000a40 20000a48 20000a48     @.. @.. H.. H.. 
20000a58:	20000a50 20000a50 20000a58 20000a58     P.. P.. X.. X.. 
20000a68:	20000a60 20000a60 20000a68 20000a68     `.. `.. h.. h.. 
20000a78:	20000a70 20000a70 20000a78 20000a78     p.. p.. x.. x.. 
20000a88:	20000a80 20000a80 20000a88 20000a88     ... ... ... ... 
20000a98:	20000a90 20000a90 20000a98 20000a98     ... ... ... ... 
20000aa8:	20000aa0 20000aa0 20000aa8 20000aa8     ... ... ... ... 
20000ab8:	20000ab0 20000ab0 20000ab8 20000ab8     ... ... ... ... 
20000ac8:	20000ac0 20000ac0 20000ac8 20000ac8     ... ... ... ... 
20000ad8:	20000ad0 20000ad0 20000ad8 20000ad8     ... ... ... ... 
20000ae8:	20000ae0 20000ae0 20000ae8 20000ae8     ... ... ... ... 
20000af8:	20000af0 20000af0 20000af8 20000af8     ... ... ... ... 
20000b08:	20000b00 20000b00 20000b08 20000b08     ... ... ... ... 
20000b18:	20000b10 20000b10 20000b18 20000b18     ... ... ... ... 
20000b28:	20000b20 20000b20 20000b28 20000b28      ..  .. (.. (.. 
20000b38:	20000b30 20000b30 20000b38 20000b38     0.. 0.. 8.. 8.. 
20000b48:	20000b40 20000b40 20000b48 20000b48     @.. @.. H.. H.. 
20000b58:	20000b50 20000b50 20000b58 20000b58     P.. P.. X.. X.. 
20000b68:	20000b60 20000b60 20000b68 20000b68     `.. `.. h.. h.. 
20000b78:	20000b70 20000b70 20000b78 20000b78     p.. p.. x.. x.. 
20000b88:	20000b80 20000b80 20000b88 20000b88     ... ... ... ... 
20000b98:	20000b90 20000b90 20000b98 20000b98     ... ... ... ... 
20000ba8:	20000ba0 20000ba0 20000ba8 20000ba8     ... ... ... ... 
20000bb8:	20000bb0 20000bb0 20000bb8 20000bb8     ... ... ... ... 
20000bc8:	20000bc0 20000bc0 20000bc8 20000bc8     ... ... ... ... 
20000bd8:	20000bd0 20000bd0 20000bd8 20000bd8     ... ... ... ... 
20000be8:	20000be0 20000be0 20000be8 20000be8     ... ... ... ... 
20000bf8:	20000bf0 20000bf0 20000bf8 20000bf8     ... ... ... ... 
20000c08:	20000c00 20000c00 20000c08 20000c08     ... ... ... ... 
20000c18:	20000c10 20000c10 20000c18 20000c18     ... ... ... ... 
20000c28:	20000c20 20000c20 20000c28 20000c28      ..  .. (.. (.. 
20000c38:	20000c30 20000c30 20000c38 20000c38     0.. 0.. 8.. 8.. 
20000c48:	20000c40 20000c40 20000c48 20000c48     @.. @.. H.. H.. 
20000c58:	20000c50 20000c50 20000c58 20000c58     P.. P.. X.. X.. 
20000c68:	20000c60 20000c60 20000c68 20000c68     `.. `.. h.. h.. 
20000c78:	20000c70 20000c70 20000c78 20000c78     p.. p.. x.. x.. 
20000c88:	20000c80 20000c80 20000c88 20000c88     ... ... ... ... 
20000c98:	20000c90 20000c90 20000c98 20000c98     ... ... ... ... 
20000ca8:	20000ca0 20000ca0 20000ca8 20000ca8     ... ... ... ... 

20000cb8 <malloc_mutex>:
	...

20000cc0 <print_mutex>:
	...
